
nvme_driver:     file format elf64-littleriscv


Disassembly of section .text:

0000000000010158 <exit>:
   10158:	ff010113          	addi	sp,sp,-16
   1015c:	00113423          	sd	ra,8(sp)
   10160:	00813023          	sd	s0,0(sp)
   10164:	00050413          	mv	s0,a0
   10168:	5c1000ef          	jal	10f28 <__funcs_on_exit>
   1016c:	5c1000ef          	jal	10f2c <__libc_exit_fini>
   10170:	0000f317          	auipc	t1,0xf
   10174:	e5033303          	ld	t1,-432(t1) # 1efc0 <_GLOBAL_OFFSET_TABLE_+0x68>
   10178:	000300e7          	jalr	t1
   1017c:	00040513          	mv	a0,s0
   10180:	5a8070ef          	jal	17728 <_Exit>

0000000000010184 <_start>:
   10184:	0000f197          	auipc	gp,0xf
   10188:	67c18193          	addi	gp,gp,1660 # 1f800 <__global_pointer$>
   1018c:	00010513          	mv	a0,sp
   10190:	00000593          	li	a1,0
   10194:	ff017113          	andi	sp,sp,-16
   10198:	0040006f          	j	1019c <_start_c>

000000000001019c <_start_c>:
   1019c:	00052583          	lw	a1,0(a0)
   101a0:	00850613          	addi	a2,a0,8
   101a4:	00000793          	li	a5,0
   101a8:	0000f717          	auipc	a4,0xf
   101ac:	e3073703          	ld	a4,-464(a4) # 1efd8 <_GLOBAL_OFFSET_TABLE_+0x80>
   101b0:	0000f697          	auipc	a3,0xf
   101b4:	de06b683          	ld	a3,-544(a3) # 1ef90 <_GLOBAL_OFFSET_TABLE_+0x38>
   101b8:	0000f517          	auipc	a0,0xf
   101bc:	e0053503          	ld	a0,-512(a0) # 1efb8 <_GLOBAL_OFFSET_TABLE_+0x60>
   101c0:	4350006f          	j	10df4 <__libc_start_main>

00000000000101c4 <deregister_tm_clones>:
   101c4:	9f018793          	addi	a5,gp,-1552 # 1f1f0 <__TMC_END__>
   101c8:	9f018713          	addi	a4,gp,-1552 # 1f1f0 <__TMC_END__>
   101cc:	00f70a63          	beq	a4,a5,101e0 <deregister_tm_clones+0x1c>
   101d0:	00000793          	li	a5,0
   101d4:	00078663          	beqz	a5,101e0 <deregister_tm_clones+0x1c>
   101d8:	9f018513          	addi	a0,gp,-1552 # 1f1f0 <__TMC_END__>
   101dc:	00078067          	jr	a5
   101e0:	00008067          	ret

00000000000101e4 <register_tm_clones>:
   101e4:	9f018793          	addi	a5,gp,-1552 # 1f1f0 <__TMC_END__>
   101e8:	9f018593          	addi	a1,gp,-1552 # 1f1f0 <__TMC_END__>
   101ec:	40f585b3          	sub	a1,a1,a5
   101f0:	4035d793          	srai	a5,a1,0x3
   101f4:	03f5d593          	srli	a1,a1,0x3f
   101f8:	00f585b3          	add	a1,a1,a5
   101fc:	4015d593          	srai	a1,a1,0x1
   10200:	00058a63          	beqz	a1,10214 <register_tm_clones+0x30>
   10204:	00000793          	li	a5,0
   10208:	00078663          	beqz	a5,10214 <register_tm_clones+0x30>
   1020c:	9f018513          	addi	a0,gp,-1552 # 1f1f0 <__TMC_END__>
   10210:	00078067          	jr	a5
   10214:	00008067          	ret

0000000000010218 <__do_global_dtors_aux>:
   10218:	ff010113          	addi	sp,sp,-16
   1021c:	00813023          	sd	s0,0(sp)
   10220:	9f81c783          	lbu	a5,-1544(gp) # 1f1f8 <completed.1>
   10224:	00113423          	sd	ra,8(sp)
   10228:	02079463          	bnez	a5,10250 <__do_global_dtors_aux+0x38>
   1022c:	f99ff0ef          	jal	101c4 <deregister_tm_clones>
   10230:	00000793          	li	a5,0
   10234:	00078a63          	beqz	a5,10248 <__do_global_dtors_aux+0x30>
   10238:	0001d537          	lui	a0,0x1d
   1023c:	cd050513          	addi	a0,a0,-816 # 1ccd0 <__EH_FRAME_BEGIN__>
   10240:	00000097          	auipc	ra,0x0
   10244:	000000e7          	jalr	zero # 0 <exit-0x10158>
   10248:	00100793          	li	a5,1
   1024c:	9ef18c23          	sb	a5,-1544(gp) # 1f1f8 <completed.1>
   10250:	00813083          	ld	ra,8(sp)
   10254:	00013403          	ld	s0,0(sp)
   10258:	01010113          	addi	sp,sp,16
   1025c:	00008067          	ret

0000000000010260 <frame_dummy>:
   10260:	00000793          	li	a5,0
   10264:	02078663          	beqz	a5,10290 <frame_dummy+0x30>
   10268:	0001d537          	lui	a0,0x1d
   1026c:	ff010113          	addi	sp,sp,-16
   10270:	a0018593          	addi	a1,gp,-1536 # 1f200 <object.0>
   10274:	cd050513          	addi	a0,a0,-816 # 1ccd0 <__EH_FRAME_BEGIN__>
   10278:	00113423          	sd	ra,8(sp)
   1027c:	00000097          	auipc	ra,0x0
   10280:	000000e7          	jalr	zero # 0 <exit-0x10158>
   10284:	00813083          	ld	ra,8(sp)
   10288:	01010113          	addi	sp,sp,16
   1028c:	f59ff06f          	j	101e4 <register_tm_clones>
   10290:	f55ff06f          	j	101e4 <register_tm_clones>

0000000000010294 <init_ddma_ctx>:
   10294:	7139                	addi	sp,sp,-64
   10296:	fc06                	sd	ra,56(sp)
   10298:	f822                	sd	s0,48(sp)
   1029a:	0080                	addi	s0,sp,64
   1029c:	fca43423          	sd	a0,-56(s0)
   102a0:	4579                	li	a0,30
   102a2:	5ae000ef          	jal	10850 <sysconf>
   102a6:	87aa                	mv	a5,a0
   102a8:	fcf43823          	sd	a5,-48(s0)
   102ac:	02000593          	li	a1,32
   102b0:	4505                	li	a0,1
   102b2:	0da010ef          	jal	1138c <calloc>
   102b6:	87aa                	mv	a5,a0
   102b8:	fcf43c23          	sd	a5,-40(s0)
   102bc:	fd843783          	ld	a5,-40(s0)
   102c0:	eb81                	bnez	a5,102d0 <init_ddma_ctx+0x3c>
   102c2:	67ed                	lui	a5,0x1b
   102c4:	5b078513          	addi	a0,a5,1456 # 1b5b0 <__clzdi2+0x58>
   102c8:	711000ef          	jal	111d8 <warn>
   102cc:	4781                	li	a5,0
   102ce:	a041                	j	1034e <init_ddma_ctx+0xba>
   102d0:	4581                	li	a1,0
   102d2:	67ed                	lui	a5,0x1b
   102d4:	5b878513          	addi	a0,a5,1464 # 1b5b8 <__clzdi2+0x60>
   102d8:	4a5000ef          	jal	10f7c <open>
   102dc:	87aa                	mv	a5,a0
   102de:	fef43023          	sd	a5,-32(s0)
   102e2:	4781                	li	a5,0
   102e4:	577d                	li	a4,-1
   102e6:	02200693          	li	a3,34
   102ea:	460d                	li	a2,3
   102ec:	fc843583          	ld	a1,-56(s0)
   102f0:	4501                	li	a0,0
   102f2:	54e030ef          	jal	13840 <__mmap>
   102f6:	fea43423          	sd	a0,-24(s0)
   102fa:	fe843783          	ld	a5,-24(s0)
   102fe:	ef81                	bnez	a5,10316 <init_ddma_ctx+0x82>
   10300:	fd843503          	ld	a0,-40(s0)
   10304:	054000ef          	jal	10358 <destroy_ddma_ctx>
   10308:	67ed                	lui	a5,0x1b
   1030a:	5b078513          	addi	a0,a5,1456 # 1b5b0 <__clzdi2+0x58>
   1030e:	6cb000ef          	jal	111d8 <warn>
   10312:	4781                	li	a5,0
   10314:	a82d                	j	1034e <init_ddma_ctx+0xba>
   10316:	fc843583          	ld	a1,-56(s0)
   1031a:	fe843503          	ld	a0,-24(s0)
   1031e:	4fa030ef          	jal	13818 <mlock>
   10322:	fd843783          	ld	a5,-40(s0)
   10326:	fd043703          	ld	a4,-48(s0)
   1032a:	e798                	sd	a4,8(a5)
   1032c:	fd843783          	ld	a5,-40(s0)
   10330:	fc843703          	ld	a4,-56(s0)
   10334:	eb98                	sd	a4,16(a5)
   10336:	fd843783          	ld	a5,-40(s0)
   1033a:	fe043703          	ld	a4,-32(s0)
   1033e:	e398                	sd	a4,0(a5)
   10340:	fd843783          	ld	a5,-40(s0)
   10344:	fe843703          	ld	a4,-24(s0)
   10348:	ef98                	sd	a4,24(a5)
   1034a:	fd843783          	ld	a5,-40(s0)
   1034e:	853e                	mv	a0,a5
   10350:	70e2                	ld	ra,56(sp)
   10352:	7442                	ld	s0,48(sp)
   10354:	6121                	addi	sp,sp,64
   10356:	8082                	ret

0000000000010358 <destroy_ddma_ctx>:
   10358:	1101                	addi	sp,sp,-32
   1035a:	ec06                	sd	ra,24(sp)
   1035c:	e822                	sd	s0,16(sp)
   1035e:	1000                	addi	s0,sp,32
   10360:	fea43423          	sd	a0,-24(s0)
   10364:	fe843783          	ld	a5,-24(s0)
   10368:	639c                	ld	a5,0(a5)
   1036a:	cb81                	beqz	a5,1037a <destroy_ddma_ctx+0x22>
   1036c:	fe843783          	ld	a5,-24(s0)
   10370:	639c                	ld	a5,0(a5)
   10372:	2781                	sext.w	a5,a5
   10374:	853e                	mv	a0,a5
   10376:	02e070ef          	jal	173a4 <close>
   1037a:	fe843783          	ld	a5,-24(s0)
   1037e:	cb8d                	beqz	a5,103b0 <destroy_ddma_ctx+0x58>
   10380:	fe843783          	ld	a5,-24(s0)
   10384:	6f9c                	ld	a5,24(a5)
   10386:	c78d                	beqz	a5,103b0 <destroy_ddma_ctx+0x58>
   10388:	fe843783          	ld	a5,-24(s0)
   1038c:	6f98                	ld	a4,24(a5)
   1038e:	fe843783          	ld	a5,-24(s0)
   10392:	6b9c                	ld	a5,16(a5)
   10394:	85be                	mv	a1,a5
   10396:	853a                	mv	a0,a4
   10398:	5c8030ef          	jal	13960 <munlock>
   1039c:	fe843783          	ld	a5,-24(s0)
   103a0:	6f98                	ld	a4,24(a5)
   103a2:	fe843783          	ld	a5,-24(s0)
   103a6:	6b9c                	ld	a5,16(a5)
   103a8:	85be                	mv	a1,a5
   103aa:	853a                	mv	a0,a4
   103ac:	5dc030ef          	jal	13988 <__munmap>
   103b0:	fe843503          	ld	a0,-24(s0)
   103b4:	0fc010ef          	jal	114b0 <free>
   103b8:	0001                	nop
   103ba:	60e2                	ld	ra,24(sp)
   103bc:	6442                	ld	s0,16(sp)
   103be:	6105                	addi	sp,sp,32
   103c0:	8082                	ret

00000000000103c2 <ddma_to_phys>:
   103c2:	7139                	addi	sp,sp,-64
   103c4:	fc06                	sd	ra,56(sp)
   103c6:	f822                	sd	s0,48(sp)
   103c8:	0080                	addi	s0,sp,64
   103ca:	fca43423          	sd	a0,-56(s0)
   103ce:	fcb43023          	sd	a1,-64(s0)
   103d2:	a301b703          	ld	a4,-1488(gp) # 1f230 <__stack_chk_guard>
   103d6:	fee43423          	sd	a4,-24(s0)
   103da:	4701                	li	a4,0
   103dc:	fc843783          	ld	a5,-56(s0)
   103e0:	679c                	ld	a5,8(a5)
   103e2:	fc043703          	ld	a4,-64(s0)
   103e6:	02f757b3          	divu	a5,a4,a5
   103ea:	078e                	slli	a5,a5,0x3
   103ec:	fcf43c23          	sd	a5,-40(s0)
   103f0:	fc843783          	ld	a5,-56(s0)
   103f4:	639c                	ld	a5,0(a5)
   103f6:	2781                	sext.w	a5,a5
   103f8:	fd843683          	ld	a3,-40(s0)
   103fc:	fd040713          	addi	a4,s0,-48
   10400:	4621                	li	a2,8
   10402:	85ba                	mv	a1,a4
   10404:	853e                	mv	a0,a5
   10406:	7ef060ef          	jal	173f4 <pread>
   1040a:	872a                	mv	a4,a0
   1040c:	57fd                	li	a5,-1
   1040e:	00f71d63          	bne	a4,a5,10428 <ddma_to_phys+0x66>
   10412:	67ed                	lui	a5,0x1b
   10414:	5b078513          	addi	a0,a5,1456 # 1b5b0 <__clzdi2+0x58>
   10418:	5c1000ef          	jal	111d8 <warn>
   1041c:	fc843503          	ld	a0,-56(s0)
   10420:	f39ff0ef          	jal	10358 <destroy_ddma_ctx>
   10424:	4781                	li	a5,0
   10426:	a0b1                	j	10472 <ddma_to_phys+0xb0>
   10428:	fd043783          	ld	a5,-48(s0)
   1042c:	0007cd63          	bltz	a5,10446 <ddma_to_phys+0x84>
   10430:	67ed                	lui	a5,0x1b
   10432:	5d078513          	addi	a0,a5,1488 # 1b5d0 <__clzdi2+0x78>
   10436:	617000ef          	jal	1124c <warnx>
   1043a:	fc843503          	ld	a0,-56(s0)
   1043e:	f1bff0ef          	jal	10358 <destroy_ddma_ctx>
   10442:	4781                	li	a5,0
   10444:	a03d                	j	10472 <ddma_to_phys+0xb0>
   10446:	fd043703          	ld	a4,-48(s0)
   1044a:	57fd                	li	a5,-1
   1044c:	83a5                	srli	a5,a5,0x9
   1044e:	8f7d                	and	a4,a4,a5
   10450:	fc843783          	ld	a5,-56(s0)
   10454:	679c                	ld	a5,8(a5)
   10456:	02f707b3          	mul	a5,a4,a5
   1045a:	fef43023          	sd	a5,-32(s0)
   1045e:	fc843783          	ld	a5,-56(s0)
   10462:	679c                	ld	a5,8(a5)
   10464:	fc043703          	ld	a4,-64(s0)
   10468:	02f77733          	remu	a4,a4,a5
   1046c:	fe043783          	ld	a5,-32(s0)
   10470:	97ba                	add	a5,a5,a4
   10472:	873e                	mv	a4,a5
   10474:	fe843683          	ld	a3,-24(s0)
   10478:	a301b783          	ld	a5,-1488(gp) # 1f230 <__stack_chk_guard>
   1047c:	8fb5                	xor	a5,a5,a3
   1047e:	4681                	li	a3,0
   10480:	c399                	beqz	a5,10486 <ddma_to_phys+0xc4>
   10482:	243000ef          	jal	10ec4 <__stack_chk_fail>
   10486:	853a                	mv	a0,a4
   10488:	70e2                	ld	ra,56(sp)
   1048a:	7442                	ld	s0,48(sp)
   1048c:	6121                	addi	sp,sp,64
   1048e:	8082                	ret

0000000000010490 <driver_main>:
   10490:	7139                	addi	sp,sp,-64
   10492:	fc06                	sd	ra,56(sp)
   10494:	f822                	sd	s0,48(sp)
   10496:	0080                	addi	s0,sp,64
   10498:	fca43c23          	sd	a0,-40(s0)
   1049c:	fcb43823          	sd	a1,-48(s0)
   104a0:	fcc43423          	sd	a2,-56(s0)
   104a4:	67ed                	lui	a5,0x1b
   104a6:	5f078593          	addi	a1,a5,1520 # 1b5f0 <__clzdi2+0x98>
   104aa:	67ed                	lui	a5,0x1b
   104ac:	62878513          	addi	a0,a5,1576 # 1b628 <__clzdi2+0xd0>
   104b0:	401030ef          	jal	140b0 <printf>
   104b4:	678d                	lui	a5,0x3
   104b6:	80078513          	addi	a0,a5,-2048 # 2800 <exit-0xd958>
   104ba:	ddbff0ef          	jal	10294 <init_ddma_ctx>
   104be:	fea43023          	sd	a0,-32(s0)
   104c2:	fe043783          	ld	a5,-32(s0)
   104c6:	e399                	bnez	a5,104cc <driver_main+0x3c>
   104c8:	4785                	li	a5,1
   104ca:	a0c9                	j	1058c <driver_main+0xfc>
   104cc:	fc843583          	ld	a1,-56(s0)
   104d0:	fd043503          	ld	a0,-48(s0)
   104d4:	13e000ef          	jal	10612 <bar0_mapping>
   104d8:	fea43423          	sd	a0,-24(s0)
   104dc:	fe843783          	ld	a5,-24(s0)
   104e0:	e799                	bnez	a5,104ee <driver_main+0x5e>
   104e2:	fe043503          	ld	a0,-32(s0)
   104e6:	e73ff0ef          	jal	10358 <destroy_ddma_ctx>
   104ea:	4785                	li	a5,1
   104ec:	a045                	j	1058c <driver_main+0xfc>
   104ee:	67ed                	lui	a5,0x1b
   104f0:	63878513          	addi	a0,a5,1592 # 1b638 <__clzdi2+0xe0>
   104f4:	5b5030ef          	jal	142a8 <puts>
   104f8:	fe043783          	ld	a5,-32(s0)
   104fc:	639c                	ld	a5,0(a5)
   104fe:	85be                	mv	a1,a5
   10500:	67ed                	lui	a5,0x1b
   10502:	64878513          	addi	a0,a5,1608 # 1b648 <__clzdi2+0xf0>
   10506:	3ab030ef          	jal	140b0 <printf>
   1050a:	fe043783          	ld	a5,-32(s0)
   1050e:	679c                	ld	a5,8(a5)
   10510:	85be                	mv	a1,a5
   10512:	67ed                	lui	a5,0x1b
   10514:	66078513          	addi	a0,a5,1632 # 1b660 <__clzdi2+0x108>
   10518:	399030ef          	jal	140b0 <printf>
   1051c:	fe043783          	ld	a5,-32(s0)
   10520:	6b9c                	ld	a5,16(a5)
   10522:	85be                	mv	a1,a5
   10524:	67ed                	lui	a5,0x1b
   10526:	67878513          	addi	a0,a5,1656 # 1b678 <__clzdi2+0x120>
   1052a:	387030ef          	jal	140b0 <printf>
   1052e:	fe043783          	ld	a5,-32(s0)
   10532:	6f9c                	ld	a5,24(a5)
   10534:	85be                	mv	a1,a5
   10536:	67ed                	lui	a5,0x1b
   10538:	69078513          	addi	a0,a5,1680 # 1b690 <__clzdi2+0x138>
   1053c:	375030ef          	jal	140b0 <printf>
   10540:	67ed                	lui	a5,0x1b
   10542:	6a078513          	addi	a0,a5,1696 # 1b6a0 <__clzdi2+0x148>
   10546:	563030ef          	jal	142a8 <puts>
   1054a:	fe843783          	ld	a5,-24(s0)
   1054e:	85be                	mv	a1,a5
   10550:	67ed                	lui	a5,0x1b
   10552:	6b878513          	addi	a0,a5,1720 # 1b6b8 <__clzdi2+0x160>
   10556:	35b030ef          	jal	140b0 <printf>
   1055a:	67ed                	lui	a5,0x1b
   1055c:	6c078593          	addi	a1,a5,1728 # 1b6c0 <__clzdi2+0x168>
   10560:	67ed                	lui	a5,0x1b
   10562:	6e878513          	addi	a0,a5,1768 # 1b6e8 <__clzdi2+0x190>
   10566:	34b030ef          	jal	140b0 <printf>
   1056a:	67ed                	lui	a5,0x1b
   1056c:	6f878593          	addi	a1,a5,1784 # 1b6f8 <__clzdi2+0x1a0>
   10570:	67ed                	lui	a5,0x1b
   10572:	62878513          	addi	a0,a5,1576 # 1b628 <__clzdi2+0xd0>
   10576:	33b030ef          	jal	140b0 <printf>
   1057a:	fe843503          	ld	a0,-24(s0)
   1057e:	733000ef          	jal	114b0 <free>
   10582:	fe043503          	ld	a0,-32(s0)
   10586:	dd3ff0ef          	jal	10358 <destroy_ddma_ctx>
   1058a:	4781                	li	a5,0
   1058c:	853e                	mv	a0,a5
   1058e:	70e2                	ld	ra,56(sp)
   10590:	7442                	ld	s0,48(sp)
   10592:	6121                	addi	sp,sp,64
   10594:	8082                	ret

0000000000010596 <main>:
   10596:	7179                	addi	sp,sp,-48
   10598:	f406                	sd	ra,40(sp)
   1059a:	f022                	sd	s0,32(sp)
   1059c:	1800                	addi	s0,sp,48
   1059e:	87aa                	mv	a5,a0
   105a0:	fcb43823          	sd	a1,-48(s0)
   105a4:	fcf42e23          	sw	a5,-36(s0)
   105a8:	fe043423          	sd	zero,-24(s0)
   105ac:	fd040713          	addi	a4,s0,-48
   105b0:	fdc40793          	addi	a5,s0,-36
   105b4:	85ba                	mv	a1,a4
   105b6:	853e                	mv	a0,a5
   105b8:	134000ef          	jal	106ec <parse_options>
   105bc:	fea43423          	sd	a0,-24(s0)
   105c0:	fe843783          	ld	a5,-24(s0)
   105c4:	e399                	bnez	a5,105ca <main+0x34>
   105c6:	4785                	li	a5,1
   105c8:	a081                	j	10608 <main+0x72>
   105ca:	fe843783          	ld	a5,-24(s0)
   105ce:	0007c783          	lbu	a5,0(a5)
   105d2:	c789                	beqz	a5,105dc <main+0x46>
   105d4:	0fc000ef          	jal	106d0 <print_help>
   105d8:	4781                	li	a5,0
   105da:	a03d                	j	10608 <main+0x72>
   105dc:	fd043783          	ld	a5,-48(s0)
   105e0:	6398                	ld	a4,0(a5)
   105e2:	fd043783          	ld	a5,-48(s0)
   105e6:	07a1                	addi	a5,a5,8
   105e8:	639c                	ld	a5,0(a5)
   105ea:	863e                	mv	a2,a5
   105ec:	85ba                	mv	a1,a4
   105ee:	fe843503          	ld	a0,-24(s0)
   105f2:	e9fff0ef          	jal	10490 <driver_main>
   105f6:	87aa                	mv	a5,a0
   105f8:	fef403a3          	sb	a5,-25(s0)
   105fc:	fe843503          	ld	a0,-24(s0)
   10600:	6b1000ef          	jal	114b0 <free>
   10604:	fe740783          	lb	a5,-25(s0)
   10608:	853e                	mv	a0,a5
   1060a:	70a2                	ld	ra,40(sp)
   1060c:	7402                	ld	s0,32(sp)
   1060e:	6145                	addi	sp,sp,48
   10610:	8082                	ret

0000000000010612 <bar0_mapping>:
   10612:	7179                	addi	sp,sp,-48
   10614:	f406                	sd	ra,40(sp)
   10616:	f022                	sd	s0,32(sp)
   10618:	1800                	addi	s0,sp,48
   1061a:	fca43c23          	sd	a0,-40(s0)
   1061e:	fcb43823          	sd	a1,-48(s0)
   10622:	001017b7          	lui	a5,0x101
   10626:	00278593          	addi	a1,a5,2 # 101002 <__BSS_END__+0xe13a2>
   1062a:	fd843503          	ld	a0,-40(s0)
   1062e:	14f000ef          	jal	10f7c <open>
   10632:	87aa                	mv	a5,a0
   10634:	fef42223          	sw	a5,-28(s0)
   10638:	fe442783          	lw	a5,-28(s0)
   1063c:	2781                	sext.w	a5,a5
   1063e:	0007db63          	bgez	a5,10654 <bar0_mapping+0x42>
   10642:	fd043583          	ld	a1,-48(s0)
   10646:	67ed                	lui	a5,0x1b
   10648:	71078513          	addi	a0,a5,1808 # 1b710 <__clzdi2+0x1b8>
   1064c:	38d000ef          	jal	111d8 <warn>
   10650:	4781                	li	a5,0
   10652:	a0b1                	j	1069e <bar0_mapping+0x8c>
   10654:	fe442703          	lw	a4,-28(s0)
   10658:	4781                	li	a5,0
   1065a:	4685                	li	a3,1
   1065c:	460d                	li	a2,3
   1065e:	6591                	lui	a1,0x4
   10660:	4501                	li	a0,0
   10662:	1de030ef          	jal	13840 <__mmap>
   10666:	fea43423          	sd	a0,-24(s0)
   1066a:	fe843703          	ld	a4,-24(s0)
   1066e:	57fd                	li	a5,-1
   10670:	02f71063          	bne	a4,a5,10690 <bar0_mapping+0x7e>
   10674:	fd043583          	ld	a1,-48(s0)
   10678:	67ed                	lui	a5,0x1b
   1067a:	73878513          	addi	a0,a5,1848 # 1b738 <__clzdi2+0x1e0>
   1067e:	35b000ef          	jal	111d8 <warn>
   10682:	fe442783          	lw	a5,-28(s0)
   10686:	853e                	mv	a0,a5
   10688:	51d060ef          	jal	173a4 <close>
   1068c:	4781                	li	a5,0
   1068e:	a801                	j	1069e <bar0_mapping+0x8c>
   10690:	fe442783          	lw	a5,-28(s0)
   10694:	853e                	mv	a0,a5
   10696:	50f060ef          	jal	173a4 <close>
   1069a:	fe843783          	ld	a5,-24(s0)
   1069e:	853e                	mv	a0,a5
   106a0:	70a2                	ld	ra,40(sp)
   106a2:	7402                	ld	s0,32(sp)
   106a4:	6145                	addi	sp,sp,48
   106a6:	8082                	ret

00000000000106a8 <ctrl_prop_print>:
   106a8:	1141                	addi	sp,sp,-16
   106aa:	e406                	sd	ra,8(sp)
   106ac:	e022                	sd	s0,0(sp)
   106ae:	0800                	addi	s0,sp,16
   106b0:	4781                	li	a5,0
   106b2:	853e                	mv	a0,a5
   106b4:	60a2                	ld	ra,8(sp)
   106b6:	6402                	ld	s0,0(sp)
   106b8:	0141                	addi	sp,sp,16
   106ba:	8082                	ret

00000000000106bc <cap_prop_print>:
   106bc:	1141                	addi	sp,sp,-16
   106be:	e406                	sd	ra,8(sp)
   106c0:	e022                	sd	s0,0(sp)
   106c2:	0800                	addi	s0,sp,16
   106c4:	4781                	li	a5,0
   106c6:	853e                	mv	a0,a5
   106c8:	60a2                	ld	ra,8(sp)
   106ca:	6402                	ld	s0,0(sp)
   106cc:	0141                	addi	sp,sp,16
   106ce:	8082                	ret

00000000000106d0 <print_help>:
   106d0:	1141                	addi	sp,sp,-16
   106d2:	e406                	sd	ra,8(sp)
   106d4:	e022                	sd	s0,0(sp)
   106d6:	0800                	addi	s0,sp,16
   106d8:	67ed                	lui	a5,0x1b
   106da:	75878513          	addi	a0,a5,1880 # 1b758 <__clzdi2+0x200>
   106de:	1d3030ef          	jal	140b0 <printf>
   106e2:	0001                	nop
   106e4:	60a2                	ld	ra,8(sp)
   106e6:	6402                	ld	s0,0(sp)
   106e8:	0141                	addi	sp,sp,16
   106ea:	8082                	ret

00000000000106ec <parse_options>:
   106ec:	7179                	addi	sp,sp,-48
   106ee:	f406                	sd	ra,40(sp)
   106f0:	f022                	sd	s0,32(sp)
   106f2:	1800                	addi	s0,sp,48
   106f4:	fca43c23          	sd	a0,-40(s0)
   106f8:	fcb43823          	sd	a1,-48(s0)
   106fc:	fe040323          	sb	zero,-26(s0)
   10700:	fe0403a3          	sb	zero,-25(s0)
   10704:	0001f7b7          	lui	a5,0x1f
   10708:	4705                	li	a4,1
   1070a:	00e7a223          	sw	a4,4(a5) # 1f004 <optind>
   1070e:	4585                	li	a1,1
   10710:	4505                	li	a0,1
   10712:	47b000ef          	jal	1138c <calloc>
   10716:	87aa                	mv	a5,a0
   10718:	fef43423          	sd	a5,-24(s0)
   1071c:	fe843783          	ld	a5,-24(s0)
   10720:	e38d                	bnez	a5,10742 <parse_options+0x56>
   10722:	7ae000ef          	jal	10ed0 <__errno_location>
   10726:	87aa                	mv	a5,a0
   10728:	439c                	lw	a5,0(a5)
   1072a:	853e                	mv	a0,a5
   1072c:	7f0000ef          	jal	10f1c <strerror>
   10730:	87aa                	mv	a5,a0
   10732:	85be                	mv	a1,a5
   10734:	67f1                	lui	a5,0x1c
   10736:	a2878513          	addi	a0,a5,-1496 # 1ba28 <__clzdi2+0x4d0>
   1073a:	313000ef          	jal	1124c <warnx>
   1073e:	4781                	li	a5,0
   10740:	a219                	j	10846 <parse_options+0x15a>
   10742:	fd843783          	ld	a5,-40(s0)
   10746:	4398                	lw	a4,0(a5)
   10748:	4785                	li	a5,1
   1074a:	06f71963          	bne	a4,a5,107bc <parse_options+0xd0>
   1074e:	fe843503          	ld	a0,-24(s0)
   10752:	55f000ef          	jal	114b0 <free>
   10756:	67f1                	lui	a5,0x1c
   10758:	a4878513          	addi	a0,a5,-1464 # 1ba48 <__clzdi2+0x4f0>
   1075c:	2f1000ef          	jal	1124c <warnx>
   10760:	4781                	li	a5,0
   10762:	a0d5                	j	10846 <parse_options+0x15a>
   10764:	fe744783          	lbu	a5,-25(s0)
   10768:	2781                	sext.w	a5,a5
   1076a:	85be                	mv	a1,a5
   1076c:	67f1                	lui	a5,0x1c
   1076e:	a8878513          	addi	a0,a5,-1400 # 1ba88 <__clzdi2+0x530>
   10772:	13f030ef          	jal	140b0 <printf>
   10776:	fe744783          	lbu	a5,-25(s0)
   1077a:	0007871b          	sext.w	a4,a5
   1077e:	06800793          	li	a5,104
   10782:	00f71e63          	bne	a4,a5,1079e <parse_options+0xb2>
   10786:	fe843783          	ld	a5,-24(s0)
   1078a:	0007c783          	lbu	a5,0(a5)
   1078e:	2785                	addiw	a5,a5,1
   10790:	0ff7f713          	zext.b	a4,a5
   10794:	fe843783          	ld	a5,-24(s0)
   10798:	00e78023          	sb	a4,0(a5)
   1079c:	a005                	j	107bc <parse_options+0xd0>
   1079e:	fe843503          	ld	a0,-24(s0)
   107a2:	50f000ef          	jal	114b0 <free>
   107a6:	fe744783          	lbu	a5,-25(s0)
   107aa:	2781                	sext.w	a5,a5
   107ac:	85be                	mv	a1,a5
   107ae:	67f1                	lui	a5,0x1c
   107b0:	a9078513          	addi	a0,a5,-1392 # 1ba90 <__clzdi2+0x538>
   107b4:	299000ef          	jal	1124c <warnx>
   107b8:	4781                	li	a5,0
   107ba:	a071                	j	10846 <parse_options+0x15a>
   107bc:	fd843783          	ld	a5,-40(s0)
   107c0:	4398                	lw	a4,0(a5)
   107c2:	fd043783          	ld	a5,-48(s0)
   107c6:	6394                	ld	a3,0(a5)
   107c8:	67f1                	lui	a5,0x1c
   107ca:	ac078613          	addi	a2,a5,-1344 # 1bac0 <__clzdi2+0x568>
   107ce:	85b6                	mv	a1,a3
   107d0:	853a                	mv	a0,a4
   107d2:	42b020ef          	jal	133fc <getopt>
   107d6:	87aa                	mv	a5,a0
   107d8:	fef403a3          	sb	a5,-25(s0)
   107dc:	fe744783          	lbu	a5,-25(s0)
   107e0:	0ff7f713          	zext.b	a4,a5
   107e4:	0ff00793          	li	a5,255
   107e8:	f6f71ee3          	bne	a4,a5,10764 <parse_options+0x78>
   107ec:	fd843783          	ld	a5,-40(s0)
   107f0:	4398                	lw	a4,0(a5)
   107f2:	0001f7b7          	lui	a5,0x1f
   107f6:	0047a783          	lw	a5,4(a5) # 1f004 <optind>
   107fa:	40f707bb          	subw	a5,a4,a5
   107fe:	0007871b          	sext.w	a4,a5
   10802:	fd843783          	ld	a5,-40(s0)
   10806:	c398                	sw	a4,0(a5)
   10808:	fd043783          	ld	a5,-48(s0)
   1080c:	6398                	ld	a4,0(a5)
   1080e:	0001f7b7          	lui	a5,0x1f
   10812:	0047a783          	lw	a5,4(a5) # 1f004 <optind>
   10816:	078e                	slli	a5,a5,0x3
   10818:	973e                	add	a4,a4,a5
   1081a:	fd043783          	ld	a5,-48(s0)
   1081e:	e398                	sd	a4,0(a5)
   10820:	fd843783          	ld	a5,-40(s0)
   10824:	4398                	lw	a4,0(a5)
   10826:	4789                	li	a5,2
   10828:	00f70d63          	beq	a4,a5,10842 <parse_options+0x156>
   1082c:	fe843503          	ld	a0,-24(s0)
   10830:	481000ef          	jal	114b0 <free>
   10834:	67f1                	lui	a5,0x1c
   10836:	ac878513          	addi	a0,a5,-1336 # 1bac8 <__clzdi2+0x570>
   1083a:	213000ef          	jal	1124c <warnx>
   1083e:	4781                	li	a5,0
   10840:	a019                	j	10846 <parse_options+0x15a>
   10842:	fe843783          	ld	a5,-24(s0)
   10846:	853e                	mv	a0,a5
   10848:	70a2                	ld	ra,40(sp)
   1084a:	7402                	ld	s0,32(sp)
   1084c:	6145                	addi	sp,sp,48
   1084e:	8082                	ret

0000000000010850 <sysconf>:
   10850:	dc010113          	addi	sp,sp,-576
   10854:	23213023          	sd	s2,544(sp)
   10858:	22113c23          	sd	ra,568(sp)
   1085c:	0000e917          	auipc	s2,0xe
   10860:	70493903          	ld	s2,1796(s2) # 1ef60 <_GLOBAL_OFFSET_TABLE_+0x8>
   10864:	00093783          	ld	a5,0(s2)
   10868:	20f13423          	sd	a5,520(sp)
   1086c:	00000793          	li	a5,0
   10870:	0fa00793          	li	a5,250
   10874:	28a7e863          	bltu	a5,a0,10b04 <sysconf+0x2b4>
   10878:	0000b797          	auipc	a5,0xb
   1087c:	2d078793          	addi	a5,a5,720 # 1bb48 <values.0>
   10880:	00151713          	slli	a4,a0,0x1
   10884:	00e787b3          	add	a5,a5,a4
   10888:	22913423          	sd	s1,552(sp)
   1088c:	00079483          	lh	s1,0(a5)
   10890:	22813823          	sd	s0,560(sp)
   10894:	00050413          	mv	s0,a0
   10898:	26048263          	beqz	s1,10afc <sysconf+0x2ac>
   1089c:	21313c23          	sd	s3,536(sp)
   108a0:	fff00993          	li	s3,-1
   108a4:	0334da63          	bge	s1,s3,108d8 <sysconf+0x88>
   108a8:	f0000793          	li	a5,-256
   108ac:	06f4c063          	blt	s1,a5,1090c <sysconf+0xbc>
   108b0:	0ff4f793          	zext.b	a5,s1
   108b4:	00d00713          	li	a4,13
   108b8:	02f76063          	bltu	a4,a5,108d8 <sysconf+0x88>
   108bc:	0000b717          	auipc	a4,0xb
   108c0:	25070713          	addi	a4,a4,592 # 1bb0c <__clzdi2+0x5b4>
   108c4:	00279793          	slli	a5,a5,0x2
   108c8:	00e787b3          	add	a5,a5,a4
   108cc:	0007a783          	lw	a5,0(a5)
   108d0:	00e787b3          	add	a5,a5,a4
   108d4:	00078067          	jr	a5
   108d8:	00048513          	mv	a0,s1
   108dc:	23013403          	ld	s0,560(sp)
   108e0:	22813483          	ld	s1,552(sp)
   108e4:	21813983          	ld	s3,536(sp)
   108e8:	20813703          	ld	a4,520(sp)
   108ec:	00093783          	ld	a5,0(s2)
   108f0:	00f747b3          	xor	a5,a4,a5
   108f4:	00000713          	li	a4,0
   108f8:	22079463          	bnez	a5,10b20 <sysconf+0x2d0>
   108fc:	23813083          	ld	ra,568(sp)
   10900:	22013903          	ld	s2,544(sp)
   10904:	24010113          	addi	sp,sp,576
   10908:	00008067          	ret
   1090c:	03249513          	slli	a0,s1,0x32
   10910:	03255513          	srli	a0,a0,0x32
   10914:	00810593          	addi	a1,sp,8
   10918:	629020ef          	jal	13740 <getrlimit>
   1091c:	00813503          	ld	a0,8(sp)
   10920:	01350463          	beq	a0,s3,10928 <sysconf+0xd8>
   10924:	00054a63          	bltz	a0,10938 <sysconf+0xe8>
   10928:	23013403          	ld	s0,560(sp)
   1092c:	22813483          	ld	s1,552(sp)
   10930:	21813983          	ld	s3,536(sp)
   10934:	fb5ff06f          	j	108e8 <sysconf+0x98>
   10938:	0019d513          	srli	a0,s3,0x1
   1093c:	23013403          	ld	s0,560(sp)
   10940:	22813483          	ld	s1,552(sp)
   10944:	21813983          	ld	s3,536(sp)
   10948:	fa1ff06f          	j	108e8 <sysconf+0x98>
   1094c:	03300513          	li	a0,51
   10950:	0e1020ef          	jal	13230 <__getauxval>
   10954:	7ff00793          	li	a5,2047
   10958:	00a7c663          	blt	a5,a0,10964 <sysconf+0x114>
   1095c:	00001737          	lui	a4,0x1
   10960:	80070513          	addi	a0,a4,-2048 # 800 <exit-0xf958>
   10964:	f0d00793          	li	a5,-243
   10968:	fcf490e3          	bne	s1,a5,10928 <sysconf+0xd8>
   1096c:	000027b7          	lui	a5,0x2
   10970:	80078793          	addi	a5,a5,-2048 # 1800 <exit-0xe958>
   10974:	23013403          	ld	s0,560(sp)
   10978:	22813483          	ld	s1,552(sp)
   1097c:	21813983          	ld	s3,536(sp)
   10980:	00f50533          	add	a0,a0,a5
   10984:	f65ff06f          	j	108e8 <sysconf+0x98>
   10988:	80000737          	lui	a4,0x80000
   1098c:	23013403          	ld	s0,560(sp)
   10990:	22813483          	ld	s1,552(sp)
   10994:	21813983          	ld	s3,536(sp)
   10998:	fff74513          	not	a0,a4
   1099c:	f4dff06f          	j	108e8 <sysconf+0x98>
   109a0:	00100793          	li	a5,1
   109a4:	18013823          	sd	zero,400(sp)
   109a8:	18013c23          	sd	zero,408(sp)
   109ac:	1a013023          	sd	zero,416(sp)
   109b0:	1a013423          	sd	zero,424(sp)
   109b4:	1a013823          	sd	zero,432(sp)
   109b8:	1a013c23          	sd	zero,440(sp)
   109bc:	1c013023          	sd	zero,448(sp)
   109c0:	1c013423          	sd	zero,456(sp)
   109c4:	1c013823          	sd	zero,464(sp)
   109c8:	1c013c23          	sd	zero,472(sp)
   109cc:	1e013023          	sd	zero,480(sp)
   109d0:	1e013423          	sd	zero,488(sp)
   109d4:	1e013823          	sd	zero,496(sp)
   109d8:	1e013c23          	sd	zero,504(sp)
   109dc:	20013023          	sd	zero,512(sp)
   109e0:	18f13423          	sd	a5,392(sp)
   109e4:	18810613          	addi	a2,sp,392
   109e8:	07b00893          	li	a7,123
   109ec:	00000513          	li	a0,0
   109f0:	08000593          	li	a1,128
   109f4:	00000073          	ecall
   109f8:	00000713          	li	a4,0
   109fc:	20810593          	addi	a1,sp,520
   10a00:	00064783          	lbu	a5,0(a2)
   10a04:	00078c63          	beqz	a5,10a1c <sysconf+0x1cc>
   10a08:	fff7869b          	addiw	a3,a5,-1
   10a0c:	00d7f7b3          	and	a5,a5,a3
   10a10:	0017071b          	addiw	a4,a4,1 # ffffffff80000001 <__BSS_END__+0xffffffff7ffe03a1>
   10a14:	fe079ae3          	bnez	a5,10a08 <sysconf+0x1b8>
   10a18:	00060023          	sb	zero,0(a2)
   10a1c:	00160613          	addi	a2,a2,1
   10a20:	fec590e3          	bne	a1,a2,10a00 <sysconf+0x1b0>
   10a24:	23013403          	ld	s0,560(sp)
   10a28:	22813483          	ld	s1,552(sp)
   10a2c:	21813983          	ld	s3,536(sp)
   10a30:	00070513          	mv	a0,a4
   10a34:	eb5ff06f          	j	108e8 <sysconf+0x98>
   10a38:	01810513          	addi	a0,sp,24
   10a3c:	10d000ef          	jal	11348 <__lsysinfo>
   10a40:	08012703          	lw	a4,128(sp)
   10a44:	00070793          	mv	a5,a4
   10a48:	00071463          	bnez	a4,10a50 <sysconf+0x200>
   10a4c:	00100793          	li	a5,1
   10a50:	02079713          	slli	a4,a5,0x20
   10a54:	05500693          	li	a3,85
   10a58:	02075713          	srli	a4,a4,0x20
   10a5c:	0ad40e63          	beq	s0,a3,10b18 <sysconf+0x2c8>
   10a60:	04013783          	ld	a5,64(sp)
   10a64:	05013683          	ld	a3,80(sp)
   10a68:	00d787b3          	add	a5,a5,a3
   10a6c:	02e787b3          	mul	a5,a5,a4
   10a70:	a881b703          	ld	a4,-1400(gp) # 1f288 <__libc+0x30>
   10a74:	02e7d533          	divu	a0,a5,a4
   10a78:	ea0558e3          	bgez	a0,10928 <sysconf+0xd8>
   10a7c:	fff00713          	li	a4,-1
   10a80:	23013403          	ld	s0,560(sp)
   10a84:	22813483          	ld	s1,552(sp)
   10a88:	21813983          	ld	s3,536(sp)
   10a8c:	00175513          	srli	a0,a4,0x1
   10a90:	e59ff06f          	j	108e8 <sysconf+0x98>
   10a94:	a881b503          	ld	a0,-1400(gp) # 1f288 <__libc+0x30>
   10a98:	23013403          	ld	s0,560(sp)
   10a9c:	22813483          	ld	s1,552(sp)
   10aa0:	21813983          	ld	s3,536(sp)
   10aa4:	e45ff06f          	j	108e8 <sysconf+0x98>
   10aa8:	23013403          	ld	s0,560(sp)
   10aac:	22813483          	ld	s1,552(sp)
   10ab0:	21813983          	ld	s3,536(sp)
   10ab4:	00008537          	lui	a0,0x8
   10ab8:	e31ff06f          	j	108e8 <sysconf+0x98>
   10abc:	23013403          	ld	s0,560(sp)
   10ac0:	22813483          	ld	s1,552(sp)
   10ac4:	21813983          	ld	s3,536(sp)
   10ac8:	00000513          	li	a0,0
   10acc:	e1dff06f          	j	108e8 <sysconf+0x98>
   10ad0:	00031737          	lui	a4,0x31
   10ad4:	23013403          	ld	s0,560(sp)
   10ad8:	22813483          	ld	s1,552(sp)
   10adc:	21813983          	ld	s3,536(sp)
   10ae0:	06970513          	addi	a0,a4,105 # 31069 <__BSS_END__+0x11409>
   10ae4:	e05ff06f          	j	108e8 <sysconf+0x98>
   10ae8:	23013403          	ld	s0,560(sp)
   10aec:	22813483          	ld	s1,552(sp)
   10af0:	21813983          	ld	s3,536(sp)
   10af4:	00020537          	lui	a0,0x20
   10af8:	df1ff06f          	j	108e8 <sysconf+0x98>
   10afc:	23013403          	ld	s0,560(sp)
   10b00:	22813483          	ld	s1,552(sp)
   10b04:	3cc000ef          	jal	10ed0 <__errno_location>
   10b08:	01600793          	li	a5,22
   10b0c:	00f52023          	sw	a5,0(a0) # 20000 <__BSS_END__+0x3a0>
   10b10:	fff00513          	li	a0,-1
   10b14:	dd5ff06f          	j	108e8 <sysconf+0x98>
   10b18:	03813783          	ld	a5,56(sp)
   10b1c:	f51ff06f          	j	10a6c <sysconf+0x21c>
   10b20:	22813823          	sd	s0,560(sp)
   10b24:	22913423          	sd	s1,552(sp)
   10b28:	21313c23          	sd	s3,536(sp)
   10b2c:	398000ef          	jal	10ec4 <__stack_chk_fail>

0000000000010b30 <_init>:
   10b30:	00008067          	ret

0000000000010b34 <dummy1>:
   10b34:	00008067          	ret

0000000000010b38 <__init_libc>:
   10b38:	e8010113          	addi	sp,sp,-384
   10b3c:	17213023          	sd	s2,352(sp)
   10b40:	03010913          	addi	s2,sp,48
   10b44:	16813823          	sd	s0,368(sp)
   10b48:	16913423          	sd	s1,360(sp)
   10b4c:	00050413          	mv	s0,a0
   10b50:	00058493          	mv	s1,a1
   10b54:	00090513          	mv	a0,s2
   10b58:	13000613          	li	a2,304
   10b5c:	00000593          	li	a1,0
   10b60:	16113c23          	sd	ra,376(sp)
   10b64:	460060ef          	jal	16fc4 <memset>
   10b68:	0000e797          	auipc	a5,0xe
   10b6c:	4207b783          	ld	a5,1056(a5) # 1ef88 <_GLOBAL_OFFSET_TABLE_+0x30>
   10b70:	0087b023          	sd	s0,0(a5)
   10b74:	00043783          	ld	a5,0(s0)
   10b78:	1a078a63          	beqz	a5,10d2c <__init_libc+0x1f4>
   10b7c:	00840713          	addi	a4,s0,8
   10b80:	00000793          	li	a5,0
   10b84:	00073683          	ld	a3,0(a4)
   10b88:	00870713          	addi	a4,a4,8
   10b8c:	00078613          	mv	a2,a5
   10b90:	00178793          	addi	a5,a5,1
   10b94:	fe0698e3          	bnez	a3,10b84 <__init_libc+0x4c>
   10b98:	00260613          	addi	a2,a2,2
   10b9c:	00361613          	slli	a2,a2,0x3
   10ba0:	00c40533          	add	a0,s0,a2
   10ba4:	a5818413          	addi	s0,gp,-1448 # 1f258 <__libc>
   10ba8:	00a43423          	sd	a0,8(s0)
   10bac:	00053783          	ld	a5,0(a0)
   10bb0:	02500713          	li	a4,37
   10bb4:	00850513          	addi	a0,a0,8
   10bb8:	16078663          	beqz	a5,10d24 <__init_libc+0x1ec>
   10bbc:	00f76a63          	bltu	a4,a5,10bd0 <__init_libc+0x98>
   10bc0:	00053683          	ld	a3,0(a0)
   10bc4:	00379793          	slli	a5,a5,0x3
   10bc8:	012787b3          	add	a5,a5,s2
   10bcc:	00d7b023          	sd	a3,0(a5)
   10bd0:	00853783          	ld	a5,8(a0)
   10bd4:	01050513          	addi	a0,a0,16
   10bd8:	fe0792e3          	bnez	a5,10bbc <__init_libc+0x84>
   10bdc:	0b013683          	ld	a3,176(sp)
   10be0:	13013703          	ld	a4,304(sp)
   10be4:	06013783          	ld	a5,96(sp)
   10be8:	a4d1b823          	sd	a3,-1456(gp) # 1f250 <__hwcap>
   10bec:	00070463          	beqz	a4,10bf4 <__init_libc+0xbc>
   10bf0:	a2e1bc23          	sd	a4,-1480(gp) # 1f238 <__sysinfo>
   10bf4:	02f43823          	sd	a5,48(s0)
   10bf8:	10048e63          	beqz	s1,10d14 <__init_libc+0x1dc>
   10bfc:	0000e797          	auipc	a5,0xe
   10c00:	3fc7b783          	ld	a5,1020(a5) # 1eff8 <_GLOBAL_OFFSET_TABLE_+0xa0>
   10c04:	0000e697          	auipc	a3,0xe
   10c08:	3a46b683          	ld	a3,932(a3) # 1efa8 <_GLOBAL_OFFSET_TABLE_+0x50>
   10c0c:	0097b023          	sd	s1,0(a5)
   10c10:	0096b023          	sd	s1,0(a3)
   10c14:	0004c783          	lbu	a5,0(s1)
   10c18:	00148593          	addi	a1,s1,1
   10c1c:	02f00713          	li	a4,47
   10c20:	00078c63          	beqz	a5,10c38 <__init_libc+0x100>
   10c24:	00e79463          	bne	a5,a4,10c2c <__init_libc+0xf4>
   10c28:	00b6b023          	sd	a1,0(a3)
   10c2c:	0005c783          	lbu	a5,0(a1) # 4000 <exit-0xc158>
   10c30:	00158593          	addi	a1,a1,1
   10c34:	fe0798e3          	bnez	a5,10c24 <__init_libc+0xec>
   10c38:	00090513          	mv	a0,s2
   10c3c:	151060ef          	jal	1758c <__init_tls>
   10c40:	0f813503          	ld	a0,248(sp)
   10c44:	210000ef          	jal	10e54 <__init_ssp>
   10c48:	08813703          	ld	a4,136(sp)
   10c4c:	09013783          	ld	a5,144(sp)
   10c50:	0af70663          	beq	a4,a5,10cfc <__init_libc+0x1c4>
   10c54:	02013423          	sd	zero,40(sp)
   10c58:	00200793          	li	a5,2
   10c5c:	02013023          	sd	zero,32(sp)
   10c60:	00100713          	li	a4,1
   10c64:	02f12423          	sw	a5,40(sp)
   10c68:	01810793          	addi	a5,sp,24
   10c6c:	02e12023          	sw	a4,32(sp)
   10c70:	00013c23          	sd	zero,24(sp)
   10c74:	00013423          	sd	zero,8(sp)
   10c78:	00013823          	sd	zero,16(sp)
   10c7c:	00078513          	mv	a0,a5
   10c80:	04900893          	li	a7,73
   10c84:	00300593          	li	a1,3
   10c88:	00810613          	addi	a2,sp,8
   10c8c:	00000693          	li	a3,0
   10c90:	00800713          	li	a4,8
   10c94:	00000073          	ecall
   10c98:	02051713          	slli	a4,a0,0x20
   10c9c:	04074c63          	bltz	a4,10cf4 <__init_libc+0x1bc>
   10ca0:	0067d703          	lhu	a4,6(a5)
   10ca4:	02077713          	andi	a4,a4,32
   10ca8:	02070263          	beqz	a4,10ccc <__init_libc+0x194>
   10cac:	00008637          	lui	a2,0x8
   10cb0:	00260613          	addi	a2,a2,2 # 8002 <exit-0x8156>
   10cb4:	03800893          	li	a7,56
   10cb8:	f9c00513          	li	a0,-100
   10cbc:	0000b597          	auipc	a1,0xb
   10cc0:	08458593          	addi	a1,a1,132 # 1bd40 <values.0+0x1f8>
   10cc4:	00000073          	ecall
   10cc8:	02054663          	bltz	a0,10cf4 <__init_libc+0x1bc>
   10ccc:	00878793          	addi	a5,a5,8
   10cd0:	fd2798e3          	bne	a5,s2,10ca0 <__init_libc+0x168>
   10cd4:	00100793          	li	a5,1
   10cd8:	00f40123          	sb	a5,2(s0)
   10cdc:	17813083          	ld	ra,376(sp)
   10ce0:	17013403          	ld	s0,368(sp)
   10ce4:	16813483          	ld	s1,360(sp)
   10ce8:	16013903          	ld	s2,352(sp)
   10cec:	18010113          	addi	sp,sp,384
   10cf0:	00008067          	ret
   10cf4:	00000023          	sb	zero,0(zero) # 0 <exit-0x10158>
   10cf8:	00100073          	ebreak
   10cfc:	09813703          	ld	a4,152(sp)
   10d00:	0a013783          	ld	a5,160(sp)
   10d04:	f4f718e3          	bne	a4,a5,10c54 <__init_libc+0x11c>
   10d08:	0e813783          	ld	a5,232(sp)
   10d0c:	f40794e3          	bnez	a5,10c54 <__init_libc+0x11c>
   10d10:	fcdff06f          	j	10cdc <__init_libc+0x1a4>
   10d14:	12813583          	ld	a1,296(sp)
   10d18:	00058e63          	beqz	a1,10d34 <__init_libc+0x1fc>
   10d1c:	00058493          	mv	s1,a1
   10d20:	eddff06f          	j	10bfc <__init_libc+0xc4>
   10d24:	a401b823          	sd	zero,-1456(gp) # 1f250 <__hwcap>
   10d28:	ecdff06f          	j	10bf4 <__init_libc+0xbc>
   10d2c:	00800613          	li	a2,8
   10d30:	e71ff06f          	j	10ba0 <__init_libc+0x68>
   10d34:	0000b797          	auipc	a5,0xb
   10d38:	01c78793          	addi	a5,a5,28 # 1bd50 <values.0+0x208>
   10d3c:	0000e697          	auipc	a3,0xe
   10d40:	2bc6b683          	ld	a3,700(a3) # 1eff8 <_GLOBAL_OFFSET_TABLE_+0xa0>
   10d44:	0000e717          	auipc	a4,0xe
   10d48:	26473703          	ld	a4,612(a4) # 1efa8 <_GLOBAL_OFFSET_TABLE_+0x50>
   10d4c:	00f6b023          	sd	a5,0(a3)
   10d50:	00f73023          	sd	a5,0(a4)
   10d54:	ee5ff06f          	j	10c38 <__init_libc+0x100>

0000000000010d58 <__libc_start_init>:
   10d58:	fe010113          	addi	sp,sp,-32
   10d5c:	00813823          	sd	s0,16(sp)
   10d60:	00913423          	sd	s1,8(sp)
   10d64:	0000e317          	auipc	t1,0xe
   10d68:	22c33303          	ld	t1,556(t1) # 1ef90 <_GLOBAL_OFFSET_TABLE_+0x38>
   10d6c:	0000e417          	auipc	s0,0xe
   10d70:	28443403          	ld	s0,644(s0) # 1eff0 <_GLOBAL_OFFSET_TABLE_+0x98>
   10d74:	0000e497          	auipc	s1,0xe
   10d78:	25c4b483          	ld	s1,604(s1) # 1efd0 <_GLOBAL_OFFSET_TABLE_+0x78>
   10d7c:	00113c23          	sd	ra,24(sp)
   10d80:	000300e7          	jalr	t1
   10d84:	00947a63          	bgeu	s0,s1,10d98 <__libc_start_init+0x40>
   10d88:	00043783          	ld	a5,0(s0)
   10d8c:	00840413          	addi	s0,s0,8
   10d90:	000780e7          	jalr	a5
   10d94:	fe946ae3          	bltu	s0,s1,10d88 <__libc_start_init+0x30>
   10d98:	01813083          	ld	ra,24(sp)
   10d9c:	01013403          	ld	s0,16(sp)
   10da0:	00813483          	ld	s1,8(sp)
   10da4:	02010113          	addi	sp,sp,32
   10da8:	00008067          	ret

0000000000010dac <libc_start_main_stage2>:
   10dac:	fd010113          	addi	sp,sp,-48
   10db0:	02813023          	sd	s0,32(sp)
   10db4:	00158413          	addi	s0,a1,1
   10db8:	00341413          	slli	s0,s0,0x3
   10dbc:	02113423          	sd	ra,40(sp)
   10dc0:	00913c23          	sd	s1,24(sp)
   10dc4:	01213823          	sd	s2,16(sp)
   10dc8:	00058493          	mv	s1,a1
   10dcc:	00060913          	mv	s2,a2
   10dd0:	01313423          	sd	s3,8(sp)
   10dd4:	00860433          	add	s0,a2,s0
   10dd8:	00050993          	mv	s3,a0
   10ddc:	f7dff0ef          	jal	10d58 <__libc_start_init>
   10de0:	00040613          	mv	a2,s0
   10de4:	00090593          	mv	a1,s2
   10de8:	00048513          	mv	a0,s1
   10dec:	000980e7          	jalr	s3
   10df0:	b68ff0ef          	jal	10158 <exit>

0000000000010df4 <__libc_start_main>:
   10df4:	fe010113          	addi	sp,sp,-32
   10df8:	00813823          	sd	s0,16(sp)
   10dfc:	00913423          	sd	s1,8(sp)
   10e00:	01213023          	sd	s2,0(sp)
   10e04:	00113c23          	sd	ra,24(sp)
   10e08:	00058493          	mv	s1,a1
   10e0c:	00158793          	addi	a5,a1,1
   10e10:	00063583          	ld	a1,0(a2)
   10e14:	00379793          	slli	a5,a5,0x3
   10e18:	00050913          	mv	s2,a0
   10e1c:	00f60533          	add	a0,a2,a5
   10e20:	00060413          	mv	s0,a2
   10e24:	d15ff0ef          	jal	10b38 <__init_libc>
   10e28:	00040613          	mv	a2,s0
   10e2c:	00000797          	auipc	a5,0x0
   10e30:	f8078793          	addi	a5,a5,-128 # 10dac <libc_start_main_stage2>
   10e34:	01013403          	ld	s0,16(sp)
   10e38:	01813083          	ld	ra,24(sp)
   10e3c:	00048593          	mv	a1,s1
   10e40:	00090513          	mv	a0,s2
   10e44:	00813483          	ld	s1,8(sp)
   10e48:	00013903          	ld	s2,0(sp)
   10e4c:	02010113          	addi	sp,sp,32
   10e50:	00078067          	jr	a5

0000000000010e54 <__init_ssp>:
   10e54:	04050263          	beqz	a0,10e98 <__init_ssp+0x44>
   10e58:	ff010113          	addi	sp,sp,-16
   10e5c:	00050593          	mv	a1,a0
   10e60:	00800613          	li	a2,8
   10e64:	0000e517          	auipc	a0,0xe
   10e68:	0fc53503          	ld	a0,252(a0) # 1ef60 <_GLOBAL_OFFSET_TABLE_+0x8>
   10e6c:	00113423          	sd	ra,8(sp)
   10e70:	4d9050ef          	jal	16b48 <memcpy>
   10e74:	0000e797          	auipc	a5,0xe
   10e78:	0ec7b783          	ld	a5,236(a5) # 1ef60 <_GLOBAL_OFFSET_TABLE_+0x8>
   10e7c:	000780a3          	sb	zero,1(a5)
   10e80:	00020713          	mv	a4,tp
   10e84:	0007b783          	ld	a5,0(a5)
   10e88:	fef73823          	sd	a5,-16(a4)
   10e8c:	00813083          	ld	ra,8(sp)
   10e90:	01010113          	addi	sp,sp,16
   10e94:	00008067          	ret
   10e98:	41c65737          	lui	a4,0x41c65
   10e9c:	0000e797          	auipc	a5,0xe
   10ea0:	0c47b783          	ld	a5,196(a5) # 1ef60 <_GLOBAL_OFFSET_TABLE_+0x8>
   10ea4:	e6d70713          	addi	a4,a4,-403 # 41c64e6d <__BSS_END__+0x41c4520d>
   10ea8:	02e78733          	mul	a4,a5,a4
   10eac:	00e7b023          	sd	a4,0(a5)
   10eb0:	000780a3          	sb	zero,1(a5)
   10eb4:	00020713          	mv	a4,tp
   10eb8:	0007b783          	ld	a5,0(a5)
   10ebc:	fef73823          	sd	a5,-16(a4)
   10ec0:	00008067          	ret

0000000000010ec4 <__stack_chk_fail>:
   10ec4:	00000793          	li	a5,0
   10ec8:	00078023          	sb	zero,0(a5)
   10ecc:	00100073          	ebreak

0000000000010ed0 <__errno_location>:
   10ed0:	00020513          	mv	a0,tp
   10ed4:	f5c50513          	addi	a0,a0,-164
   10ed8:	00008067          	ret

0000000000010edc <__strerror_l>:
   10edc:	08300793          	li	a5,131
   10ee0:	02a7e663          	bltu	a5,a0,10f0c <__strerror_l+0x30>
   10ee4:	00151513          	slli	a0,a0,0x1
   10ee8:	0000b797          	auipc	a5,0xb
   10eec:	f1078793          	addi	a5,a5,-240 # 1bdf8 <errmsgidx>
   10ef0:	00a787b3          	add	a5,a5,a0
   10ef4:	0007d503          	lhu	a0,0(a5)
   10ef8:	0285b583          	ld	a1,40(a1)
   10efc:	0000b797          	auipc	a5,0xb
   10f00:	00478793          	addi	a5,a5,4 # 1bf00 <errmsgstr>
   10f04:	00f50533          	add	a0,a0,a5
   10f08:	4680006f          	j	11370 <__lctrans>
   10f0c:	0285b583          	ld	a1,40(a1)
   10f10:	0000b517          	auipc	a0,0xb
   10f14:	ff050513          	addi	a0,a0,-16 # 1bf00 <errmsgstr>
   10f18:	4580006f          	j	11370 <__lctrans>

0000000000010f1c <strerror>:
   10f1c:	00020793          	mv	a5,tp
   10f20:	fd07b583          	ld	a1,-48(a5)
   10f24:	fb9ff06f          	j	10edc <__strerror_l>

0000000000010f28 <__funcs_on_exit>:
   10f28:	00008067          	ret

0000000000010f2c <__libc_exit_fini>:
   10f2c:	fe010113          	addi	sp,sp,-32
   10f30:	00813823          	sd	s0,16(sp)
   10f34:	00913423          	sd	s1,8(sp)
   10f38:	00113c23          	sd	ra,24(sp)
   10f3c:	0000e417          	auipc	s0,0xe
   10f40:	03443403          	ld	s0,52(s0) # 1ef70 <_GLOBAL_OFFSET_TABLE_+0x18>
   10f44:	0000e497          	auipc	s1,0xe
   10f48:	06c4b483          	ld	s1,108(s1) # 1efb0 <_GLOBAL_OFFSET_TABLE_+0x58>
   10f4c:	0084fa63          	bgeu	s1,s0,10f60 <__libc_exit_fini+0x34>
   10f50:	ff843783          	ld	a5,-8(s0)
   10f54:	ff840413          	addi	s0,s0,-8
   10f58:	000780e7          	jalr	a5
   10f5c:	fe84eae3          	bltu	s1,s0,10f50 <__libc_exit_fini+0x24>
   10f60:	01013403          	ld	s0,16(sp)
   10f64:	01813083          	ld	ra,24(sp)
   10f68:	00813483          	ld	s1,8(sp)
   10f6c:	0000e317          	auipc	t1,0xe
   10f70:	06c33303          	ld	t1,108(t1) # 1efd8 <_GLOBAL_OFFSET_TABLE_+0x80>
   10f74:	02010113          	addi	sp,sp,32
   10f78:	00030067          	jr	t1

0000000000010f7c <open>:
   10f7c:	fa010113          	addi	sp,sp,-96
   10f80:	02813023          	sd	s0,32(sp)
   10f84:	00913c23          	sd	s1,24(sp)
   10f88:	02c13823          	sd	a2,48(sp)
   10f8c:	04f13423          	sd	a5,72(sp)
   10f90:	02113423          	sd	ra,40(sp)
   10f94:	0000e497          	auipc	s1,0xe
   10f98:	fcc4b483          	ld	s1,-52(s1) # 1ef60 <_GLOBAL_OFFSET_TABLE_+0x8>
   10f9c:	02d13c23          	sd	a3,56(sp)
   10fa0:	04e13023          	sd	a4,64(sp)
   10fa4:	05013823          	sd	a6,80(sp)
   10fa8:	05113c23          	sd	a7,88(sp)
   10fac:	0405f793          	andi	a5,a1,64
   10fb0:	0004b703          	ld	a4,0(s1)
   10fb4:	00e13423          	sd	a4,8(sp)
   10fb8:	00000713          	li	a4,0
   10fbc:	00058413          	mv	s0,a1
   10fc0:	00050613          	mv	a2,a0
   10fc4:	06079863          	bnez	a5,11034 <open+0xb8>
   10fc8:	004107b7          	lui	a5,0x410
   10fcc:	00f5f6b3          	and	a3,a1,a5
   10fd0:	06f68263          	beq	a3,a5,11034 <open+0xb8>
   10fd4:	000086b7          	lui	a3,0x8
   10fd8:	00000793          	li	a5,0
   10fdc:	00d466b3          	or	a3,s0,a3
   10fe0:	00000813          	li	a6,0
   10fe4:	f9c00593          	li	a1,-100
   10fe8:	03800513          	li	a0,56
   10fec:	3b0060ef          	jal	1739c <__syscall_cp>
   10ff0:	0005079b          	sext.w	a5,a0
   10ff4:	0007c663          	bltz	a5,11000 <open+0x84>
   10ff8:	02c41713          	slli	a4,s0,0x2c
   10ffc:	04074463          	bltz	a4,11044 <open+0xc8>
   11000:	00078513          	mv	a0,a5
   11004:	05c000ef          	jal	11060 <__syscall_ret>
   11008:	00813703          	ld	a4,8(sp)
   1100c:	0004b783          	ld	a5,0(s1)
   11010:	00f747b3          	xor	a5,a4,a5
   11014:	00000713          	li	a4,0
   11018:	0005051b          	sext.w	a0,a0
   1101c:	04079063          	bnez	a5,1105c <open+0xe0>
   11020:	02813083          	ld	ra,40(sp)
   11024:	02013403          	ld	s0,32(sp)
   11028:	01813483          	ld	s1,24(sp)
   1102c:	06010113          	addi	sp,sp,96
   11030:	00008067          	ret
   11034:	03010793          	addi	a5,sp,48
   11038:	03016703          	lwu	a4,48(sp)
   1103c:	00f13023          	sd	a5,0(sp)
   11040:	f95ff06f          	j	10fd4 <open+0x58>
   11044:	01900893          	li	a7,25
   11048:	00078513          	mv	a0,a5
   1104c:	00200593          	li	a1,2
   11050:	00100613          	li	a2,1
   11054:	00000073          	ecall
   11058:	fa9ff06f          	j	11000 <open+0x84>
   1105c:	e69ff0ef          	jal	10ec4 <__stack_chk_fail>

0000000000011060 <__syscall_ret>:
   11060:	ff010113          	addi	sp,sp,-16
   11064:	00813023          	sd	s0,0(sp)
   11068:	00113423          	sd	ra,8(sp)
   1106c:	fffff7b7          	lui	a5,0xfffff
   11070:	00050413          	mv	s0,a0
   11074:	00a7ea63          	bltu	a5,a0,11088 <__syscall_ret+0x28>
   11078:	00813083          	ld	ra,8(sp)
   1107c:	00013403          	ld	s0,0(sp)
   11080:	01010113          	addi	sp,sp,16
   11084:	00008067          	ret
   11088:	e49ff0ef          	jal	10ed0 <__errno_location>
   1108c:	4080043b          	negw	s0,s0
   11090:	00852023          	sw	s0,0(a0)
   11094:	fff00513          	li	a0,-1
   11098:	fe1ff06f          	j	11078 <__syscall_ret+0x18>

000000000001109c <vwarn>:
   1109c:	fe010113          	addi	sp,sp,-32
   110a0:	00813823          	sd	s0,16(sp)
   110a4:	00913423          	sd	s1,8(sp)
   110a8:	00113c23          	sd	ra,24(sp)
   110ac:	0000e797          	auipc	a5,0xe
   110b0:	efc7b783          	ld	a5,-260(a5) # 1efa8 <_GLOBAL_OFFSET_TABLE_+0x50>
   110b4:	0007b603          	ld	a2,0(a5)
   110b8:	00050413          	mv	s0,a0
   110bc:	00058493          	mv	s1,a1
   110c0:	0000e517          	auipc	a0,0xe
   110c4:	f5050513          	addi	a0,a0,-176 # 1f010 <__stderr_FILE>
   110c8:	0000b597          	auipc	a1,0xb
   110cc:	c9058593          	addi	a1,a1,-880 # 1bd58 <values.0+0x210>
   110d0:	3c5020ef          	jal	13c94 <fprintf>
   110d4:	02040663          	beqz	s0,11100 <vwarn+0x64>
   110d8:	00040593          	mv	a1,s0
   110dc:	00048613          	mv	a2,s1
   110e0:	0000e517          	auipc	a0,0xe
   110e4:	f3050513          	addi	a0,a0,-208 # 1f010 <__stderr_FILE>
   110e8:	031050ef          	jal	16918 <vfprintf>
   110ec:	0000e597          	auipc	a1,0xe
   110f0:	f2458593          	addi	a1,a1,-220 # 1f010 <__stderr_FILE>
   110f4:	0000b517          	auipc	a0,0xb
   110f8:	c6c50513          	addi	a0,a0,-916 # 1bd60 <values.0+0x218>
   110fc:	409020ef          	jal	13d04 <fputs>
   11100:	01013403          	ld	s0,16(sp)
   11104:	01813083          	ld	ra,24(sp)
   11108:	00813483          	ld	s1,8(sp)
   1110c:	00000513          	li	a0,0
   11110:	02010113          	addi	sp,sp,32
   11114:	61d0206f          	j	13f30 <perror>

0000000000011118 <vwarnx>:
   11118:	fe010113          	addi	sp,sp,-32
   1111c:	00813823          	sd	s0,16(sp)
   11120:	00913423          	sd	s1,8(sp)
   11124:	00113c23          	sd	ra,24(sp)
   11128:	0000e797          	auipc	a5,0xe
   1112c:	e807b783          	ld	a5,-384(a5) # 1efa8 <_GLOBAL_OFFSET_TABLE_+0x50>
   11130:	0007b603          	ld	a2,0(a5)
   11134:	00050413          	mv	s0,a0
   11138:	00058493          	mv	s1,a1
   1113c:	0000e517          	auipc	a0,0xe
   11140:	ed450513          	addi	a0,a0,-300 # 1f010 <__stderr_FILE>
   11144:	0000b597          	auipc	a1,0xb
   11148:	c1458593          	addi	a1,a1,-1004 # 1bd58 <values.0+0x210>
   1114c:	349020ef          	jal	13c94 <fprintf>
   11150:	00040c63          	beqz	s0,11168 <vwarnx+0x50>
   11154:	00048613          	mv	a2,s1
   11158:	00040593          	mv	a1,s0
   1115c:	0000e517          	auipc	a0,0xe
   11160:	eb450513          	addi	a0,a0,-332 # 1f010 <__stderr_FILE>
   11164:	7b4050ef          	jal	16918 <vfprintf>
   11168:	01013403          	ld	s0,16(sp)
   1116c:	01813083          	ld	ra,24(sp)
   11170:	00813483          	ld	s1,8(sp)
   11174:	0000e597          	auipc	a1,0xe
   11178:	e9c58593          	addi	a1,a1,-356 # 1f010 <__stderr_FILE>
   1117c:	00a00513          	li	a0,10
   11180:	02010113          	addi	sp,sp,32
   11184:	0bc0306f          	j	14240 <putc>

0000000000011188 <verr>:
   11188:	ff010113          	addi	sp,sp,-16
   1118c:	00058793          	mv	a5,a1
   11190:	00813023          	sd	s0,0(sp)
   11194:	00060593          	mv	a1,a2
   11198:	00050413          	mv	s0,a0
   1119c:	00078513          	mv	a0,a5
   111a0:	00113423          	sd	ra,8(sp)
   111a4:	ef9ff0ef          	jal	1109c <vwarn>
   111a8:	00040513          	mv	a0,s0
   111ac:	fadfe0ef          	jal	10158 <exit>

00000000000111b0 <verrx>:
   111b0:	ff010113          	addi	sp,sp,-16
   111b4:	00058793          	mv	a5,a1
   111b8:	00813023          	sd	s0,0(sp)
   111bc:	00060593          	mv	a1,a2
   111c0:	00050413          	mv	s0,a0
   111c4:	00078513          	mv	a0,a5
   111c8:	00113423          	sd	ra,8(sp)
   111cc:	f4dff0ef          	jal	11118 <vwarnx>
   111d0:	00040513          	mv	a0,s0
   111d4:	f85fe0ef          	jal	10158 <exit>

00000000000111d8 <warn>:
   111d8:	fa010113          	addi	sp,sp,-96
   111dc:	00813823          	sd	s0,16(sp)
   111e0:	02810313          	addi	t1,sp,40
   111e4:	02b13423          	sd	a1,40(sp)
   111e8:	04e13023          	sd	a4,64(sp)
   111ec:	00113c23          	sd	ra,24(sp)
   111f0:	0000e417          	auipc	s0,0xe
   111f4:	d7043403          	ld	s0,-656(s0) # 1ef60 <_GLOBAL_OFFSET_TABLE_+0x8>
   111f8:	02c13823          	sd	a2,48(sp)
   111fc:	02d13c23          	sd	a3,56(sp)
   11200:	04f13423          	sd	a5,72(sp)
   11204:	05013823          	sd	a6,80(sp)
   11208:	05113c23          	sd	a7,88(sp)
   1120c:	00043783          	ld	a5,0(s0)
   11210:	00f13423          	sd	a5,8(sp)
   11214:	00000793          	li	a5,0
   11218:	00030593          	mv	a1,t1
   1121c:	00613023          	sd	t1,0(sp)
   11220:	e7dff0ef          	jal	1109c <vwarn>
   11224:	00813703          	ld	a4,8(sp)
   11228:	00043783          	ld	a5,0(s0)
   1122c:	00f747b3          	xor	a5,a4,a5
   11230:	00000713          	li	a4,0
   11234:	00079a63          	bnez	a5,11248 <warn+0x70>
   11238:	01813083          	ld	ra,24(sp)
   1123c:	01013403          	ld	s0,16(sp)
   11240:	06010113          	addi	sp,sp,96
   11244:	00008067          	ret
   11248:	c7dff0ef          	jal	10ec4 <__stack_chk_fail>

000000000001124c <warnx>:
   1124c:	fa010113          	addi	sp,sp,-96
   11250:	00813823          	sd	s0,16(sp)
   11254:	02810313          	addi	t1,sp,40
   11258:	02b13423          	sd	a1,40(sp)
   1125c:	04e13023          	sd	a4,64(sp)
   11260:	00113c23          	sd	ra,24(sp)
   11264:	0000e417          	auipc	s0,0xe
   11268:	cfc43403          	ld	s0,-772(s0) # 1ef60 <_GLOBAL_OFFSET_TABLE_+0x8>
   1126c:	02c13823          	sd	a2,48(sp)
   11270:	02d13c23          	sd	a3,56(sp)
   11274:	04f13423          	sd	a5,72(sp)
   11278:	05013823          	sd	a6,80(sp)
   1127c:	05113c23          	sd	a7,88(sp)
   11280:	00043783          	ld	a5,0(s0)
   11284:	00f13423          	sd	a5,8(sp)
   11288:	00000793          	li	a5,0
   1128c:	00030593          	mv	a1,t1
   11290:	00613023          	sd	t1,0(sp)
   11294:	e85ff0ef          	jal	11118 <vwarnx>
   11298:	00813703          	ld	a4,8(sp)
   1129c:	00043783          	ld	a5,0(s0)
   112a0:	00f747b3          	xor	a5,a4,a5
   112a4:	00000713          	li	a4,0
   112a8:	00079a63          	bnez	a5,112bc <warnx+0x70>
   112ac:	01813083          	ld	ra,24(sp)
   112b0:	01013403          	ld	s0,16(sp)
   112b4:	06010113          	addi	sp,sp,96
   112b8:	00008067          	ret
   112bc:	c09ff0ef          	jal	10ec4 <__stack_chk_fail>

00000000000112c0 <err>:
   112c0:	fb010113          	addi	sp,sp,-80
   112c4:	02010313          	addi	t1,sp,32
   112c8:	0000ee17          	auipc	t3,0xe
   112cc:	c98e3e03          	ld	t3,-872(t3) # 1ef60 <_GLOBAL_OFFSET_TABLE_+0x8>
   112d0:	02c13023          	sd	a2,32(sp)
   112d4:	02f13c23          	sd	a5,56(sp)
   112d8:	00030613          	mv	a2,t1
   112dc:	000e3783          	ld	a5,0(t3)
   112e0:	00f13423          	sd	a5,8(sp)
   112e4:	00000793          	li	a5,0
   112e8:	00113c23          	sd	ra,24(sp)
   112ec:	02d13423          	sd	a3,40(sp)
   112f0:	02e13823          	sd	a4,48(sp)
   112f4:	05013023          	sd	a6,64(sp)
   112f8:	05113423          	sd	a7,72(sp)
   112fc:	00613023          	sd	t1,0(sp)
   11300:	e89ff0ef          	jal	11188 <verr>

0000000000011304 <errx>:
   11304:	fb010113          	addi	sp,sp,-80
   11308:	02010313          	addi	t1,sp,32
   1130c:	0000ee17          	auipc	t3,0xe
   11310:	c54e3e03          	ld	t3,-940(t3) # 1ef60 <_GLOBAL_OFFSET_TABLE_+0x8>
   11314:	02c13023          	sd	a2,32(sp)
   11318:	02f13c23          	sd	a5,56(sp)
   1131c:	00030613          	mv	a2,t1
   11320:	000e3783          	ld	a5,0(t3)
   11324:	00f13423          	sd	a5,8(sp)
   11328:	00000793          	li	a5,0
   1132c:	00113c23          	sd	ra,24(sp)
   11330:	02d13423          	sd	a3,40(sp)
   11334:	02e13823          	sd	a4,48(sp)
   11338:	05013023          	sd	a6,64(sp)
   1133c:	05113423          	sd	a7,72(sp)
   11340:	00613023          	sd	t1,0(sp)
   11344:	e6dff0ef          	jal	111b0 <verrx>

0000000000011348 <__lsysinfo>:
   11348:	ff010113          	addi	sp,sp,-16
   1134c:	00113423          	sd	ra,8(sp)
   11350:	0b300893          	li	a7,179
   11354:	00000073          	ecall
   11358:	d09ff0ef          	jal	11060 <__syscall_ret>
   1135c:	00813083          	ld	ra,8(sp)
   11360:	0005051b          	sext.w	a0,a0
   11364:	01010113          	addi	sp,sp,16
   11368:	00008067          	ret

000000000001136c <__lctrans_impl>:
   1136c:	00008067          	ret

0000000000011370 <__lctrans>:
   11370:	ffdff06f          	j	1136c <__lctrans_impl>

0000000000011374 <__lctrans_cur>:
   11374:	00020793          	mv	a5,tp
   11378:	fd07b783          	ld	a5,-48(a5)
   1137c:	0287b583          	ld	a1,40(a5)
   11380:	fedff06f          	j	1136c <__lctrans_impl>

0000000000011384 <allzerop>:
   11384:	00000513          	li	a0,0
   11388:	00008067          	ret

000000000001138c <calloc>:
   1138c:	fd010113          	addi	sp,sp,-48
   11390:	02113423          	sd	ra,40(sp)
   11394:	00913c23          	sd	s1,24(sp)
   11398:	00058663          	beqz	a1,113a4 <calloc+0x18>
   1139c:	02a5b7b3          	mulhu	a5,a1,a0
   113a0:	0e079e63          	bnez	a5,1149c <calloc+0x110>
   113a4:	02813023          	sd	s0,32(sp)
   113a8:	02a58433          	mul	s0,a1,a0
   113ac:	00040513          	mv	a0,s0
   113b0:	410000ef          	jal	117c0 <malloc>
   113b4:	00050493          	mv	s1,a0
   113b8:	0c050463          	beqz	a0,11480 <calloc+0xf4>
   113bc:	e901a783          	lw	a5,-368(gp) # 1f690 <__malloc_replaced>
   113c0:	00079663          	bnez	a5,113cc <calloc+0x40>
   113c4:	521010ef          	jal	130e4 <__malloc_allzerop>
   113c8:	0a051063          	bnez	a0,11468 <calloc+0xdc>
   113cc:	01213823          	sd	s2,16(sp)
   113d0:	00001937          	lui	s2,0x1
   113d4:	07246863          	bltu	s0,s2,11444 <calloc+0xb8>
   113d8:	00848433          	add	s0,s1,s0
   113dc:	fff90613          	addi	a2,s2,-1 # fff <exit-0xf159>
   113e0:	01313423          	sd	s3,8(sp)
   113e4:	00c47633          	and	a2,s0,a2
   113e8:	00090993          	mv	s3,s2
   113ec:	40c40533          	sub	a0,s0,a2
   113f0:	00000593          	li	a1,0
   113f4:	3d1050ef          	jal	16fc4 <memset>
   113f8:	40950433          	sub	s0,a0,s1
   113fc:	05346263          	bltu	s0,s3,11440 <calloc+0xb4>
   11400:	412506b3          	sub	a3,a0,s2
   11404:	00050413          	mv	s0,a0
   11408:	00c0006f          	j	11414 <calloc+0x88>
   1140c:	ff040413          	addi	s0,s0,-16
   11410:	fc868ee3          	beq	a3,s0,113ec <calloc+0x60>
   11414:	ff843603          	ld	a2,-8(s0)
   11418:	ff043703          	ld	a4,-16(s0)
   1141c:	00e66633          	or	a2,a2,a4
   11420:	fe0606e3          	beqz	a2,1140c <calloc+0x80>
   11424:	40a90533          	sub	a0,s2,a0
   11428:	00a40633          	add	a2,s0,a0
   1142c:	40c40533          	sub	a0,s0,a2
   11430:	00000593          	li	a1,0
   11434:	391050ef          	jal	16fc4 <memset>
   11438:	40950433          	sub	s0,a0,s1
   1143c:	fd3472e3          	bgeu	s0,s3,11400 <calloc+0x74>
   11440:	00813983          	ld	s3,8(sp)
   11444:	00040613          	mv	a2,s0
   11448:	02013403          	ld	s0,32(sp)
   1144c:	01013903          	ld	s2,16(sp)
   11450:	02813083          	ld	ra,40(sp)
   11454:	00048513          	mv	a0,s1
   11458:	01813483          	ld	s1,24(sp)
   1145c:	00000593          	li	a1,0
   11460:	03010113          	addi	sp,sp,48
   11464:	3610506f          	j	16fc4 <memset>
   11468:	02013403          	ld	s0,32(sp)
   1146c:	02813083          	ld	ra,40(sp)
   11470:	00048513          	mv	a0,s1
   11474:	01813483          	ld	s1,24(sp)
   11478:	03010113          	addi	sp,sp,48
   1147c:	00008067          	ret
   11480:	02013403          	ld	s0,32(sp)
   11484:	00000493          	li	s1,0
   11488:	02813083          	ld	ra,40(sp)
   1148c:	00048513          	mv	a0,s1
   11490:	01813483          	ld	s1,24(sp)
   11494:	03010113          	addi	sp,sp,48
   11498:	00008067          	ret
   1149c:	a35ff0ef          	jal	10ed0 <__errno_location>
   114a0:	00c00793          	li	a5,12
   114a4:	00f52023          	sw	a5,0(a0)
   114a8:	00000493          	li	s1,0
   114ac:	fddff06f          	j	11488 <calloc+0xfc>

00000000000114b0 <free>:
   114b0:	0690006f          	j	11d18 <__libc_free>

00000000000114b4 <__simple_malloc>:
   114b4:	fb010113          	addi	sp,sp,-80
   114b8:	04813023          	sd	s0,64(sp)
   114bc:	04113423          	sd	ra,72(sp)
   114c0:	02913c23          	sd	s1,56(sp)
   114c4:	0000e417          	auipc	s0,0xe
   114c8:	a9c43403          	ld	s0,-1380(s0) # 1ef60 <_GLOBAL_OFFSET_TABLE_+0x8>
   114cc:	00043783          	ld	a5,0(s0)
   114d0:	00f13c23          	sd	a5,24(sp)
   114d4:	00000793          	li	a5,0
   114d8:	2a054663          	bltz	a0,11784 <__simple_malloc+0x2d0>
   114dc:	03213823          	sd	s2,48(sp)
   114e0:	03313423          	sd	s3,40(sp)
   114e4:	03413023          	sd	s4,32(sp)
   114e8:	00050913          	mv	s2,a0
   114ec:	10050663          	beqz	a0,115f8 <__simple_malloc+0x144>
   114f0:	00100793          	li	a5,1
   114f4:	2aa7f863          	bgeu	a5,a0,117a4 <__simple_malloc+0x2f0>
   114f8:	00200793          	li	a5,2
   114fc:	28f50063          	beq	a0,a5,1177c <__simple_malloc+0x2c8>
   11500:	00400793          	li	a5,4
   11504:	26a7fa63          	bgeu	a5,a0,11778 <__simple_malloc+0x2c4>
   11508:	00800793          	li	a5,8
   1150c:	26a7f663          	bgeu	a5,a0,11778 <__simple_malloc+0x2c4>
   11510:	01000793          	li	a5,16
   11514:	00f00493          	li	s1,15
   11518:	26a7f063          	bgeu	a5,a0,11778 <__simple_malloc+0x2c4>
   1151c:	ae018513          	addi	a0,gp,-1312 # 1f2e0 <lock>
   11520:	4c5050ef          	jal	171e4 <__lock>
   11524:	ad818993          	addi	s3,gp,-1320 # 1f2d8 <cur.0>
   11528:	0009b703          	ld	a4,0(s3)
   1152c:	ad018a13          	addi	s4,gp,-1328 # 1f2d0 <end.1>
   11530:	000a3603          	ld	a2,0(s4)
   11534:	40e007b3          	neg	a5,a4
   11538:	0097f7b3          	and	a5,a5,s1
   1153c:	00e787b3          	add	a5,a5,a4
   11540:	00f9b023          	sd	a5,0(s3)
   11544:	40f60733          	sub	a4,a2,a5
   11548:	1f277a63          	bgeu	a4,s2,1173c <__simple_malloc+0x288>
   1154c:	a5818813          	addi	a6,gp,-1448 # 1f258 <__libc>
   11550:	03083703          	ld	a4,48(a6)
   11554:	fff70593          	addi	a1,a4,-1
   11558:	40e00333          	neg	t1,a4
   1155c:	0a078263          	beqz	a5,11600 <__simple_malloc+0x14c>
   11560:	ac818e13          	addi	t3,gp,-1336 # 1f2c8 <brk.2>
   11564:	000e3683          	ld	a3,0(t3)
   11568:	0cd60463          	beq	a2,a3,11630 <__simple_malloc+0x17c>
   1156c:	00b905b3          	add	a1,s2,a1
   11570:	0065f5b3          	and	a1,a1,t1
   11574:	412586b3          	sub	a3,a1,s2
   11578:	0035d793          	srli	a5,a1,0x3
   1157c:	14d7f263          	bgeu	a5,a3,116c0 <__simple_malloc+0x20c>
   11580:	ac01a683          	lw	a3,-1344(gp) # 1f2c0 <mmap_step.3>
   11584:	0009b503          	ld	a0,0(s3)
   11588:	000a3783          	ld	a5,0(s4)
   1158c:	0016d61b          	srliw	a2,a3,0x1
   11590:	00c71733          	sll	a4,a4,a2
   11594:	40a787b3          	sub	a5,a5,a0
   11598:	41270633          	sub	a2,a4,s2
   1159c:	ac018513          	addi	a0,gp,-1344 # 1f2c0 <mmap_step.3>
   115a0:	12c7f063          	bgeu	a5,a2,116c0 <__simple_malloc+0x20c>
   115a4:	00e5fc63          	bgeu	a1,a4,115bc <__simple_malloc+0x108>
   115a8:	00b00793          	li	a5,11
   115ac:	00d7e663          	bltu	a5,a3,115b8 <__simple_malloc+0x104>
   115b0:	0016869b          	addiw	a3,a3,1 # 8001 <exit-0x8157>
   115b4:	00d52023          	sw	a3,0(a0)
   115b8:	00070593          	mv	a1,a4
   115bc:	00000793          	li	a5,0
   115c0:	fff00713          	li	a4,-1
   115c4:	02200693          	li	a3,34
   115c8:	00300613          	li	a2,3
   115cc:	00000513          	li	a0,0
   115d0:	00b13423          	sd	a1,8(sp)
   115d4:	26c020ef          	jal	13840 <__mmap>
   115d8:	fff00793          	li	a5,-1
   115dc:	00813583          	ld	a1,8(sp)
   115e0:	00050493          	mv	s1,a0
   115e4:	10f50063          	beq	a0,a5,116e4 <__simple_malloc+0x230>
   115e8:	00b485b3          	add	a1,s1,a1
   115ec:	00ba3023          	sd	a1,0(s4)
   115f0:	00048793          	mv	a5,s1
   115f4:	14c0006f          	j	11740 <__simple_malloc+0x28c>
   115f8:	00100913          	li	s2,1
   115fc:	ef5ff06f          	j	114f0 <__simple_malloc+0x3c>
   11600:	0d600893          	li	a7,214
   11604:	00000513          	li	a0,0
   11608:	00000073          	ecall
   1160c:	03083683          	ld	a3,48(a6)
   11610:	40a00733          	neg	a4,a0
   11614:	ac818e13          	addi	t3,gp,-1336 # 1f2c8 <brk.2>
   11618:	fff68693          	addi	a3,a3,-1
   1161c:	00e6f6b3          	and	a3,a3,a4
   11620:	00a686b3          	add	a3,a3,a0
   11624:	00da3023          	sd	a3,0(s4)
   11628:	00d9b023          	sd	a3,0(s3)
   1162c:	00de3023          	sd	a3,0(t3)
   11630:	40c58733          	sub	a4,a1,a2
   11634:	01270733          	add	a4,a4,s2
   11638:	00f70733          	add	a4,a4,a5
   1163c:	00677733          	and	a4,a4,t1
   11640:	fff6c793          	not	a5,a3
   11644:	04f77e63          	bgeu	a4,a5,116a0 <__simple_malloc+0x1ec>
   11648:	00883603          	ld	a2,8(a6)
   1164c:	008005b7          	lui	a1,0x800
   11650:	00d70533          	add	a0,a4,a3
   11654:	00060793          	mv	a5,a2
   11658:	12b66e63          	bltu	a2,a1,11794 <__simple_malloc+0x2e0>
   1165c:	ff8005b7          	lui	a1,0xff800
   11660:	00b787b3          	add	a5,a5,a1
   11664:	00a7f463          	bgeu	a5,a0,1166c <__simple_malloc+0x1b8>
   11668:	02c6ec63          	bltu	a3,a2,116a0 <__simple_malloc+0x1ec>
   1166c:	01010613          	addi	a2,sp,16
   11670:	008005b7          	lui	a1,0x800
   11674:	00060793          	mv	a5,a2
   11678:	12b66263          	bltu	a2,a1,1179c <__simple_malloc+0x2e8>
   1167c:	ff8005b7          	lui	a1,0xff800
   11680:	00b787b3          	add	a5,a5,a1
   11684:	00a7f463          	bgeu	a5,a0,1168c <__simple_malloc+0x1d8>
   11688:	00c6ec63          	bltu	a3,a2,116a0 <__simple_malloc+0x1ec>
   1168c:	0d600893          	li	a7,214
   11690:	00000073          	ecall
   11694:	000e3783          	ld	a5,0(t3)
   11698:	00f707b3          	add	a5,a4,a5
   1169c:	08f50663          	beq	a0,a5,11728 <__simple_malloc+0x274>
   116a0:	03083703          	ld	a4,48(a6)
   116a4:	fff70593          	addi	a1,a4,-1
   116a8:	40e00333          	neg	t1,a4
   116ac:	00b905b3          	add	a1,s2,a1
   116b0:	0065f5b3          	and	a1,a1,t1
   116b4:	412586b3          	sub	a3,a1,s2
   116b8:	0035d793          	srli	a5,a1,0x3
   116bc:	ecd7e2e3          	bltu	a5,a3,11580 <__simple_malloc+0xcc>
   116c0:	00000793          	li	a5,0
   116c4:	fff00713          	li	a4,-1
   116c8:	02200693          	li	a3,34
   116cc:	00300613          	li	a2,3
   116d0:	00000513          	li	a0,0
   116d4:	16c020ef          	jal	13840 <__mmap>
   116d8:	fff00793          	li	a5,-1
   116dc:	00050493          	mv	s1,a0
   116e0:	08f51063          	bne	a0,a5,11760 <__simple_malloc+0x2ac>
   116e4:	ae018513          	addi	a0,gp,-1312 # 1f2e0 <lock>
   116e8:	41d050ef          	jal	17304 <__unlock>
   116ec:	03013903          	ld	s2,48(sp)
   116f0:	02813983          	ld	s3,40(sp)
   116f4:	02013a03          	ld	s4,32(sp)
   116f8:	00000493          	li	s1,0
   116fc:	01813703          	ld	a4,24(sp)
   11700:	00043783          	ld	a5,0(s0)
   11704:	00f747b3          	xor	a5,a4,a5
   11708:	00000713          	li	a4,0
   1170c:	0a079063          	bnez	a5,117ac <__simple_malloc+0x2f8>
   11710:	04813083          	ld	ra,72(sp)
   11714:	04013403          	ld	s0,64(sp)
   11718:	00048513          	mv	a0,s1
   1171c:	03813483          	ld	s1,56(sp)
   11720:	05010113          	addi	sp,sp,80
   11724:	00008067          	ret
   11728:	000a3683          	ld	a3,0(s4)
   1172c:	0009b783          	ld	a5,0(s3)
   11730:	00d70733          	add	a4,a4,a3
   11734:	00ea3023          	sd	a4,0(s4)
   11738:	00ee3023          	sd	a4,0(t3)
   1173c:	00078493          	mv	s1,a5
   11740:	00f907b3          	add	a5,s2,a5
   11744:	ae018513          	addi	a0,gp,-1312 # 1f2e0 <lock>
   11748:	00f9b023          	sd	a5,0(s3)
   1174c:	3b9050ef          	jal	17304 <__unlock>
   11750:	03013903          	ld	s2,48(sp)
   11754:	02813983          	ld	s3,40(sp)
   11758:	02013a03          	ld	s4,32(sp)
   1175c:	fa1ff06f          	j	116fc <__simple_malloc+0x248>
   11760:	ae018513          	addi	a0,gp,-1312 # 1f2e0 <lock>
   11764:	3a1050ef          	jal	17304 <__unlock>
   11768:	03013903          	ld	s2,48(sp)
   1176c:	02813983          	ld	s3,40(sp)
   11770:	02013a03          	ld	s4,32(sp)
   11774:	f89ff06f          	j	116fc <__simple_malloc+0x248>
   11778:	00078513          	mv	a0,a5
   1177c:	fff50493          	addi	s1,a0,-1
   11780:	d9dff06f          	j	1151c <__simple_malloc+0x68>
   11784:	f4cff0ef          	jal	10ed0 <__errno_location>
   11788:	00c00793          	li	a5,12
   1178c:	00f52023          	sw	a5,0(a0)
   11790:	f69ff06f          	j	116f8 <__simple_malloc+0x244>
   11794:	00058793          	mv	a5,a1
   11798:	ec5ff06f          	j	1165c <__simple_malloc+0x1a8>
   1179c:	00058793          	mv	a5,a1
   117a0:	eddff06f          	j	1167c <__simple_malloc+0x1c8>
   117a4:	00000493          	li	s1,0
   117a8:	d75ff06f          	j	1151c <__simple_malloc+0x68>
   117ac:	03213823          	sd	s2,48(sp)
   117b0:	03313423          	sd	s3,40(sp)
   117b4:	03413023          	sd	s4,32(sp)
   117b8:	f0cff0ef          	jal	10ec4 <__stack_chk_fail>

00000000000117bc <__libc_malloc>:
   117bc:	4480106f          	j	12c04 <__libc_malloc_impl>

00000000000117c0 <malloc>:
   117c0:	4440106f          	j	12c04 <__libc_malloc_impl>

00000000000117c4 <get_meta>:
   117c4:	00f57793          	andi	a5,a0,15
   117c8:	02079063          	bnez	a5,117e8 <get_meta+0x24>
   117cc:	ffd54703          	lbu	a4,-3(a0)
   117d0:	ffc54783          	lbu	a5,-4(a0)
   117d4:	ffe55603          	lhu	a2,-2(a0)
   117d8:	01f77593          	andi	a1,a4,31
   117dc:	01f77713          	andi	a4,a4,31
   117e0:	00078e63          	beqz	a5,117fc <get_meta+0x38>
   117e4:	00060663          	beqz	a2,117f0 <get_meta+0x2c>
   117e8:	00000023          	sb	zero,0(zero) # 0 <exit-0x10158>
   117ec:	00100073          	ebreak
   117f0:	ff852603          	lw	a2,-8(a0)
   117f4:	000107b7          	lui	a5,0x10
   117f8:	fef648e3          	blt	a2,a5,117e8 <get_meta+0x24>
   117fc:	0046179b          	slliw	a5,a2,0x4
   11800:	40f50533          	sub	a0,a0,a5
   11804:	ff050793          	addi	a5,a0,-16
   11808:	0007b503          	ld	a0,0(a5) # 10000 <exit-0x158>
   1180c:	01053683          	ld	a3,16(a0)
   11810:	fcf69ce3          	bne	a3,a5,117e8 <get_meta+0x24>
   11814:	02053783          	ld	a5,32(a0)
   11818:	01f7f693          	andi	a3,a5,31
   1181c:	fce6c6e3          	blt	a3,a4,117e8 <get_meta+0x24>
   11820:	01852683          	lw	a3,24(a0)
   11824:	00e6d6bb          	srlw	a3,a3,a4
   11828:	0016f693          	andi	a3,a3,1
   1182c:	fa069ee3          	bnez	a3,117e8 <get_meta+0x24>
   11830:	01c52683          	lw	a3,28(a0)
   11834:	00e6d73b          	srlw	a4,a3,a4
   11838:	00177713          	andi	a4,a4,1
   1183c:	fa0716e3          	bnez	a4,117e8 <get_meta+0x24>
   11840:	fffff737          	lui	a4,0xfffff
   11844:	00e57733          	and	a4,a0,a4
   11848:	00073683          	ld	a3,0(a4) # fffffffffffff000 <__BSS_END__+0xfffffffffffdf3a0>
   1184c:	0000e717          	auipc	a4,0xe
   11850:	a9c73703          	ld	a4,-1380(a4) # 1f2e8 <__malloc_context>
   11854:	f8e69ae3          	bne	a3,a4,117e8 <get_meta+0x24>
   11858:	0067d713          	srli	a4,a5,0x6
   1185c:	03f77713          	andi	a4,a4,63
   11860:	02f00693          	li	a3,47
   11864:	04e6e263          	bltu	a3,a4,118a8 <get_meta+0xe4>
   11868:	0000b697          	auipc	a3,0xb
   1186c:	e6068693          	addi	a3,a3,-416 # 1c6c8 <__malloc_size_classes>
   11870:	00171713          	slli	a4,a4,0x1
   11874:	00e68733          	add	a4,a3,a4
   11878:	00075683          	lhu	a3,0(a4)
   1187c:	02b6873b          	mulw	a4,a3,a1
   11880:	f6e644e3          	blt	a2,a4,117e8 <get_meta+0x24>
   11884:	00e686bb          	addw	a3,a3,a4
   11888:	f6d650e3          	bge	a2,a3,117e8 <get_meta+0x24>
   1188c:	00001737          	lui	a4,0x1
   11890:	00e7ea63          	bltu	a5,a4,118a4 <get_meta+0xe0>
   11894:	00c7d793          	srli	a5,a5,0xc
   11898:	00879793          	slli	a5,a5,0x8
   1189c:	fff78793          	addi	a5,a5,-1
   118a0:	f4c7e4e3          	bltu	a5,a2,117e8 <get_meta+0x24>
   118a4:	00008067          	ret
   118a8:	00001737          	lui	a4,0x1
   118ac:	fc070713          	addi	a4,a4,-64 # fc0 <exit-0xf198>
   118b0:	00e7f6b3          	and	a3,a5,a4
   118b4:	fce68ce3          	beq	a3,a4,1188c <get_meta+0xc8>
   118b8:	00000023          	sb	zero,0(zero) # 0 <exit-0x10158>
   118bc:	00100073          	ebreak

00000000000118c0 <nontrivial_free>:
   118c0:	fc010113          	addi	sp,sp,-64
   118c4:	02813823          	sd	s0,48(sp)
   118c8:	02113c23          	sd	ra,56(sp)
   118cc:	02053783          	ld	a5,32(a0)
   118d0:	01c52683          	lw	a3,28(a0)
   118d4:	01852603          	lw	a2,24(a0)
   118d8:	00050413          	mv	s0,a0
   118dc:	01f7fe13          	andi	t3,a5,31
   118e0:	00100513          	li	a0,1
   118e4:	00200713          	li	a4,2
   118e8:	00c6e6b3          	or	a3,a3,a2
   118ec:	00b515bb          	sllw	a1,a0,a1
   118f0:	0067d613          	srli	a2,a5,0x6
   118f4:	01c7173b          	sllw	a4,a4,t3
   118f8:	03f67e93          	andi	t4,a2,63
   118fc:	fff7071b          	addiw	a4,a4,-1
   11900:	00d5853b          	addw	a0,a1,a3
   11904:	000e8613          	mv	a2,t4
   11908:	06e50463          	beq	a0,a4,11970 <nontrivial_free+0xb0>
   1190c:	04068663          	beqz	a3,11958 <nontrivial_free+0x98>
   11910:	01c40613          	addi	a2,s0,28
   11914:	01c42783          	lw	a5,28(s0)
   11918:	0007869b          	sext.w	a3,a5
   1191c:	00f5e7b3          	or	a5,a1,a5
   11920:	1606272f          	lr.w.aqrl	a4,(a2)
   11924:	00d71663          	bne	a4,a3,11930 <nontrivial_free+0x70>
   11928:	1ef6252f          	sc.w.aqrl	a0,a5,(a2)
   1192c:	fe051ae3          	bnez	a0,11920 <nontrivial_free+0x60>
   11930:	0007079b          	sext.w	a5,a4
   11934:	fef690e3          	bne	a3,a5,11914 <nontrivial_free+0x54>
   11938:	03813083          	ld	ra,56(sp)
   1193c:	03013403          	ld	s0,48(sp)
   11940:	00013023          	sd	zero,0(sp)
   11944:	00013423          	sd	zero,8(sp)
   11948:	00013503          	ld	a0,0(sp)
   1194c:	00813583          	ld	a1,8(sp)
   11950:	04010113          	addi	sp,sp,64
   11954:	00008067          	ret
   11958:	02913423          	sd	s1,40(sp)
   1195c:	03213023          	sd	s2,32(sp)
   11960:	02f00793          	li	a5,47
   11964:	08c7d263          	bge	a5,a2,119e8 <nontrivial_free+0x128>
   11968:	00000023          	sb	zero,0(zero) # 0 <exit-0x10158>
   1196c:	00100073          	ebreak
   11970:	0207f713          	andi	a4,a5,32
   11974:	00078513          	mv	a0,a5
   11978:	f8070ae3          	beqz	a4,1190c <nontrivial_free+0x4c>
   1197c:	02913423          	sd	s1,40(sp)
   11980:	02f00313          	li	t1,47
   11984:	00843703          	ld	a4,8(s0)
   11988:	17d34463          	blt	t1,t4,11af0 <nontrivial_free+0x230>
   1198c:	01f7f893          	andi	a7,a5,31
   11990:	00001537          	lui	a0,0x1
   11994:	0c0e1663          	bnez	t3,11a60 <nontrivial_free+0x1a0>
   11998:	0ca7e663          	bltu	a5,a0,11a64 <nontrivial_free+0x1a4>
   1199c:	001e9813          	slli	a6,t4,0x1
   119a0:	0000b517          	auipc	a0,0xb
   119a4:	d2850513          	addi	a0,a0,-728 # 1c6c8 <__malloc_size_classes>
   119a8:	01050533          	add	a0,a0,a6
   119ac:	00055803          	lhu	a6,0(a0)
   119b0:	00c7d513          	srli	a0,a5,0xc
   119b4:	00c51513          	slli	a0,a0,0xc
   119b8:	ff050513          	addi	a0,a0,-16
   119bc:	0048179b          	slliw	a5,a6,0x4
   119c0:	0af56263          	bltu	a0,a5,11a64 <nontrivial_free+0x1a4>
   119c4:	1ee40063          	beq	s0,a4,11ba4 <nontrivial_free+0x2e4>
   119c8:	24070663          	beqz	a4,11c14 <nontrivial_free+0x354>
   119cc:	00a60613          	addi	a2,a2,10
   119d0:	00361793          	slli	a5,a2,0x3
   119d4:	0000e497          	auipc	s1,0xe
   119d8:	91448493          	addi	s1,s1,-1772 # 1f2e8 <__malloc_context>
   119dc:	00f487b3          	add	a5,s1,a5
   119e0:	0007b683          	ld	a3,0(a5)
   119e4:	0a00006f          	j	11a84 <nontrivial_free+0x1c4>
   119e8:	00a60613          	addi	a2,a2,10
   119ec:	00361613          	slli	a2,a2,0x3
   119f0:	0000e797          	auipc	a5,0xe
   119f4:	8f878793          	addi	a5,a5,-1800 # 1f2e8 <__malloc_context>
   119f8:	00c787b3          	add	a5,a5,a2
   119fc:	0007b703          	ld	a4,0(a5)
   11a00:	02870e63          	beq	a4,s0,11a3c <nontrivial_free+0x17c>
   11a04:	00843683          	ld	a3,8(s0)
   11a08:	f60690e3          	bnez	a3,11968 <nontrivial_free+0xa8>
   11a0c:	00043683          	ld	a3,0(s0)
   11a10:	f4069ce3          	bnez	a3,11968 <nontrivial_free+0xa8>
   11a14:	02070a63          	beqz	a4,11a48 <nontrivial_free+0x188>
   11a18:	00e43423          	sd	a4,8(s0)
   11a1c:	00073783          	ld	a5,0(a4)
   11a20:	00f43023          	sd	a5,0(s0)
   11a24:	0087b423          	sd	s0,8(a5)
   11a28:	00843783          	ld	a5,8(s0)
   11a2c:	0087b023          	sd	s0,0(a5)
   11a30:	02813483          	ld	s1,40(sp)
   11a34:	02013903          	ld	s2,32(sp)
   11a38:	ed9ff06f          	j	11910 <nontrivial_free+0x50>
   11a3c:	02813483          	ld	s1,40(sp)
   11a40:	02013903          	ld	s2,32(sp)
   11a44:	ecdff06f          	j	11910 <nontrivial_free+0x50>
   11a48:	00843423          	sd	s0,8(s0)
   11a4c:	00843023          	sd	s0,0(s0)
   11a50:	0087b023          	sd	s0,0(a5)
   11a54:	02813483          	ld	s1,40(sp)
   11a58:	02013903          	ld	s2,32(sp)
   11a5c:	eb5ff06f          	j	11910 <nontrivial_free+0x50>
   11a60:	f6a7f2e3          	bgeu	a5,a0,119c4 <nontrivial_free+0x104>
   11a64:	1a070863          	beqz	a4,11c14 <nontrivial_free+0x354>
   11a68:	00a60613          	addi	a2,a2,10
   11a6c:	00361793          	slli	a5,a2,0x3
   11a70:	0000e497          	auipc	s1,0xe
   11a74:	87848493          	addi	s1,s1,-1928 # 1f2e8 <__malloc_context>
   11a78:	00f487b3          	add	a5,s1,a5
   11a7c:	0007b683          	ld	a3,0(a5)
   11a80:	1ae40863          	beq	s0,a4,11c30 <nontrivial_free+0x370>
   11a84:	00043583          	ld	a1,0(s0)
   11a88:	00361793          	slli	a5,a2,0x3
   11a8c:	00f487b3          	add	a5,s1,a5
   11a90:	00e5b423          	sd	a4,8(a1) # ffffffffff800008 <__BSS_END__+0xffffffffff7e03a8>
   11a94:	00043583          	ld	a1,0(s0)
   11a98:	00b73023          	sd	a1,0(a4)
   11a9c:	0007b703          	ld	a4,0(a5)
   11aa0:	26e40663          	beq	s0,a4,11d0c <nontrivial_free+0x44c>
   11aa4:	00043423          	sd	zero,8(s0)
   11aa8:	00043023          	sd	zero,0(s0)
   11aac:	1ed40263          	beq	s0,a3,11c90 <nontrivial_free+0x3d0>
   11ab0:	02043503          	ld	a0,32(s0)
   11ab4:	02f00713          	li	a4,47
   11ab8:	00655793          	srli	a5,a0,0x6
   11abc:	03f7f613          	andi	a2,a5,63
   11ac0:	00060e93          	mv	t4,a2
   11ac4:	04c74063          	blt	a4,a2,11b04 <nontrivial_free+0x244>
   11ac8:	01f57e13          	andi	t3,a0,31
   11acc:	03a60713          	addi	a4,a2,58
   11ad0:	00371713          	slli	a4,a4,0x3
   11ad4:	00e48733          	add	a4,s1,a4
   11ad8:	00073683          	ld	a3,0(a4)
   11adc:	001e079b          	addiw	a5,t3,1
   11ae0:	40f687b3          	sub	a5,a3,a5
   11ae4:	00f73023          	sd	a5,0(a4)
   11ae8:	02043503          	ld	a0,32(s0)
   11aec:	0180006f          	j	11b04 <nontrivial_free+0x244>
   11af0:	03213023          	sd	s2,32(sp)
   11af4:	e6071ae3          	bnez	a4,11968 <nontrivial_free+0xa8>
   11af8:	02013903          	ld	s2,32(sp)
   11afc:	0000d497          	auipc	s1,0xd
   11b00:	7ec48493          	addi	s1,s1,2028 # 1f2e8 <__malloc_context>
   11b04:	000017b7          	lui	a5,0x1
   11b08:	14f56063          	bltu	a0,a5,11c48 <nontrivial_free+0x388>
   11b0c:	e781c703          	lbu	a4,-392(gp) # 1f678 <__malloc_context+0x390>
   11b10:	0ff00793          	li	a5,255
   11b14:	1ef70063          	beq	a4,a5,11cf4 <nontrivial_free+0x434>
   11b18:	0017071b          	addiw	a4,a4,1
   11b1c:	0ff77713          	zext.b	a4,a4
   11b20:	38e48823          	sb	a4,912(s1)
   11b24:	ff9e879b          	addiw	a5,t4,-7
   11b28:	01f00693          	li	a3,31
   11b2c:	00f6e863          	bltu	a3,a5,11b3c <nontrivial_free+0x27c>
   11b30:	ff96061b          	addiw	a2,a2,-7
   11b34:	00c487b3          	add	a5,s1,a2
   11b38:	34e78823          	sb	a4,848(a5) # 1350 <exit-0xee08>
   11b3c:	02043783          	ld	a5,32(s0)
   11b40:	01043703          	ld	a4,16(s0)
   11b44:	00c7d793          	srli	a5,a5,0xc
   11b48:	00c79793          	slli	a5,a5,0xc
   11b4c:	00043023          	sd	zero,0(s0)
   11b50:	00043423          	sd	zero,8(s0)
   11b54:	00043823          	sd	zero,16(s0)
   11b58:	0104b683          	ld	a3,16(s1)
   11b5c:	00043c23          	sd	zero,24(s0)
   11b60:	02043023          	sd	zero,32(s0)
   11b64:	10068e63          	beqz	a3,11c80 <nontrivial_free+0x3c0>
   11b68:	00d43423          	sd	a3,8(s0)
   11b6c:	0006b683          	ld	a3,0(a3)
   11b70:	00d43023          	sd	a3,0(s0)
   11b74:	0086b423          	sd	s0,8(a3)
   11b78:	00843683          	ld	a3,8(s0)
   11b7c:	0086b023          	sd	s0,0(a3)
   11b80:	03813083          	ld	ra,56(sp)
   11b84:	03013403          	ld	s0,48(sp)
   11b88:	00e13023          	sd	a4,0(sp)
   11b8c:	00f13423          	sd	a5,8(sp)
   11b90:	00013503          	ld	a0,0(sp)
   11b94:	00813583          	ld	a1,8(sp)
   11b98:	02813483          	ld	s1,40(sp)
   11b9c:	04010113          	addi	sp,sp,64
   11ba0:	00008067          	ret
   11ba4:	ff9e879b          	addiw	a5,t4,-7
   11ba8:	01f00513          	li	a0,31
   11bac:	0000d497          	auipc	s1,0xd
   11bb0:	73c48493          	addi	s1,s1,1852 # 1f2e8 <__malloc_context>
   11bb4:	06f56663          	bltu	a0,a5,11c20 <nontrivial_free+0x360>
   11bb8:	ff96079b          	addiw	a5,a2,-7
   11bbc:	00f487b3          	add	a5,s1,a5
   11bc0:	3707c503          	lbu	a0,880(a5)
   11bc4:	06300793          	li	a5,99
   11bc8:	04a7fc63          	bgeu	a5,a0,11c20 <nontrivial_free+0x360>
   11bcc:	03a60793          	addi	a5,a2,58
   11bd0:	00379793          	slli	a5,a5,0x3
   11bd4:	00f487b3          	add	a5,s1,a5
   11bd8:	0018889b          	addiw	a7,a7,1
   11bdc:	0007b503          	ld	a0,0(a5)
   11be0:	00389793          	slli	a5,a7,0x3
   11be4:	011787b3          	add	a5,a5,a7
   11be8:	00f56663          	bltu	a0,a5,11bf4 <nontrivial_free+0x334>
   11bec:	01300793          	li	a5,19
   11bf0:	0317d863          	bge	a5,a7,11c20 <nontrivial_free+0x360>
   11bf4:	04069663          	bnez	a3,11c40 <nontrivial_free+0x380>
   11bf8:	00a60793          	addi	a5,a2,10
   11bfc:	00379793          	slli	a5,a5,0x3
   11c00:	00f487b3          	add	a5,s1,a5
   11c04:	0007b783          	ld	a5,0(a5)
   11c08:	02f70c63          	beq	a4,a5,11c40 <nontrivial_free+0x380>
   11c0c:	03213023          	sd	s2,32(sp)
   11c10:	d59ff06f          	j	11968 <nontrivial_free+0xa8>
   11c14:	0000d497          	auipc	s1,0xd
   11c18:	6d448493          	addi	s1,s1,1748 # 1f2e8 <__malloc_context>
   11c1c:	eb1ff06f          	j	11acc <nontrivial_free+0x20c>
   11c20:	00a60613          	addi	a2,a2,10
   11c24:	00361793          	slli	a5,a2,0x3
   11c28:	00f487b3          	add	a5,s1,a5
   11c2c:	0007b683          	ld	a3,0(a5)
   11c30:	00361793          	slli	a5,a2,0x3
   11c34:	00f487b3          	add	a5,s1,a5
   11c38:	0007b023          	sd	zero,0(a5)
   11c3c:	e69ff06f          	j	11aa4 <nontrivial_free+0x1e4>
   11c40:	02813483          	ld	s1,40(sp)
   11c44:	ccdff06f          	j	11910 <nontrivial_free+0x50>
   11c48:	03213023          	sd	s2,32(sp)
   11c4c:	01043903          	ld	s2,16(s0)
   11c50:	00090513          	mv	a0,s2
   11c54:	b71ff0ef          	jal	117c4 <get_meta>
   11c58:	ffd94583          	lbu	a1,-3(s2)
   11c5c:	00093023          	sd	zero,0(s2)
   11c60:	01f5f593          	andi	a1,a1,31
   11c64:	c5dff0ef          	jal	118c0 <nontrivial_free>
   11c68:	00058793          	mv	a5,a1
   11c6c:	02013903          	ld	s2,32(sp)
   11c70:	00050713          	mv	a4,a0
   11c74:	00b13c23          	sd	a1,24(sp)
   11c78:	00a13823          	sd	a0,16(sp)
   11c7c:	ed1ff06f          	j	11b4c <nontrivial_free+0x28c>
   11c80:	00843423          	sd	s0,8(s0)
   11c84:	00843023          	sd	s0,0(s0)
   11c88:	0084b823          	sd	s0,16(s1)
   11c8c:	ef5ff06f          	j	11b80 <nontrivial_free+0x2c0>
   11c90:	00361613          	slli	a2,a2,0x3
   11c94:	00c487b3          	add	a5,s1,a2
   11c98:	0007b583          	ld	a1,0(a5)
   11c9c:	e0058ae3          	beqz	a1,11ab0 <nontrivial_free+0x1f0>
   11ca0:	0185a783          	lw	a5,24(a1)
   11ca4:	f60794e3          	bnez	a5,11c0c <nontrivial_free+0x34c>
   11ca8:	0105b783          	ld	a5,16(a1)
   11cac:	00200513          	li	a0,2
   11cb0:	01c58613          	addi	a2,a1,28
   11cb4:	0087b783          	ld	a5,8(a5)
   11cb8:	00f5153b          	sllw	a0,a0,a5
   11cbc:	fff5089b          	addiw	a7,a0,-1
   11cc0:	40a0053b          	negw	a0,a0
   11cc4:	01c5a783          	lw	a5,28(a1)
   11cc8:	0007871b          	sext.w	a4,a5
   11ccc:	00a7f7b3          	and	a5,a5,a0
   11cd0:	160626af          	lr.w.aqrl	a3,(a2)
   11cd4:	00e69663          	bne	a3,a4,11ce0 <nontrivial_free+0x420>
   11cd8:	1ef6282f          	sc.w.aqrl	a6,a5,(a2)
   11cdc:	fe081ae3          	bnez	a6,11cd0 <nontrivial_free+0x410>
   11ce0:	0006879b          	sext.w	a5,a3
   11ce4:	fef710e3          	bne	a4,a5,11cc4 <nontrivial_free+0x404>
   11ce8:	01177733          	and	a4,a4,a7
   11cec:	00e5ac23          	sw	a4,24(a1)
   11cf0:	dc1ff06f          	j	11ab0 <nontrivial_free+0x1f0>
   11cf4:	e201bc23          	sd	zero,-456(gp) # 1f638 <__malloc_context+0x350>
   11cf8:	e401b023          	sd	zero,-448(gp) # 1f640 <__malloc_context+0x358>
   11cfc:	e401b423          	sd	zero,-440(gp) # 1f648 <__malloc_context+0x360>
   11d00:	e401b823          	sd	zero,-432(gp) # 1f650 <__malloc_context+0x368>
   11d04:	00100713          	li	a4,1
   11d08:	e19ff06f          	j	11b20 <nontrivial_free+0x260>
   11d0c:	00843703          	ld	a4,8(s0)
   11d10:	00e7b023          	sd	a4,0(a5)
   11d14:	d91ff06f          	j	11aa4 <nontrivial_free+0x1e4>

0000000000011d18 <__libc_free>:
   11d18:	0a050c63          	beqz	a0,11dd0 <__libc_free+0xb8>
   11d1c:	fc010113          	addi	sp,sp,-64
   11d20:	02813823          	sd	s0,48(sp)
   11d24:	02913423          	sd	s1,40(sp)
   11d28:	00050413          	mv	s0,a0
   11d2c:	02113c23          	sd	ra,56(sp)
   11d30:	a95ff0ef          	jal	117c4 <get_meta>
   11d34:	02053703          	ld	a4,32(a0)
   11d38:	ffd44583          	lbu	a1,-3(s0)
   11d3c:	00050493          	mv	s1,a0
   11d40:	00200513          	li	a0,2
   11d44:	fff00793          	li	a5,-1
   11d48:	01f5f593          	andi	a1,a1,31
   11d4c:	00e5153b          	sllw	a0,a0,a4
   11d50:	00100693          	li	a3,1
   11d54:	fe041f23          	sh	zero,-2(s0)
   11d58:	fef40ea3          	sb	a5,-3(s0)
   11d5c:	fff5051b          	addiw	a0,a0,-1
   11d60:	00b696bb          	sllw	a3,a3,a1
   11d64:	01c48813          	addi	a6,s1,28
   11d68:	01c4a783          	lw	a5,28(s1)
   11d6c:	0184a603          	lw	a2,24(s1)
   11d70:	0007871b          	sext.w	a4,a5
   11d74:	00c7e7b3          	or	a5,a5,a2
   11d78:	00f6f633          	and	a2,a3,a5
   11d7c:	0006061b          	sext.w	a2,a2
   11d80:	00060663          	beqz	a2,11d8c <__libc_free+0x74>
   11d84:	00000023          	sb	zero,0(zero) # 0 <exit-0x10158>
   11d88:	00100073          	ebreak
   11d8c:	04070463          	beqz	a4,11dd4 <__libc_free+0xbc>
   11d90:	00f687bb          	addw	a5,a3,a5
   11d94:	04a78063          	beq	a5,a0,11dd4 <__libc_free+0xbc>
   11d98:	a5b18783          	lb	a5,-1445(gp) # 1f25b <__libc+0x3>
   11d9c:	00e6863b          	addw	a2,a3,a4
   11da0:	08078a63          	beqz	a5,11e34 <__libc_free+0x11c>
   11da4:	160827af          	lr.w.aqrl	a5,(a6)
   11da8:	00e79663          	bne	a5,a4,11db4 <__libc_free+0x9c>
   11dac:	1ec828af          	sc.w.aqrl	a7,a2,(a6)
   11db0:	fe089ae3          	bnez	a7,11da4 <__libc_free+0x8c>
   11db4:	0007879b          	sext.w	a5,a5
   11db8:	faf718e3          	bne	a4,a5,11d68 <__libc_free+0x50>
   11dbc:	03813083          	ld	ra,56(sp)
   11dc0:	03013403          	ld	s0,48(sp)
   11dc4:	02813483          	ld	s1,40(sp)
   11dc8:	04010113          	addi	sp,sp,64
   11dcc:	00008067          	ret
   11dd0:	00008067          	ret
   11dd4:	a5b18783          	lb	a5,-1445(gp) # 1f25b <__libc+0x3>
   11dd8:	04079463          	bnez	a5,11e20 <__libc_free+0x108>
   11ddc:	00048513          	mv	a0,s1
   11de0:	ae1ff0ef          	jal	118c0 <nontrivial_free>
   11de4:	00050793          	mv	a5,a0
   11de8:	00058413          	mv	s0,a1
   11dec:	e8818513          	addi	a0,gp,-376 # 1f688 <__malloc_lock>
   11df0:	00f13823          	sd	a5,16(sp)
   11df4:	00b13c23          	sd	a1,24(sp)
   11df8:	50c050ef          	jal	17304 <__unlock>
   11dfc:	fc0400e3          	beqz	s0,11dbc <__libc_free+0xa4>
   11e00:	8d0ff0ef          	jal	10ed0 <__errno_location>
   11e04:	00050493          	mv	s1,a0
   11e08:	00040593          	mv	a1,s0
   11e0c:	01013503          	ld	a0,16(sp)
   11e10:	0004a403          	lw	s0,0(s1)
   11e14:	375010ef          	jal	13988 <__munmap>
   11e18:	0084a023          	sw	s0,0(s1)
   11e1c:	fa1ff06f          	j	11dbc <__libc_free+0xa4>
   11e20:	e8818513          	addi	a0,gp,-376 # 1f688 <__malloc_lock>
   11e24:	00b13423          	sd	a1,8(sp)
   11e28:	3bc050ef          	jal	171e4 <__lock>
   11e2c:	00813583          	ld	a1,8(sp)
   11e30:	fadff06f          	j	11ddc <__libc_free+0xc4>
   11e34:	00c4ae23          	sw	a2,28(s1)
   11e38:	f85ff06f          	j	11dbc <__libc_free+0xa4>

0000000000011e3c <__malloc_atfork>:
   11e3c:	00054863          	bltz	a0,11e4c <__malloc_atfork+0x10>
   11e40:	00050c63          	beqz	a0,11e58 <__malloc_atfork+0x1c>
   11e44:	e801a423          	sw	zero,-376(gp) # 1f688 <__malloc_lock>
   11e48:	00008067          	ret
   11e4c:	a5b18783          	lb	a5,-1445(gp) # 1f25b <__libc+0x3>
   11e50:	00079863          	bnez	a5,11e60 <__malloc_atfork+0x24>
   11e54:	00008067          	ret
   11e58:	e8818513          	addi	a0,gp,-376 # 1f688 <__malloc_lock>
   11e5c:	4a80506f          	j	17304 <__unlock>
   11e60:	e8818513          	addi	a0,gp,-376 # 1f688 <__malloc_lock>
   11e64:	3800506f          	j	171e4 <__lock>

0000000000011e68 <__malloc_alloc_meta>:
   11e68:	fb010113          	addi	sp,sp,-80
   11e6c:	0000d797          	auipc	a5,0xd
   11e70:	4847a783          	lw	a5,1156(a5) # 1f2f0 <__malloc_context+0x8>
   11e74:	02913c23          	sd	s1,56(sp)
   11e78:	03213823          	sd	s2,48(sp)
   11e7c:	04113423          	sd	ra,72(sp)
   11e80:	04813023          	sd	s0,64(sp)
   11e84:	0000d917          	auipc	s2,0xd
   11e88:	0dc93903          	ld	s2,220(s2) # 1ef60 <_GLOBAL_OFFSET_TABLE_+0x8>
   11e8c:	00093703          	ld	a4,0(s2)
   11e90:	00e13423          	sd	a4,8(sp)
   11e94:	00000713          	li	a4,0
   11e98:	0000d497          	auipc	s1,0xd
   11e9c:	45048493          	addi	s1,s1,1104 # 1f2e8 <__malloc_context>
   11ea0:	08078263          	beqz	a5,11f24 <__malloc_alloc_meta+0xbc>
   11ea4:	0104b403          	ld	s0,16(s1)
   11ea8:	04040e63          	beqz	s0,11f04 <__malloc_alloc_meta+0x9c>
   11eac:	00843783          	ld	a5,8(s0)
   11eb0:	1ef40263          	beq	s0,a5,12094 <__malloc_alloc_meta+0x22c>
   11eb4:	00043703          	ld	a4,0(s0)
   11eb8:	00f73423          	sd	a5,8(a4)
   11ebc:	00043703          	ld	a4,0(s0)
   11ec0:	00e7b023          	sd	a4,0(a5)
   11ec4:	0104b783          	ld	a5,16(s1)
   11ec8:	22f40463          	beq	s0,a5,120f0 <__malloc_alloc_meta+0x288>
   11ecc:	00043423          	sd	zero,8(s0)
   11ed0:	00043023          	sd	zero,0(s0)
   11ed4:	00813703          	ld	a4,8(sp)
   11ed8:	00093783          	ld	a5,0(s2)
   11edc:	00f747b3          	xor	a5,a4,a5
   11ee0:	00000713          	li	a4,0
   11ee4:	2c079a63          	bnez	a5,121b8 <__malloc_alloc_meta+0x350>
   11ee8:	04813083          	ld	ra,72(sp)
   11eec:	00040513          	mv	a0,s0
   11ef0:	04013403          	ld	s0,64(sp)
   11ef4:	03813483          	ld	s1,56(sp)
   11ef8:	03013903          	ld	s2,48(sp)
   11efc:	05010113          	addi	sp,sp,80
   11f00:	00008067          	ret
   11f04:	0204b783          	ld	a5,32(s1)
   11f08:	0a078463          	beqz	a5,11fb0 <__malloc_alloc_meta+0x148>
   11f0c:	0184b403          	ld	s0,24(s1)
   11f10:	fff78793          	addi	a5,a5,-1
   11f14:	02840713          	addi	a4,s0,40
   11f18:	02f4b023          	sd	a5,32(s1)
   11f1c:	00e4bc23          	sd	a4,24(s1)
   11f20:	fadff06f          	j	11ecc <__malloc_alloc_meta+0x64>
   11f24:	41c656b7          	lui	a3,0x41c65
   11f28:	e6d68693          	addi	a3,a3,-403 # 41c64e6d <__BSS_END__+0x41c4520d>
   11f2c:	02d106b3          	mul	a3,sp,a3
   11f30:	03413023          	sd	s4,32(sp)
   11f34:	a5818493          	addi	s1,gp,-1448 # 1f258 <__libc>
   11f38:	0084b703          	ld	a4,8(s1)
   11f3c:	00010a13          	mv	s4,sp
   11f40:	00d13023          	sd	a3,0(sp)
   11f44:	00073783          	ld	a5,0(a4)
   11f48:	02078863          	beqz	a5,11f78 <__malloc_alloc_meta+0x110>
   11f4c:	03313423          	sd	s3,40(sp)
   11f50:	01000413          	li	s0,16
   11f54:	01900993          	li	s3,25
   11f58:	03378e63          	beq	a5,s3,11f94 <__malloc_alloc_meta+0x12c>
   11f5c:	0084b703          	ld	a4,8(s1)
   11f60:	008707b3          	add	a5,a4,s0
   11f64:	0007b783          	ld	a5,0(a5)
   11f68:	01040413          	addi	s0,s0,16
   11f6c:	fe0796e3          	bnez	a5,11f58 <__malloc_alloc_meta+0xf0>
   11f70:	00013683          	ld	a3,0(sp)
   11f74:	02813983          	ld	s3,40(sp)
   11f78:	0000d497          	auipc	s1,0xd
   11f7c:	37048493          	addi	s1,s1,880 # 1f2e8 <__malloc_context>
   11f80:	00100793          	li	a5,1
   11f84:	00d4b023          	sd	a3,0(s1)
   11f88:	00f4a423          	sw	a5,8(s1)
   11f8c:	02013a03          	ld	s4,32(sp)
   11f90:	f15ff06f          	j	11ea4 <__malloc_alloc_meta+0x3c>
   11f94:	00870733          	add	a4,a4,s0
   11f98:	ff873583          	ld	a1,-8(a4)
   11f9c:	00800613          	li	a2,8
   11fa0:	000a0513          	mv	a0,s4
   11fa4:	00c585b3          	add	a1,a1,a2
   11fa8:	3a1040ef          	jal	16b48 <memcpy>
   11fac:	fb1ff06f          	j	11f5c <__malloc_alloc_meta+0xf4>
   11fb0:	01513c23          	sd	s5,24(sp)
   11fb4:	a881ba83          	ld	s5,-1400(gp) # 1f288 <__libc+0x30>
   11fb8:	03313423          	sd	s3,40(sp)
   11fbc:	000017b7          	lui	a5,0x1
   11fc0:	12fae063          	bltu	s5,a5,120e0 <__malloc_alloc_meta+0x278>
   11fc4:	0284b783          	ld	a5,40(s1)
   11fc8:	0c079c63          	bnez	a5,120a0 <__malloc_alloc_meta+0x238>
   11fcc:	03413023          	sd	s4,32(sp)
   11fd0:	3984b983          	ld	s3,920(s1)
   11fd4:	fff00713          	li	a4,-1
   11fd8:	12e98263          	beq	s3,a4,120fc <__malloc_alloc_meta+0x294>
   11fdc:	18099863          	bnez	s3,1216c <__malloc_alloc_meta+0x304>
   11fe0:	0d600893          	li	a7,214
   11fe4:	00000513          	li	a0,0
   11fe8:	00000073          	ecall
   11fec:	40a007b3          	neg	a5,a0
   11ff0:	fffa8693          	addi	a3,s5,-1
   11ff4:	00d7f7b3          	and	a5,a5,a3
   11ff8:	00a787b3          	add	a5,a5,a0
   11ffc:	001a9a13          	slli	s4,s5,0x1
   12000:	00fa0a33          	add	s4,s4,a5
   12004:	38f4bc23          	sd	a5,920(s1)
   12008:	000a0513          	mv	a0,s4
   1200c:	00000073          	ecall
   12010:	16aa1863          	bne	s4,a0,12180 <__malloc_alloc_meta+0x318>
   12014:	3984b503          	ld	a0,920(s1)
   12018:	00000793          	li	a5,0
   1201c:	03200693          	li	a3,50
   12020:	00000613          	li	a2,0
   12024:	000a8593          	mv	a1,s5
   12028:	019010ef          	jal	13840 <__mmap>
   1202c:	415a09b3          	sub	s3,s4,s5
   12030:	00cada93          	srli	s5,s5,0xc
   12034:	0354b423          	sd	s5,40(s1)
   12038:	3944bc23          	sd	s4,920(s1)
   1203c:	02013a03          	ld	s4,32(sp)
   12040:	0284b703          	ld	a4,40(s1)
   12044:	000017b7          	lui	a5,0x1
   12048:	0404b683          	ld	a3,64(s1)
   1204c:	fff70713          	addi	a4,a4,-1
   12050:	00f987b3          	add	a5,s3,a5
   12054:	02e4b423          	sd	a4,40(s1)
   12058:	04f4b423          	sd	a5,72(s1)
   1205c:	10068463          	beqz	a3,12164 <__malloc_alloc_meta+0x2fc>
   12060:	0136b423          	sd	s3,8(a3)
   12064:	0004b783          	ld	a5,0(s1)
   12068:	0534b023          	sd	s3,64(s1)
   1206c:	06500693          	li	a3,101
   12070:	00f9b023          	sd	a5,0(s3)
   12074:	0404b703          	ld	a4,64(s1)
   12078:	06400793          	li	a5,100
   1207c:	00d72823          	sw	a3,16(a4)
   12080:	0404b403          	ld	s0,64(s1)
   12084:	02813983          	ld	s3,40(sp)
   12088:	01813a83          	ld	s5,24(sp)
   1208c:	01840413          	addi	s0,s0,24
   12090:	e85ff06f          	j	11f14 <__malloc_alloc_meta+0xac>
   12094:	0000d797          	auipc	a5,0xd
   12098:	2607b223          	sd	zero,612(a5) # 1f2f8 <__malloc_context+0x10>
   1209c:	e31ff06f          	j	11ecc <__malloc_alloc_meta+0x64>
   120a0:	0484b983          	ld	s3,72(s1)
   120a4:	fffa8793          	addi	a5,s5,-1
   120a8:	00f9f7b3          	and	a5,s3,a5
   120ac:	f8079ae3          	bnez	a5,12040 <__malloc_alloc_meta+0x1d8>
   120b0:	000a8593          	mv	a1,s5
   120b4:	00300613          	li	a2,3
   120b8:	00098513          	mv	a0,s3
   120bc:	061010ef          	jal	1391c <__mprotect>
   120c0:	f80500e3          	beqz	a0,12040 <__malloc_alloc_meta+0x1d8>
   120c4:	e0dfe0ef          	jal	10ed0 <__errno_location>
   120c8:	00052703          	lw	a4,0(a0)
   120cc:	02600793          	li	a5,38
   120d0:	f6f708e3          	beq	a4,a5,12040 <__malloc_alloc_meta+0x1d8>
   120d4:	02813983          	ld	s3,40(sp)
   120d8:	01813a83          	ld	s5,24(sp)
   120dc:	df9ff06f          	j	11ed4 <__malloc_alloc_meta+0x6c>
   120e0:	00078a93          	mv	s5,a5
   120e4:	0284b783          	ld	a5,40(s1)
   120e8:	fa079ce3          	bnez	a5,120a0 <__malloc_alloc_meta+0x238>
   120ec:	ee1ff06f          	j	11fcc <__malloc_alloc_meta+0x164>
   120f0:	00843783          	ld	a5,8(s0)
   120f4:	00f4b823          	sd	a5,16(s1)
   120f8:	dd5ff06f          	j	11ecc <__malloc_alloc_meta+0x64>
   120fc:	0304b703          	ld	a4,48(s1)
   12100:	00200a13          	li	s4,2
   12104:	00000793          	li	a5,0
   12108:	00ea1a33          	sll	s4,s4,a4
   1210c:	035a05b3          	mul	a1,s4,s5
   12110:	fff00713          	li	a4,-1
   12114:	02200693          	li	a3,34
   12118:	00000613          	li	a2,0
   1211c:	00000513          	li	a0,0
   12120:	720010ef          	jal	13840 <__mmap>
   12124:	fff00793          	li	a5,-1
   12128:	08f50063          	beq	a0,a5,121a8 <__malloc_alloc_meta+0x340>
   1212c:	00fa0a33          	add	s4,s4,a5
   12130:	00cad793          	srli	a5,s5,0xc
   12134:	02fa0a33          	mul	s4,s4,a5
   12138:	0304b703          	ld	a4,48(s1)
   1213c:	015509b3          	add	s3,a0,s5
   12140:	fffa8793          	addi	a5,s5,-1
   12144:	00170713          	addi	a4,a4,1
   12148:	0534b423          	sd	s3,72(s1)
   1214c:	02e4b823          	sd	a4,48(s1)
   12150:	00f9f7b3          	and	a5,s3,a5
   12154:	0344b423          	sd	s4,40(s1)
   12158:	02013a03          	ld	s4,32(sp)
   1215c:	f4078ae3          	beqz	a5,120b0 <__malloc_alloc_meta+0x248>
   12160:	ee1ff06f          	j	12040 <__malloc_alloc_meta+0x1d8>
   12164:	0334bc23          	sd	s3,56(s1)
   12168:	efdff06f          	j	12064 <__malloc_alloc_meta+0x1fc>
   1216c:	01598a33          	add	s4,s3,s5
   12170:	000a0513          	mv	a0,s4
   12174:	0d600893          	li	a7,214
   12178:	00000073          	ecall
   1217c:	eaaa0ae3          	beq	s4,a0,12030 <__malloc_alloc_meta+0x1c8>
   12180:	0284b783          	ld	a5,40(s1)
   12184:	fff00713          	li	a4,-1
   12188:	38e4bc23          	sd	a4,920(s1)
   1218c:	f60788e3          	beqz	a5,120fc <__malloc_alloc_meta+0x294>
   12190:	0484b983          	ld	s3,72(s1)
   12194:	fffa8793          	addi	a5,s5,-1
   12198:	02013a03          	ld	s4,32(sp)
   1219c:	00f9f7b3          	and	a5,s3,a5
   121a0:	ea0790e3          	bnez	a5,12040 <__malloc_alloc_meta+0x1d8>
   121a4:	f0dff06f          	j	120b0 <__malloc_alloc_meta+0x248>
   121a8:	02813983          	ld	s3,40(sp)
   121ac:	02013a03          	ld	s4,32(sp)
   121b0:	01813a83          	ld	s5,24(sp)
   121b4:	d21ff06f          	j	11ed4 <__malloc_alloc_meta+0x6c>
   121b8:	03313423          	sd	s3,40(sp)
   121bc:	03413023          	sd	s4,32(sp)
   121c0:	01513c23          	sd	s5,24(sp)
   121c4:	d01fe0ef          	jal	10ec4 <__stack_chk_fail>

00000000000121c8 <alloc_slot>:
   121c8:	fa010113          	addi	sp,sp,-96
   121cc:	03513423          	sd	s5,40(sp)
   121d0:	00a50a93          	addi	s5,a0,10
   121d4:	03413823          	sd	s4,48(sp)
   121d8:	003a9693          	slli	a3,s5,0x3
   121dc:	0000da17          	auipc	s4,0xd
   121e0:	10ca0a13          	addi	s4,s4,268 # 1f2e8 <__malloc_context>
   121e4:	05213023          	sd	s2,64(sp)
   121e8:	01713c23          	sd	s7,24(sp)
   121ec:	04113c23          	sd	ra,88(sp)
   121f0:	00da06b3          	add	a3,s4,a3
   121f4:	0006b783          	ld	a5,0(a3)
   121f8:	00050913          	mv	s2,a0
   121fc:	00058b93          	mv	s7,a1
   12200:	1a078663          	beqz	a5,123ac <alloc_slot+0x1e4>
   12204:	0187a603          	lw	a2,24(a5)
   12208:	0006071b          	sext.w	a4,a2
   1220c:	0e061a63          	bnez	a2,12300 <alloc_slot+0x138>
   12210:	01c7a703          	lw	a4,28(a5)
   12214:	0087b603          	ld	a2,8(a5)
   12218:	16070063          	beqz	a4,12378 <alloc_slot+0x1b0>
   1221c:	00c6b023          	sd	a2,0(a3)
   12220:	02063703          	ld	a4,32(a2)
   12224:	01c62683          	lw	a3,28(a2)
   12228:	00200793          	li	a5,2
   1222c:	00e797bb          	sllw	a5,a5,a4
   12230:	fff7879b          	addiw	a5,a5,-1
   12234:	0006859b          	sext.w	a1,a3
   12238:	7cd78263          	beq	a5,a3,129fc <alloc_slot+0x834>
   1223c:	01063883          	ld	a7,16(a2)
   12240:	00200793          	li	a5,2
   12244:	0088b703          	ld	a4,8(a7)
   12248:	00e797bb          	sllw	a5,a5,a4
   1224c:	fff7879b          	addiw	a5,a5,-1
   12250:	00b7f7b3          	and	a5,a5,a1
   12254:	01f77713          	andi	a4,a4,31
   12258:	00079e63          	bnez	a5,12274 <alloc_slot+0xac>
   1225c:	00863303          	ld	t1,8(a2)
   12260:	04660ee3          	beq	a2,t1,12abc <alloc_slot+0x8f4>
   12264:	003a9793          	slli	a5,s5,0x3
   12268:	00fa07b3          	add	a5,s4,a5
   1226c:	0067b023          	sd	t1,0(a5)
   12270:	00030613          	mv	a2,t1
   12274:	01862783          	lw	a5,24(a2)
   12278:	0e079063          	bnez	a5,12358 <alloc_slot+0x190>
   1227c:	01063783          	ld	a5,16(a2)
   12280:	00200813          	li	a6,2
   12284:	01c60513          	addi	a0,a2,28
   12288:	0087b783          	ld	a5,8(a5)
   1228c:	00f8183b          	sllw	a6,a6,a5
   12290:	fff8089b          	addiw	a7,a6,-1
   12294:	4100083b          	negw	a6,a6
   12298:	01c62783          	lw	a5,28(a2)
   1229c:	0007871b          	sext.w	a4,a5
   122a0:	0107f7b3          	and	a5,a5,a6
   122a4:	160526af          	lr.w.aqrl	a3,(a0)
   122a8:	00e69663          	bne	a3,a4,122b4 <alloc_slot+0xec>
   122ac:	1ef525af          	sc.w.aqrl	a1,a5,(a0)
   122b0:	fe059ae3          	bnez	a1,122a4 <alloc_slot+0xdc>
   122b4:	0006879b          	sext.w	a5,a3
   122b8:	fef710e3          	bne	a4,a5,12298 <alloc_slot+0xd0>
   122bc:	01177733          	and	a4,a4,a7
   122c0:	00e62c23          	sw	a4,24(a2)
   122c4:	08070a63          	beqz	a4,12358 <alloc_slot+0x190>
   122c8:	02063783          	ld	a5,32(a2)
   122cc:	01f00593          	li	a1,31
   122d0:	0067d793          	srli	a5,a5,0x6
   122d4:	03f7f693          	andi	a3,a5,63
   122d8:	ff96869b          	addiw	a3,a3,-7
   122dc:	03f7f793          	andi	a5,a5,63
   122e0:	00d5ee63          	bltu	a1,a3,122fc <alloc_slot+0x134>
   122e4:	ff97879b          	addiw	a5,a5,-7
   122e8:	00fa07b3          	add	a5,s4,a5
   122ec:	3707c683          	lbu	a3,880(a5)
   122f0:	00068663          	beqz	a3,122fc <alloc_slot+0x134>
   122f4:	fff6869b          	addiw	a3,a3,-1
   122f8:	36d78823          	sb	a3,880(a5)
   122fc:	00060793          	mv	a5,a2
   12300:	40e006bb          	negw	a3,a4
   12304:	00e6f6b3          	and	a3,a3,a4
   12308:	40d7073b          	subw	a4,a4,a3
   1230c:	00e7ac23          	sw	a4,24(a5)
   12310:	08068e63          	beqz	a3,123ac <alloc_slot+0x1e4>
   12314:	40d007bb          	negw	a5,a3
   12318:	076be737          	lui	a4,0x76be
   1231c:	6297071b          	addiw	a4,a4,1577 # 76be629 <__BSS_END__+0x769e9c9>
   12320:	00d7f7b3          	and	a5,a5,a3
   12324:	02e787bb          	mulw	a5,a5,a4
   12328:	0000a717          	auipc	a4,0xa
   1232c:	35870713          	addi	a4,a4,856 # 1c680 <debruijn32.0>
   12330:	01b7d79b          	srliw	a5,a5,0x1b
   12334:	00f707b3          	add	a5,a4,a5
   12338:	0007c503          	lbu	a0,0(a5)
   1233c:	05813083          	ld	ra,88(sp)
   12340:	04013903          	ld	s2,64(sp)
   12344:	03013a03          	ld	s4,48(sp)
   12348:	02813a83          	ld	s5,40(sp)
   1234c:	01813b83          	ld	s7,24(sp)
   12350:	06010113          	addi	sp,sp,96
   12354:	00008067          	ret
   12358:	04813823          	sd	s0,80(sp)
   1235c:	04913423          	sd	s1,72(sp)
   12360:	03313c23          	sd	s3,56(sp)
   12364:	03613023          	sd	s6,32(sp)
   12368:	01813823          	sd	s8,16(sp)
   1236c:	01913423          	sd	s9,8(sp)
   12370:	00000023          	sb	zero,0(zero) # 0 <exit-0x10158>
   12374:	00100073          	ebreak
   12378:	00c786e3          	beq	a5,a2,12b84 <alloc_slot+0x9bc>
   1237c:	0007b703          	ld	a4,0(a5)
   12380:	00c73423          	sd	a2,8(a4)
   12384:	0007b703          	ld	a4,0(a5)
   12388:	00e63023          	sd	a4,0(a2)
   1238c:	0006b703          	ld	a4,0(a3)
   12390:	02e780e3          	beq	a5,a4,12bb0 <alloc_slot+0x9e8>
   12394:	003a9713          	slli	a4,s5,0x3
   12398:	0007b023          	sd	zero,0(a5)
   1239c:	0007b423          	sd	zero,8(a5)
   123a0:	00ea07b3          	add	a5,s4,a4
   123a4:	0007b603          	ld	a2,0(a5)
   123a8:	e6061ce3          	bnez	a2,12220 <alloc_slot+0x58>
   123ac:	04813823          	sd	s0,80(sp)
   123b0:	01913423          	sd	s9,8(sp)
   123b4:	00191413          	slli	s0,s2,0x1
   123b8:	0000ac97          	auipc	s9,0xa
   123bc:	310c8c93          	addi	s9,s9,784 # 1c6c8 <__malloc_size_classes>
   123c0:	008c87b3          	add	a5,s9,s0
   123c4:	03313c23          	sd	s3,56(sp)
   123c8:	0007d983          	lhu	s3,0(a5)
   123cc:	04913423          	sd	s1,72(sp)
   123d0:	a99ff0ef          	jal	11e68 <__malloc_alloc_meta>
   123d4:	0049999b          	slliw	s3,s3,0x4
   123d8:	00050493          	mv	s1,a0
   123dc:	6a050e63          	beqz	a0,12a98 <alloc_slot+0x8d0>
   123e0:	01813823          	sd	s8,16(sp)
   123e4:	03a90c13          	addi	s8,s2,58
   123e8:	003c1793          	slli	a5,s8,0x3
   123ec:	03613023          	sd	s6,32(sp)
   123f0:	00fa07b3          	add	a5,s4,a5
   123f4:	00800693          	li	a3,8
   123f8:	0007b703          	ld	a4,0(a5)
   123fc:	a881b603          	ld	a2,-1400(gp) # 1f288 <__libc+0x30>
   12400:	1f26c863          	blt	a3,s2,125f0 <alloc_slot+0x428>
   12404:	01240433          	add	s0,s0,s2
   12408:	0000a797          	auipc	a5,0xa
   1240c:	2a078793          	addi	a5,a5,672 # 1c6a8 <small_cnt_tab>
   12410:	008787b3          	add	a5,a5,s0
   12414:	0007c403          	lbu	s0,0(a5)
   12418:	0024169b          	slliw	a3,s0,0x2
   1241c:	00d77a63          	bgeu	a4,a3,12430 <alloc_slot+0x268>
   12420:	0017c403          	lbu	s0,1(a5)
   12424:	0024169b          	slliw	a3,s0,0x2
   12428:	00d77463          	bgeu	a4,a3,12430 <alloc_slot+0x268>
   1242c:	0027c403          	lbu	s0,2(a5)
   12430:	00100693          	li	a3,1
   12434:	00165793          	srli	a5,a2,0x1
   12438:	20d40c63          	beq	s0,a3,12650 <alloc_slot+0x488>
   1243c:	028985b3          	mul	a1,s3,s0
   12440:	00040b13          	mv	s6,s0
   12444:	01058513          	addi	a0,a1,16
   12448:	36a7fa63          	bgeu	a5,a0,127bc <alloc_slot+0x5f4>
   1244c:	0024131b          	slliw	t1,s0,0x2
   12450:	ff99069b          	addiw	a3,s2,-7
   12454:	01f00893          	li	a7,31
   12458:	e781c783          	lbu	a5,-392(gp) # 1f678 <__malloc_context+0x390>
   1245c:	00000813          	li	a6,0
   12460:	00d8ee63          	bltu	a7,a3,1247c <alloc_slot+0x2b4>
   12464:	00da06b3          	add	a3,s4,a3
   12468:	3506ce03          	lbu	t3,848(a3)
   1246c:	3706c803          	lbu	a6,880(a3)
   12470:	5c0e1663          	bnez	t3,12a3c <alloc_slot+0x874>
   12474:	06300693          	li	a3,99
   12478:	0106b833          	sltu	a6,a3,a6
   1247c:	0ff00693          	li	a3,255
   12480:	1ed78063          	beq	a5,a3,12660 <alloc_slot+0x498>
   12484:	0017879b          	addiw	a5,a5,1
   12488:	0ff7f793          	zext.b	a5,a5
   1248c:	38fa0823          	sb	a5,912(s4)
   12490:	00197793          	andi	a5,s2,1
   12494:	fff60693          	addi	a3,a2,-1
   12498:	1e079663          	bnez	a5,12684 <alloc_slot+0x4bc>
   1249c:	01f00793          	li	a5,31
   124a0:	2327c463          	blt	a5,s2,126c8 <alloc_slot+0x500>
   124a4:	0019079b          	addiw	a5,s2,1
   124a8:	03a78793          	addi	a5,a5,58
   124ac:	00379793          	slli	a5,a5,0x3
   124b0:	00fa07b3          	add	a5,s4,a5
   124b4:	0007b783          	ld	a5,0(a5)
   124b8:	00f70733          	add	a4,a4,a5
   124bc:	20676863          	bltu	a4,t1,126cc <alloc_slot+0x504>
   124c0:	ff000b13          	li	s6,-16
   124c4:	40bb0b33          	sub	s6,s6,a1
   124c8:	00db7b33          	and	s6,s6,a3
   124cc:	00ab0b33          	add	s6,s6,a0
   124d0:	00081663          	bnez	a6,124dc <alloc_slot+0x314>
   124d4:	00700793          	li	a5,7
   124d8:	6c87d863          	bge	a5,s0,12ba8 <alloc_slot+0x9e0>
   124dc:	00000793          	li	a5,0
   124e0:	fff00713          	li	a4,-1
   124e4:	02200693          	li	a3,34
   124e8:	00300613          	li	a2,3
   124ec:	000b0593          	mv	a1,s6
   124f0:	00000513          	li	a0,0
   124f4:	34c010ef          	jal	13840 <__mmap>
   124f8:	fff00793          	li	a5,-1
   124fc:	56f50063          	beq	a0,a5,12a5c <alloc_slot+0x894>
   12500:	000017b7          	lui	a5,0x1
   12504:	ff078793          	addi	a5,a5,-16 # ff0 <exit-0xf168>
   12508:	0337d7b3          	divu	a5,a5,s3
   1250c:	0204b703          	ld	a4,32(s1)
   12510:	00cb5b13          	srli	s6,s6,0xc
   12514:	00cb1b13          	slli	s6,s6,0xc
   12518:	03471713          	slli	a4,a4,0x34
   1251c:	03475713          	srli	a4,a4,0x34
   12520:	01676733          	or	a4,a4,s6
   12524:	02e4b023          	sd	a4,32(s1)
   12528:	0000d697          	auipc	a3,0xd
   1252c:	dcc6a683          	lw	a3,-564(a3) # 1f2f4 <__malloc_context+0xc>
   12530:	fff4071b          	addiw	a4,s0,-1
   12534:	0016869b          	addiw	a3,a3,1
   12538:	00da2623          	sw	a3,12(s4)
   1253c:	fff7879b          	addiw	a5,a5,-1
   12540:	0087c463          	blt	a5,s0,12548 <alloc_slot+0x380>
   12544:	00070793          	mv	a5,a4
   12548:	0007869b          	sext.w	a3,a5
   1254c:	1607ca63          	bltz	a5,126c0 <alloc_slot+0x4f8>
   12550:	00040b13          	mv	s6,s0
   12554:	003c1613          	slli	a2,s8,0x3
   12558:	00ca0633          	add	a2,s4,a2
   1255c:	00063803          	ld	a6,0(a2)
   12560:	00200793          	li	a5,2
   12564:	00d795bb          	sllw	a1,a5,a3
   12568:	01680833          	add	a6,a6,s6
   1256c:	01063023          	sd	a6,0(a2)
   12570:	fff5861b          	addiw	a2,a1,-1
   12574:	00c4ac23          	sw	a2,24(s1)
   12578:	0184a603          	lw	a2,24(s1)
   1257c:	00e797bb          	sllw	a5,a5,a4
   12580:	00a4b823          	sd	a0,16(s1)
   12584:	40c787bb          	subw	a5,a5,a2
   12588:	fff7879b          	addiw	a5,a5,-1
   1258c:	00f4ae23          	sw	a5,28(s1)
   12590:	00953023          	sd	s1,0(a0)
   12594:	0104b583          	ld	a1,16(s1)
   12598:	01f6f693          	andi	a3,a3,31
   1259c:	03f97793          	andi	a5,s2,63
   125a0:	0085c603          	lbu	a2,8(a1)
   125a4:	01f77713          	andi	a4,a4,31
   125a8:	02076713          	ori	a4,a4,32
   125ac:	fe067613          	andi	a2,a2,-32
   125b0:	00d666b3          	or	a3,a2,a3
   125b4:	00d58423          	sb	a3,8(a1)
   125b8:	0204d603          	lhu	a2,32(s1)
   125bc:	0184a683          	lw	a3,24(s1)
   125c0:	0067979b          	slliw	a5,a5,0x6
   125c4:	fffff5b7          	lui	a1,0xfffff
   125c8:	00e7e7b3          	or	a5,a5,a4
   125cc:	00b67733          	and	a4,a2,a1
   125d0:	0084b603          	ld	a2,8(s1)
   125d4:	00e7e7b3          	or	a5,a5,a4
   125d8:	fff6871b          	addiw	a4,a3,-1
   125dc:	02f49023          	sh	a5,32(s1)
   125e0:	00e4ac23          	sw	a4,24(s1)
   125e4:	16060863          	beqz	a2,12754 <alloc_slot+0x58c>
   125e8:	00000023          	sb	zero,0(zero) # 0 <exit-0x10158>
   125ec:	00100073          	ebreak
   125f0:	0000a797          	auipc	a5,0xa
   125f4:	0b078793          	addi	a5,a5,176 # 1c6a0 <med_cnt_tab>
   125f8:	00397693          	andi	a3,s2,3
   125fc:	00d787b3          	add	a5,a5,a3
   12600:	0007c403          	lbu	s0,0(a5)
   12604:	00147793          	andi	a5,s0,1
   12608:	0004041b          	sext.w	s0,s0
   1260c:	00078a63          	beqz	a5,12620 <alloc_slot+0x458>
   12610:	4100006f          	j	12a20 <alloc_slot+0x858>
   12614:	4014541b          	sraiw	s0,s0,0x1
   12618:	00147793          	andi	a5,s0,1
   1261c:	40079263          	bnez	a5,12a20 <alloc_slot+0x858>
   12620:	0024179b          	slliw	a5,s0,0x2
   12624:	fef768e3          	bltu	a4,a5,12614 <alloc_slot+0x44c>
   12628:	033407b3          	mul	a5,s0,s3
   1262c:	001006b7          	lui	a3,0x100
   12630:	54d7e263          	bltu	a5,a3,12b74 <alloc_slot+0x9ac>
   12634:	001006b7          	lui	a3,0x100
   12638:	4014541b          	sraiw	s0,s0,0x1
   1263c:	033407b3          	mul	a5,s0,s3
   12640:	fed7fce3          	bgeu	a5,a3,12638 <alloc_slot+0x470>
   12644:	00100693          	li	a3,1
   12648:	00165793          	srli	a5,a2,0x1
   1264c:	ded418e3          	bne	s0,a3,1243c <alloc_slot+0x274>
   12650:	01098513          	addi	a0,s3,16
   12654:	3ca7ee63          	bltu	a5,a0,12a30 <alloc_slot+0x868>
   12658:	00200413          	li	s0,2
   1265c:	de1ff06f          	j	1243c <alloc_slot+0x274>
   12660:	e201bc23          	sd	zero,-456(gp) # 1f638 <__malloc_context+0x350>
   12664:	e401b023          	sd	zero,-448(gp) # 1f640 <__malloc_context+0x358>
   12668:	e401b423          	sd	zero,-440(gp) # 1f648 <__malloc_context+0x360>
   1266c:	e401b823          	sd	zero,-432(gp) # 1f650 <__malloc_context+0x368>
   12670:	00100793          	li	a5,1
   12674:	38fa0823          	sb	a5,912(s4)
   12678:	00197793          	andi	a5,s2,1
   1267c:	fff60693          	addi	a3,a2,-1
   12680:	e0078ee3          	beqz	a5,1249c <alloc_slot+0x2d4>
   12684:	e2677ee3          	bgeu	a4,t1,124c0 <alloc_slot+0x2f8>
   12688:	0a081c63          	bnez	a6,12740 <alloc_slot+0x578>
   1268c:	00397793          	andi	a5,s2,3
   12690:	00100813          	li	a6,1
   12694:	51079063          	bne	a5,a6,12b94 <alloc_slot+0x9cc>
   12698:	00361793          	slli	a5,a2,0x3
   1269c:	4eb7fc63          	bgeu	a5,a1,12b94 <alloc_slot+0x9cc>
   126a0:	00199593          	slli	a1,s3,0x1
   126a4:	ff000793          	li	a5,-16
   126a8:	40b787b3          	sub	a5,a5,a1
   126ac:	00d7f7b3          	and	a5,a5,a3
   126b0:	01058593          	addi	a1,a1,16 # fffffffffffff010 <__BSS_END__+0xfffffffffffdf3b0>
   126b4:	00b787b3          	add	a5,a5,a1
   126b8:	00200413          	li	s0,2
   126bc:	0500006f          	j	1270c <alloc_slot+0x544>
   126c0:	00000693          	li	a3,0
   126c4:	e8dff06f          	j	12550 <alloc_slot+0x388>
   126c8:	de677ce3          	bgeu	a4,t1,124c0 <alloc_slot+0x2f8>
   126cc:	06081a63          	bnez	a6,12740 <alloc_slot+0x578>
   126d0:	00397813          	andi	a6,s2,3
   126d4:	00200793          	li	a5,2
   126d8:	4af80a63          	beq	a6,a5,12b8c <alloc_slot+0x9c4>
   126dc:	00361793          	slli	a5,a2,0x3
   126e0:	4cb7ee63          	bltu	a5,a1,12bbc <alloc_slot+0x9f4>
   126e4:	00161793          	slli	a5,a2,0x1
   126e8:	4ab7f663          	bgeu	a5,a1,12b94 <alloc_slot+0x9cc>
   126ec:	00299593          	slli	a1,s3,0x2
   126f0:	013585b3          	add	a1,a1,s3
   126f4:	ff000793          	li	a5,-16
   126f8:	40b787b3          	sub	a5,a5,a1
   126fc:	00d7f7b3          	and	a5,a5,a3
   12700:	01058593          	addi	a1,a1,16
   12704:	00b787b3          	add	a5,a5,a1
   12708:	00500413          	li	s0,5
   1270c:	fec00b13          	li	s6,-20
   12710:	417b0b33          	sub	s6,s6,s7
   12714:	00db7b33          	and	s6,s6,a3
   12718:	014b8b93          	addi	s7,s7,20
   1271c:	017b0b33          	add	s6,s6,s7
   12720:	01098693          	addi	a3,s3,16
   12724:	00db6a63          	bltu	s6,a3,12738 <alloc_slot+0x570>
   12728:	00261613          	slli	a2,a2,0x2
   1272c:	44cb6863          	bltu	s6,a2,12b7c <alloc_slot+0x9b4>
   12730:	0014169b          	slliw	a3,s0,0x1
   12734:	44d77463          	bgeu	a4,a3,12b7c <alloc_slot+0x9b4>
   12738:	00100413          	li	s0,1
   1273c:	da1ff06f          	j	124dc <alloc_slot+0x314>
   12740:	ff000b13          	li	s6,-16
   12744:	40bb0b33          	sub	s6,s6,a1
   12748:	00db7b33          	and	s6,s6,a3
   1274c:	00ab0b33          	add	s6,s6,a0
   12750:	d8dff06f          	j	124dc <alloc_slot+0x314>
   12754:	0004b783          	ld	a5,0(s1)
   12758:	e80798e3          	bnez	a5,125e8 <alloc_slot+0x420>
   1275c:	003a9a93          	slli	s5,s5,0x3
   12760:	015a0ab3          	add	s5,s4,s5
   12764:	000ab783          	ld	a5,0(s5)
   12768:	28078263          	beqz	a5,129ec <alloc_slot+0x824>
   1276c:	00f4b423          	sd	a5,8(s1)
   12770:	0007b783          	ld	a5,0(a5)
   12774:	00f4b023          	sd	a5,0(s1)
   12778:	0097b423          	sd	s1,8(a5)
   1277c:	0084b783          	ld	a5,8(s1)
   12780:	0097b023          	sd	s1,0(a5)
   12784:	05013403          	ld	s0,80(sp)
   12788:	05813083          	ld	ra,88(sp)
   1278c:	04813483          	ld	s1,72(sp)
   12790:	03813983          	ld	s3,56(sp)
   12794:	02013b03          	ld	s6,32(sp)
   12798:	01013c03          	ld	s8,16(sp)
   1279c:	00813c83          	ld	s9,8(sp)
   127a0:	04013903          	ld	s2,64(sp)
   127a4:	03013a03          	ld	s4,48(sp)
   127a8:	02813a83          	ld	s5,40(sp)
   127ac:	01813b83          	ld	s7,24(sp)
   127b0:	00000513          	li	a0,0
   127b4:	06010113          	addi	sp,sp,96
   127b8:	00008067          	ret
   127bc:	0045d793          	srli	a5,a1,0x4
   127c0:	00900713          	li	a4,9
   127c4:	00c58593          	addi	a1,a1,12
   127c8:	00078b9b          	sext.w	s7,a5
   127cc:	08f77863          	bgeu	a4,a5,1285c <alloc_slot+0x694>
   127d0:	00178693          	addi	a3,a5,1
   127d4:	0016d71b          	srliw	a4,a3,0x1
   127d8:	0026d79b          	srliw	a5,a3,0x2
   127dc:	00e7e7b3          	or	a5,a5,a4
   127e0:	0027d71b          	srliw	a4,a5,0x2
   127e4:	00e7e7b3          	or	a5,a5,a4
   127e8:	0047d71b          	srliw	a4,a5,0x4
   127ec:	00e7e7b3          	or	a5,a5,a4
   127f0:	0087d71b          	srliw	a4,a5,0x8
   127f4:	00e7e7b3          	or	a5,a5,a4
   127f8:	0107d71b          	srliw	a4,a5,0x10
   127fc:	00e7e7b3          	or	a5,a5,a4
   12800:	0017871b          	addiw	a4,a5,1
   12804:	076be637          	lui	a2,0x76be
   12808:	fff7c793          	not	a5,a5
   1280c:	00f777b3          	and	a5,a4,a5
   12810:	6296071b          	addiw	a4,a2,1577 # 76be629 <__BSS_END__+0x769e9c9>
   12814:	02e787bb          	mulw	a5,a5,a4
   12818:	0000a717          	auipc	a4,0xa
   1281c:	e6870713          	addi	a4,a4,-408 # 1c680 <debruijn32.0>
   12820:	01b7d79b          	srliw	a5,a5,0x1b
   12824:	00f707b3          	add	a5,a4,a5
   12828:	0007c783          	lbu	a5,0(a5)
   1282c:	fff7879b          	addiw	a5,a5,-1
   12830:	00279b9b          	slliw	s7,a5,0x2
   12834:	001b871b          	addiw	a4,s7,1
   12838:	00171713          	slli	a4,a4,0x1
   1283c:	00ec8733          	add	a4,s9,a4
   12840:	00075783          	lhu	a5,0(a4)
   12844:	00d7f463          	bgeu	a5,a3,1284c <alloc_slot+0x684>
   12848:	002b8b9b          	addiw	s7,s7,2
   1284c:	001b9793          	slli	a5,s7,0x1
   12850:	00fc87b3          	add	a5,s9,a5
   12854:	0007d783          	lhu	a5,0(a5)
   12858:	2ed7e663          	bltu	a5,a3,12b44 <alloc_slot+0x97c>
   1285c:	000b8513          	mv	a0,s7
   12860:	969ff0ef          	jal	121c8 <alloc_slot>
   12864:	fff00793          	li	a5,-1
   12868:	00050713          	mv	a4,a0
   1286c:	1ef50863          	beq	a0,a5,12a5c <alloc_slot+0x894>
   12870:	00ab8693          	addi	a3,s7,10
   12874:	00369693          	slli	a3,a3,0x3
   12878:	00da06b3          	add	a3,s4,a3
   1287c:	0006b603          	ld	a2,0(a3) # 100000 <__BSS_END__+0xe03a0>
   12880:	001b9793          	slli	a5,s7,0x1
   12884:	00fc87b3          	add	a5,s9,a5
   12888:	0007d583          	lhu	a1,0(a5)
   1288c:	02063783          	ld	a5,32(a2)
   12890:	0045959b          	slliw	a1,a1,0x4
   12894:	01f7f693          	andi	a3,a5,31
   12898:	ffc5859b          	addiw	a1,a1,-4
   1289c:	00069663          	bnez	a3,128a8 <alloc_slot+0x6e0>
   128a0:	000016b7          	lui	a3,0x1
   128a4:	2ad7f463          	bgeu	a5,a3,12b4c <alloc_slot+0x984>
   128a8:	0057d793          	srli	a5,a5,0x5
   128ac:	07e7f793          	andi	a5,a5,126
   128b0:	00fc87b3          	add	a5,s9,a5
   128b4:	0007d783          	lhu	a5,0(a5)
   128b8:	0047979b          	slliw	a5,a5,0x4
   128bc:	02f70533          	mul	a0,a4,a5
   128c0:	01063683          	ld	a3,16(a2)
   128c4:	40b78833          	sub	a6,a5,a1
   128c8:	ffc80813          	addi	a6,a6,-4
   128cc:	01068313          	addi	t1,a3,16 # 1010 <exit-0xf148>
   128d0:	ffc78793          	addi	a5,a5,-4
   128d4:	00485e13          	srli	t3,a6,0x4
   128d8:	00a30533          	add	a0,t1,a0
   128dc:	ffd54683          	lbu	a3,-3(a0)
   128e0:	00f507b3          	add	a5,a0,a5
   128e4:	1c068663          	beqz	a3,12ab0 <alloc_slot+0x8e8>
   128e8:	ffe55683          	lhu	a3,-2(a0)
   128ec:	0016869b          	addiw	a3,a3,1
   128f0:	0ff6f693          	zext.b	a3,a3
   128f4:	ffc54883          	lbu	a7,-4(a0)
   128f8:	ce0898e3          	bnez	a7,125e8 <alloc_slot+0x420>
   128fc:	02de7a63          	bgeu	t3,a3,12930 <alloc_slot+0x768>
   12900:	00585813          	srli	a6,a6,0x5
   12904:	01c86833          	or	a6,a6,t3
   12908:	00285e93          	srli	t4,a6,0x2
   1290c:	01d86833          	or	a6,a6,t4
   12910:	00485e93          	srli	t4,a6,0x4
   12914:	01d86833          	or	a6,a6,t4
   12918:	0106f6b3          	and	a3,a3,a6
   1291c:	0006869b          	sext.w	a3,a3
   12920:	00de7863          	bgeu	t3,a3,12930 <alloc_slot+0x768>
   12924:	41c686bb          	subw	a3,a3,t3
   12928:	fff6869b          	addiw	a3,a3,-1
   1292c:	cade6ee3          	bltu	t3,a3,125e8 <alloc_slot+0x420>
   12930:	08069c63          	bnez	a3,129c8 <alloc_slot+0x800>
   12934:	40650633          	sub	a2,a0,t1
   12938:	00465613          	srli	a2,a2,0x4
   1293c:	0ff77713          	zext.b	a4,a4
   12940:	40a786b3          	sub	a3,a5,a0
   12944:	fec51f23          	sh	a2,-2(a0)
   12948:	fee50ea3          	sb	a4,-3(a0)
   1294c:	40b686bb          	subw	a3,a3,a1
   12950:	02068463          	beqz	a3,12978 <alloc_slot+0x7b0>
   12954:	40d0073b          	negw	a4,a3
   12958:	00e78733          	add	a4,a5,a4
   1295c:	00070023          	sb	zero,0(a4)
   12960:	00400713          	li	a4,4
   12964:	1ed75c63          	bge	a4,a3,12b5c <alloc_slot+0x994>
   12968:	fed7ae23          	sw	a3,-4(a5)
   1296c:	fe078da3          	sb	zero,-5(a5)
   12970:	ffd54703          	lbu	a4,-3(a0)
   12974:	0a000893          	li	a7,160
   12978:	01f77713          	andi	a4,a4,31
   1297c:	0117073b          	addw	a4,a4,a7
   12980:	fee50ea3          	sb	a4,-3(a0)
   12984:	0204b683          	ld	a3,32(s1)
   12988:	00c50713          	addi	a4,a0,12
   1298c:	00000793          	li	a5,0
   12990:	03469693          	slli	a3,a3,0x34
   12994:	0346d693          	srli	a3,a3,0x34
   12998:	02d4b023          	sd	a3,32(s1)
   1299c:	ffd54683          	lbu	a3,-3(a0)
   129a0:	01f6f693          	andi	a3,a3,31
   129a4:	fc06e693          	ori	a3,a3,-64
   129a8:	fed50ea3          	sb	a3,-3(a0)
   129ac:	00070023          	sb	zero,0(a4)
   129b0:	0017879b          	addiw	a5,a5,1
   129b4:	01370733          	add	a4,a4,s3
   129b8:	fef45ae3          	bge	s0,a5,129ac <alloc_slot+0x7e4>
   129bc:	fff4071b          	addiw	a4,s0,-1
   129c0:	00070693          	mv	a3,a4
   129c4:	b91ff06f          	j	12554 <alloc_slot+0x38c>
   129c8:	0046981b          	slliw	a6,a3,0x4
   129cc:	fe000313          	li	t1,-32
   129d0:	fe650ea3          	sb	t1,-3(a0)
   129d4:	fed51f23          	sh	a3,-2(a0)
   129d8:	01050533          	add	a0,a0,a6
   129dc:	fe050e23          	sb	zero,-4(a0)
   129e0:	01063683          	ld	a3,16(a2)
   129e4:	01068313          	addi	t1,a3,16
   129e8:	f4dff06f          	j	12934 <alloc_slot+0x76c>
   129ec:	0094b423          	sd	s1,8(s1)
   129f0:	0094b023          	sd	s1,0(s1)
   129f4:	009ab023          	sd	s1,0(s5)
   129f8:	d8dff06f          	j	12784 <alloc_slot+0x5bc>
   129fc:	02077713          	andi	a4,a4,32
   12a00:	86070ae3          	beqz	a4,12274 <alloc_slot+0xac>
   12a04:	00863603          	ld	a2,8(a2)
   12a08:	003a9793          	slli	a5,s5,0x3
   12a0c:	00fa07b3          	add	a5,s4,a5
   12a10:	00c7b023          	sd	a2,0(a5)
   12a14:	01c62583          	lw	a1,28(a2)
   12a18:	0005859b          	sext.w	a1,a1
   12a1c:	821ff06f          	j	1223c <alloc_slot+0x74>
   12a20:	033407b3          	mul	a5,s0,s3
   12a24:	001006b7          	lui	a3,0x100
   12a28:	c0d7f6e3          	bgeu	a5,a3,12634 <alloc_slot+0x46c>
   12a2c:	a05ff06f          	j	12430 <alloc_slot+0x268>
   12a30:	00098593          	mv	a1,s3
   12a34:	00400313          	li	t1,4
   12a38:	a19ff06f          	j	12450 <alloc_slot+0x288>
   12a3c:	41c788bb          	subw	a7,a5,t3
   12a40:	00900e13          	li	t3,9
   12a44:	a31e48e3          	blt	t3,a7,12474 <alloc_slot+0x2ac>
   12a48:	06200893          	li	a7,98
   12a4c:	1908ea63          	bltu	a7,a6,12be0 <alloc_slot+0xa18>
   12a50:	0018089b          	addiw	a7,a6,1
   12a54:	37168823          	sb	a7,880(a3) # 100370 <__BSS_END__+0xe0710>
   12a58:	a1dff06f          	j	12474 <alloc_slot+0x2ac>
   12a5c:	0004b023          	sd	zero,0(s1)
   12a60:	0004b423          	sd	zero,8(s1)
   12a64:	0004b823          	sd	zero,16(s1)
   12a68:	010a3783          	ld	a5,16(s4)
   12a6c:	0004bc23          	sd	zero,24(s1)
   12a70:	0204b023          	sd	zero,32(s1)
   12a74:	16078c63          	beqz	a5,12bec <alloc_slot+0xa24>
   12a78:	00f4b423          	sd	a5,8(s1)
   12a7c:	0007b783          	ld	a5,0(a5)
   12a80:	00f4b023          	sd	a5,0(s1)
   12a84:	0097b423          	sd	s1,8(a5)
   12a88:	0084b783          	ld	a5,8(s1)
   12a8c:	0097b023          	sd	s1,0(a5)
   12a90:	02013b03          	ld	s6,32(sp)
   12a94:	01013c03          	ld	s8,16(sp)
   12a98:	05013403          	ld	s0,80(sp)
   12a9c:	04813483          	ld	s1,72(sp)
   12aa0:	03813983          	ld	s3,56(sp)
   12aa4:	00813c83          	ld	s9,8(sp)
   12aa8:	fff00513          	li	a0,-1
   12aac:	891ff06f          	j	1233c <alloc_slot+0x174>
   12ab0:	0000d697          	auipc	a3,0xd
   12ab4:	8446c683          	lbu	a3,-1980(a3) # 1f2f4 <__malloc_context+0xc>
   12ab8:	e3dff06f          	j	128f4 <alloc_slot+0x72c>
   12abc:	02033803          	ld	a6,32(t1)
   12ac0:	0027079b          	addiw	a5,a4,2
   12ac4:	0000a697          	auipc	a3,0xa
   12ac8:	c0468693          	addi	a3,a3,-1020 # 1c6c8 <__malloc_size_classes>
   12acc:	00585713          	srli	a4,a6,0x5
   12ad0:	07e77713          	andi	a4,a4,126
   12ad4:	00e68733          	add	a4,a3,a4
   12ad8:	00075583          	lhu	a1,0(a4)
   12adc:	00001537          	lui	a0,0x1
   12ae0:	0045959b          	slliw	a1,a1,0x4
   12ae4:	02b786bb          	mulw	a3,a5,a1
   12ae8:	0106869b          	addiw	a3,a3,16
   12aec:	00d5873b          	addw	a4,a1,a3
   12af0:	fff7061b          	addiw	a2,a4,-1
   12af4:	00c6c6b3          	xor	a3,a3,a2
   12af8:	00a6de63          	bge	a3,a0,12b14 <alloc_slot+0x94c>
   12afc:	00070693          	mv	a3,a4
   12b00:	00b7073b          	addw	a4,a4,a1
   12b04:	fff7061b          	addiw	a2,a4,-1
   12b08:	00c6c6b3          	xor	a3,a3,a2
   12b0c:	0017879b          	addiw	a5,a5,1
   12b10:	fea6c6e3          	blt	a3,a0,12afc <alloc_slot+0x934>
   12b14:	01f87713          	andi	a4,a6,31
   12b18:	0017071b          	addiw	a4,a4,1
   12b1c:	00070693          	mv	a3,a4
   12b20:	04e7c663          	blt	a5,a4,12b6c <alloc_slot+0x9a4>
   12b24:	0088c783          	lbu	a5,8(a7)
   12b28:	fff6869b          	addiw	a3,a3,-1
   12b2c:	01f6f693          	andi	a3,a3,31
   12b30:	fe07f793          	andi	a5,a5,-32
   12b34:	00d7e7b3          	or	a5,a5,a3
   12b38:	00f88423          	sb	a5,8(a7)
   12b3c:	00030613          	mv	a2,t1
   12b40:	f34ff06f          	j	12274 <alloc_slot+0xac>
   12b44:	001b8b9b          	addiw	s7,s7,1
   12b48:	d15ff06f          	j	1285c <alloc_slot+0x694>
   12b4c:	00c7d793          	srli	a5,a5,0xc
   12b50:	00c79793          	slli	a5,a5,0xc
   12b54:	ff078793          	addi	a5,a5,-16
   12b58:	d65ff06f          	j	128bc <alloc_slot+0x6f4>
   12b5c:	0056969b          	slliw	a3,a3,0x5
   12b60:	ffd54703          	lbu	a4,-3(a0) # ffd <exit-0xf15b>
   12b64:	0ff6f893          	zext.b	a7,a3
   12b68:	e11ff06f          	j	12978 <alloc_slot+0x7b0>
   12b6c:	00078693          	mv	a3,a5
   12b70:	fb5ff06f          	j	12b24 <alloc_slot+0x95c>
   12b74:	00165793          	srli	a5,a2,0x1
   12b78:	8c5ff06f          	j	1243c <alloc_slot+0x274>
   12b7c:	00078b13          	mv	s6,a5
   12b80:	95dff06f          	j	124dc <alloc_slot+0x314>
   12b84:	0006b023          	sd	zero,0(a3)
   12b88:	80dff06f          	j	12394 <alloc_slot+0x1cc>
   12b8c:	00261793          	slli	a5,a2,0x2
   12b90:	02b7e663          	bltu	a5,a1,12bbc <alloc_slot+0x9f4>
   12b94:	ff000b13          	li	s6,-16
   12b98:	40bb0b33          	sub	s6,s6,a1
   12b9c:	00db7b33          	and	s6,s6,a3
   12ba0:	00ab0b33          	add	s6,s6,a0
   12ba4:	931ff06f          	j	124d4 <alloc_slot+0x30c>
   12ba8:	000b0793          	mv	a5,s6
   12bac:	b61ff06f          	j	1270c <alloc_slot+0x544>
   12bb0:	0087b703          	ld	a4,8(a5)
   12bb4:	00e6b023          	sd	a4,0(a3)
   12bb8:	fdcff06f          	j	12394 <alloc_slot+0x1cc>
   12bbc:	00199593          	slli	a1,s3,0x1
   12bc0:	013585b3          	add	a1,a1,s3
   12bc4:	ff000793          	li	a5,-16
   12bc8:	40b787b3          	sub	a5,a5,a1
   12bcc:	00d7f7b3          	and	a5,a5,a3
   12bd0:	01058593          	addi	a1,a1,16
   12bd4:	00b787b3          	add	a5,a5,a1
   12bd8:	00300413          	li	s0,3
   12bdc:	b31ff06f          	j	1270c <alloc_slot+0x544>
   12be0:	f9600893          	li	a7,-106
   12be4:	37168823          	sb	a7,880(a3)
   12be8:	88dff06f          	j	12474 <alloc_slot+0x2ac>
   12bec:	0094b423          	sd	s1,8(s1)
   12bf0:	0094b023          	sd	s1,0(s1)
   12bf4:	009a3823          	sd	s1,16(s4)
   12bf8:	02013b03          	ld	s6,32(sp)
   12bfc:	01013c03          	ld	s8,16(sp)
   12c00:	e99ff06f          	j	12a98 <alloc_slot+0x8d0>

0000000000012c04 <__libc_malloc_impl>:
   12c04:	ffffe7b7          	lui	a5,0xffffe
   12c08:	fd010113          	addi	sp,sp,-48
   12c0c:	ffd78793          	addi	a5,a5,-3 # ffffffffffffdffd <__BSS_END__+0xfffffffffffde39d>
   12c10:	02113423          	sd	ra,40(sp)
   12c14:	0017d793          	srli	a5,a5,0x1
   12c18:	32a7e463          	bltu	a5,a0,12f40 <__libc_malloc_impl+0x33c>
   12c1c:	000207b7          	lui	a5,0x20
   12c20:	00913c23          	sd	s1,24(sp)
   12c24:	02813023          	sd	s0,32(sp)
   12c28:	01213823          	sd	s2,16(sp)
   12c2c:	01313423          	sd	s3,8(sp)
   12c30:	01413023          	sd	s4,0(sp)
   12c34:	feb78793          	addi	a5,a5,-21 # 1ffeb <__BSS_END__+0x38b>
   12c38:	00050493          	mv	s1,a0
   12c3c:	18a7ec63          	bltu	a5,a0,12dd4 <__libc_malloc_impl+0x1d0>
   12c40:	00350413          	addi	s0,a0,3
   12c44:	00445413          	srli	s0,s0,0x4
   12c48:	00900793          	li	a5,9
   12c4c:	3c87fa63          	bgeu	a5,s0,13020 <__libc_malloc_impl+0x41c>
   12c50:	00140693          	addi	a3,s0,1
   12c54:	0016d71b          	srliw	a4,a3,0x1
   12c58:	0026d79b          	srliw	a5,a3,0x2
   12c5c:	00e7e7b3          	or	a5,a5,a4
   12c60:	0027d71b          	srliw	a4,a5,0x2
   12c64:	00e7e7b3          	or	a5,a5,a4
   12c68:	0047d71b          	srliw	a4,a5,0x4
   12c6c:	00e7e7b3          	or	a5,a5,a4
   12c70:	0087d71b          	srliw	a4,a5,0x8
   12c74:	00e7e7b3          	or	a5,a5,a4
   12c78:	0017871b          	addiw	a4,a5,1
   12c7c:	076be637          	lui	a2,0x76be
   12c80:	fff7c793          	not	a5,a5
   12c84:	00f777b3          	and	a5,a4,a5
   12c88:	6296071b          	addiw	a4,a2,1577 # 76be629 <__BSS_END__+0x769e9c9>
   12c8c:	02e787bb          	mulw	a5,a5,a4
   12c90:	0000a617          	auipc	a2,0xa
   12c94:	9f060613          	addi	a2,a2,-1552 # 1c680 <debruijn32.0>
   12c98:	0000a717          	auipc	a4,0xa
   12c9c:	a3070713          	addi	a4,a4,-1488 # 1c6c8 <__malloc_size_classes>
   12ca0:	01b7d79b          	srliw	a5,a5,0x1b
   12ca4:	00f607b3          	add	a5,a2,a5
   12ca8:	0007c403          	lbu	s0,0(a5)
   12cac:	fff4041b          	addiw	s0,s0,-1
   12cb0:	0024141b          	slliw	s0,s0,0x2
   12cb4:	0014079b          	addiw	a5,s0,1
   12cb8:	00179793          	slli	a5,a5,0x1
   12cbc:	00f707b3          	add	a5,a4,a5
   12cc0:	0007d783          	lhu	a5,0(a5)
   12cc4:	00d7f463          	bgeu	a5,a3,12ccc <__libc_malloc_impl+0xc8>
   12cc8:	0024041b          	addiw	s0,s0,2
   12ccc:	00141793          	slli	a5,s0,0x1
   12cd0:	00f70733          	add	a4,a4,a5
   12cd4:	00075783          	lhu	a5,0(a4)
   12cd8:	30d7e063          	bltu	a5,a3,12fd8 <__libc_malloc_impl+0x3d4>
   12cdc:	a5b18783          	lb	a5,-1445(gp) # 1f25b <__libc+0x3>
   12ce0:	30079263          	bnez	a5,12fe4 <__libc_malloc_impl+0x3e0>
   12ce4:	00a40793          	addi	a5,s0,10
   12ce8:	00379793          	slli	a5,a5,0x3
   12cec:	0000ca17          	auipc	s4,0xc
   12cf0:	5fca0a13          	addi	s4,s4,1532 # 1f2e8 <__malloc_context>
   12cf4:	00fa07b3          	add	a5,s4,a5
   12cf8:	0007b983          	ld	s3,0(a5)
   12cfc:	26098063          	beqz	s3,12f5c <__libc_malloc_impl+0x358>
   12d00:	0189a783          	lw	a5,24(s3)
   12d04:	40f0073b          	negw	a4,a5
   12d08:	00f77733          	and	a4,a4,a5
   12d0c:	0007879b          	sext.w	a5,a5
   12d10:	26070063          	beqz	a4,12f70 <__libc_malloc_impl+0x36c>
   12d14:	40e006bb          	negw	a3,a4
   12d18:	076be637          	lui	a2,0x76be
   12d1c:	6296061b          	addiw	a2,a2,1577 # 76be629 <__BSS_END__+0x769e9c9>
   12d20:	00e6f6b3          	and	a3,a3,a4
   12d24:	02c686bb          	mulw	a3,a3,a2
   12d28:	40e787bb          	subw	a5,a5,a4
   12d2c:	0000a617          	auipc	a2,0xa
   12d30:	95460613          	addi	a2,a2,-1708 # 1c680 <debruijn32.0>
   12d34:	00f9ac23          	sw	a5,24(s3)
   12d38:	0000c417          	auipc	s0,0xc
   12d3c:	5bc42403          	lw	s0,1468(s0) # 1f2f4 <__malloc_context+0xc>
   12d40:	01b6d79b          	srliw	a5,a3,0x1b
   12d44:	00f607b3          	add	a5,a2,a5
   12d48:	0007ca03          	lbu	s4,0(a5)
   12d4c:	000a091b          	sext.w	s2,s4
   12d50:	e8818513          	addi	a0,gp,-376 # 1f688 <__malloc_lock>
   12d54:	5b0040ef          	jal	17304 <__unlock>
   12d58:	0209b783          	ld	a5,32(s3)
   12d5c:	01f7f713          	andi	a4,a5,31
   12d60:	00071663          	bnez	a4,12d6c <__libc_malloc_impl+0x168>
   12d64:	00001737          	lui	a4,0x1
   12d68:	24e7f063          	bgeu	a5,a4,12fa8 <__libc_malloc_impl+0x3a4>
   12d6c:	0057d793          	srli	a5,a5,0x5
   12d70:	07e7f793          	andi	a5,a5,126
   12d74:	0000a717          	auipc	a4,0xa
   12d78:	95470713          	addi	a4,a4,-1708 # 1c6c8 <__malloc_size_classes>
   12d7c:	00f707b3          	add	a5,a4,a5
   12d80:	0007d783          	lhu	a5,0(a5)
   12d84:	0047979b          	slliw	a5,a5,0x4
   12d88:	03478533          	mul	a0,a5,s4
   12d8c:	0109b683          	ld	a3,16(s3)
   12d90:	40978633          	sub	a2,a5,s1
   12d94:	ffc60613          	addi	a2,a2,-4
   12d98:	01068693          	addi	a3,a3,16
   12d9c:	ffc78793          	addi	a5,a5,-4
   12da0:	0ff47713          	zext.b	a4,s0
   12da4:	00465593          	srli	a1,a2,0x4
   12da8:	00a68533          	add	a0,a3,a0
   12dac:	ffd54803          	lbu	a6,-3(a0)
   12db0:	00f507b3          	add	a5,a0,a5
   12db4:	00080863          	beqz	a6,12dc4 <__libc_malloc_impl+0x1c0>
   12db8:	ffe55703          	lhu	a4,-2(a0)
   12dbc:	0017071b          	addiw	a4,a4,1
   12dc0:	0ff77713          	zext.b	a4,a4
   12dc4:	ffc54803          	lbu	a6,-4(a0)
   12dc8:	0a080e63          	beqz	a6,12e84 <__libc_malloc_impl+0x280>
   12dcc:	00000023          	sb	zero,0(zero) # 0 <exit-0x10158>
   12dd0:	00100073          	ebreak
   12dd4:	01450913          	addi	s2,a0,20
   12dd8:	00000793          	li	a5,0
   12ddc:	00090593          	mv	a1,s2
   12de0:	fff00713          	li	a4,-1
   12de4:	02200693          	li	a3,34
   12de8:	00300613          	li	a2,3
   12dec:	00000513          	li	a0,0
   12df0:	251000ef          	jal	13840 <__mmap>
   12df4:	fff00793          	li	a5,-1
   12df8:	00050413          	mv	s0,a0
   12dfc:	20f50463          	beq	a0,a5,13004 <__libc_malloc_impl+0x400>
   12e00:	a5b18783          	lb	a5,-1445(gp) # 1f25b <__libc+0x3>
   12e04:	22079e63          	bnez	a5,13040 <__libc_malloc_impl+0x43c>
   12e08:	e781c783          	lbu	a5,-392(gp) # 1f678 <__malloc_context+0x390>
   12e0c:	0ff00713          	li	a4,255
   12e10:	0000ca17          	auipc	s4,0xc
   12e14:	4d8a0a13          	addi	s4,s4,1240 # 1f2e8 <__malloc_context>
   12e18:	20e78863          	beq	a5,a4,13028 <__libc_malloc_impl+0x424>
   12e1c:	0017879b          	addiw	a5,a5,1
   12e20:	0ff7f793          	zext.b	a5,a5
   12e24:	38fa0823          	sb	a5,912(s4)
   12e28:	840ff0ef          	jal	11e68 <__malloc_alloc_meta>
   12e2c:	00050993          	mv	s3,a0
   12e30:	1c050063          	beqz	a0,12ff0 <__libc_malloc_impl+0x3ec>
   12e34:	00853823          	sd	s0,16(a0)
   12e38:	000017b7          	lui	a5,0x1
   12e3c:	00a43023          	sd	a0,0(s0)
   12e40:	01378793          	addi	a5,a5,19 # 1013 <exit-0xf145>
   12e44:	0000c717          	auipc	a4,0xc
   12e48:	4b072703          	lw	a4,1200(a4) # 1f2f4 <__malloc_context+0xc>
   12e4c:	00f487b3          	add	a5,s1,a5
   12e50:	00c7d793          	srli	a5,a5,0xc
   12e54:	000016b7          	lui	a3,0x1
   12e58:	00c79793          	slli	a5,a5,0xc
   12e5c:	fe068693          	addi	a3,a3,-32 # fe0 <exit-0xf178>
   12e60:	00052e23          	sw	zero,28(a0)
   12e64:	00d7e7b3          	or	a5,a5,a3
   12e68:	0017041b          	addiw	s0,a4,1
   12e6c:	008a2623          	sw	s0,12(s4)
   12e70:	00052c23          	sw	zero,24(a0)
   12e74:	02f53023          	sd	a5,32(a0)
   12e78:	00000a13          	li	s4,0
   12e7c:	00000913          	li	s2,0
   12e80:	ed1ff06f          	j	12d50 <__libc_malloc_impl+0x14c>
   12e84:	02e5f463          	bgeu	a1,a4,12eac <__libc_malloc_impl+0x2a8>
   12e88:	00565613          	srli	a2,a2,0x5
   12e8c:	00b66633          	or	a2,a2,a1
   12e90:	00265893          	srli	a7,a2,0x2
   12e94:	01166633          	or	a2,a2,a7
   12e98:	00465893          	srli	a7,a2,0x4
   12e9c:	01166633          	or	a2,a2,a7
   12ea0:	00c77733          	and	a4,a4,a2
   12ea4:	0007071b          	sext.w	a4,a4
   12ea8:	12e5e063          	bltu	a1,a4,12fc8 <__libc_malloc_impl+0x3c4>
   12eac:	02070263          	beqz	a4,12ed0 <__libc_malloc_impl+0x2cc>
   12eb0:	0047169b          	slliw	a3,a4,0x4
   12eb4:	fe000613          	li	a2,-32
   12eb8:	fee51f23          	sh	a4,-2(a0)
   12ebc:	fec50ea3          	sb	a2,-3(a0)
   12ec0:	00d50533          	add	a0,a0,a3
   12ec4:	fe050e23          	sb	zero,-4(a0)
   12ec8:	0109b683          	ld	a3,16(s3)
   12ecc:	01068693          	addi	a3,a3,16
   12ed0:	40d506b3          	sub	a3,a0,a3
   12ed4:	0046d693          	srli	a3,a3,0x4
   12ed8:	0ff97713          	zext.b	a4,s2
   12edc:	40a78633          	sub	a2,a5,a0
   12ee0:	fed51f23          	sh	a3,-2(a0)
   12ee4:	fee50ea3          	sb	a4,-3(a0)
   12ee8:	409606bb          	subw	a3,a2,s1
   12eec:	02068463          	beqz	a3,12f14 <__libc_malloc_impl+0x310>
   12ef0:	40d0073b          	negw	a4,a3
   12ef4:	00e78733          	add	a4,a5,a4
   12ef8:	00070023          	sb	zero,0(a4)
   12efc:	00400713          	li	a4,4
   12f00:	0ad75c63          	bge	a4,a3,12fb8 <__libc_malloc_impl+0x3b4>
   12f04:	fed7ae23          	sw	a3,-4(a5)
   12f08:	fe078da3          	sb	zero,-5(a5)
   12f0c:	ffd54703          	lbu	a4,-3(a0)
   12f10:	0a000813          	li	a6,160
   12f14:	01f77713          	andi	a4,a4,31
   12f18:	0107073b          	addw	a4,a4,a6
   12f1c:	fee50ea3          	sb	a4,-3(a0)
   12f20:	02013403          	ld	s0,32(sp)
   12f24:	02813083          	ld	ra,40(sp)
   12f28:	01813483          	ld	s1,24(sp)
   12f2c:	01013903          	ld	s2,16(sp)
   12f30:	00813983          	ld	s3,8(sp)
   12f34:	00013a03          	ld	s4,0(sp)
   12f38:	03010113          	addi	sp,sp,48
   12f3c:	00008067          	ret
   12f40:	f91fd0ef          	jal	10ed0 <__errno_location>
   12f44:	00c00793          	li	a5,12
   12f48:	00f52023          	sw	a5,0(a0)
   12f4c:	00000513          	li	a0,0
   12f50:	02813083          	ld	ra,40(sp)
   12f54:	03010113          	addi	sp,sp,48
   12f58:	00008067          	ret
   12f5c:	ffc4079b          	addiw	a5,s0,-4
   12f60:	01b00713          	li	a4,27
   12f64:	00f76663          	bltu	a4,a5,12f70 <__libc_malloc_impl+0x36c>
   12f68:	00600793          	li	a5,6
   12f6c:	0ef41063          	bne	s0,a5,1304c <__libc_malloc_impl+0x448>
   12f70:	00048593          	mv	a1,s1
   12f74:	00040513          	mv	a0,s0
   12f78:	a50ff0ef          	jal	121c8 <alloc_slot>
   12f7c:	fff00793          	li	a5,-1
   12f80:	00050913          	mv	s2,a0
   12f84:	12f50863          	beq	a0,a5,130b4 <__libc_malloc_impl+0x4b0>
   12f88:	00a40413          	addi	s0,s0,10
   12f8c:	00341413          	slli	s0,s0,0x3
   12f90:	008a0433          	add	s0,s4,s0
   12f94:	00043983          	ld	s3,0(s0)
   12f98:	00050a13          	mv	s4,a0
   12f9c:	0000c417          	auipc	s0,0xc
   12fa0:	35842403          	lw	s0,856(s0) # 1f2f4 <__malloc_context+0xc>
   12fa4:	dadff06f          	j	12d50 <__libc_malloc_impl+0x14c>
   12fa8:	00c7d793          	srli	a5,a5,0xc
   12fac:	00c79793          	slli	a5,a5,0xc
   12fb0:	ff078793          	addi	a5,a5,-16
   12fb4:	dd5ff06f          	j	12d88 <__libc_malloc_impl+0x184>
   12fb8:	0056969b          	slliw	a3,a3,0x5
   12fbc:	ffd54703          	lbu	a4,-3(a0)
   12fc0:	0ff6f813          	zext.b	a6,a3
   12fc4:	f51ff06f          	j	12f14 <__libc_malloc_impl+0x310>
   12fc8:	40b7073b          	subw	a4,a4,a1
   12fcc:	fff7071b          	addiw	a4,a4,-1
   12fd0:	dee5eee3          	bltu	a1,a4,12dcc <__libc_malloc_impl+0x1c8>
   12fd4:	ed9ff06f          	j	12eac <__libc_malloc_impl+0x2a8>
   12fd8:	a5b18783          	lb	a5,-1445(gp) # 1f25b <__libc+0x3>
   12fdc:	0014041b          	addiw	s0,s0,1
   12fe0:	d00782e3          	beqz	a5,12ce4 <__libc_malloc_impl+0xe0>
   12fe4:	e8818513          	addi	a0,gp,-376 # 1f688 <__malloc_lock>
   12fe8:	1fc040ef          	jal	171e4 <__lock>
   12fec:	cf9ff06f          	j	12ce4 <__libc_malloc_impl+0xe0>
   12ff0:	e8818513          	addi	a0,gp,-376 # 1f688 <__malloc_lock>
   12ff4:	310040ef          	jal	17304 <__unlock>
   12ff8:	00090593          	mv	a1,s2
   12ffc:	00040513          	mv	a0,s0
   13000:	189000ef          	jal	13988 <__munmap>
   13004:	02013403          	ld	s0,32(sp)
   13008:	01813483          	ld	s1,24(sp)
   1300c:	01013903          	ld	s2,16(sp)
   13010:	00813983          	ld	s3,8(sp)
   13014:	00013a03          	ld	s4,0(sp)
   13018:	00000513          	li	a0,0
   1301c:	f35ff06f          	j	12f50 <__libc_malloc_impl+0x34c>
   13020:	0004041b          	sext.w	s0,s0
   13024:	cb9ff06f          	j	12cdc <__libc_malloc_impl+0xd8>
   13028:	e201bc23          	sd	zero,-456(gp) # 1f638 <__malloc_context+0x350>
   1302c:	e401b023          	sd	zero,-448(gp) # 1f640 <__malloc_context+0x358>
   13030:	e401b423          	sd	zero,-440(gp) # 1f648 <__malloc_context+0x360>
   13034:	e401b823          	sd	zero,-432(gp) # 1f650 <__malloc_context+0x368>
   13038:	00100793          	li	a5,1
   1303c:	de9ff06f          	j	12e24 <__libc_malloc_impl+0x220>
   13040:	e8818513          	addi	a0,gp,-376 # 1f688 <__malloc_lock>
   13044:	1a0040ef          	jal	171e4 <__lock>
   13048:	dc1ff06f          	j	12e08 <__libc_malloc_impl+0x204>
   1304c:	00147793          	andi	a5,s0,1
   13050:	f20790e3          	bnez	a5,12f70 <__libc_malloc_impl+0x36c>
   13054:	03a40793          	addi	a5,s0,58
   13058:	00379793          	slli	a5,a5,0x3
   1305c:	00fa07b3          	add	a5,s4,a5
   13060:	0007b783          	ld	a5,0(a5)
   13064:	f00796e3          	bnez	a5,12f70 <__libc_malloc_impl+0x36c>
   13068:	00146713          	ori	a4,s0,1
   1306c:	00a70793          	addi	a5,a4,10
   13070:	00379793          	slli	a5,a5,0x3
   13074:	00fa07b3          	add	a5,s4,a5
   13078:	0007b983          	ld	s3,0(a5)
   1307c:	03a70793          	addi	a5,a4,58
   13080:	00379793          	slli	a5,a5,0x3
   13084:	00fa07b3          	add	a5,s4,a5
   13088:	0007b783          	ld	a5,0(a5)
   1308c:	04098263          	beqz	s3,130d0 <__libc_malloc_impl+0x4cc>
   13090:	0189a683          	lw	a3,24(s3)
   13094:	02069663          	bnez	a3,130c0 <__libc_malloc_impl+0x4bc>
   13098:	01c9a683          	lw	a3,28(s3)
   1309c:	02069263          	bnez	a3,130c0 <__libc_malloc_impl+0x4bc>
   130a0:	00378793          	addi	a5,a5,3
   130a4:	00c00693          	li	a3,12
   130a8:	ecf6e4e3          	bltu	a3,a5,12f70 <__libc_malloc_impl+0x36c>
   130ac:	00070413          	mv	s0,a4
   130b0:	c51ff06f          	j	12d00 <__libc_malloc_impl+0xfc>
   130b4:	e8818513          	addi	a0,gp,-376 # 1f688 <__malloc_lock>
   130b8:	24c040ef          	jal	17304 <__unlock>
   130bc:	f49ff06f          	j	13004 <__libc_malloc_impl+0x400>
   130c0:	00c00693          	li	a3,12
   130c4:	eaf6e6e3          	bltu	a3,a5,12f70 <__libc_malloc_impl+0x36c>
   130c8:	00070413          	mv	s0,a4
   130cc:	c35ff06f          	j	12d00 <__libc_malloc_impl+0xfc>
   130d0:	00378793          	addi	a5,a5,3
   130d4:	00c00693          	li	a3,12
   130d8:	e8f6ece3          	bltu	a3,a5,12f70 <__libc_malloc_impl+0x36c>
   130dc:	00070413          	mv	s0,a4
   130e0:	e91ff06f          	j	12f70 <__libc_malloc_impl+0x36c>

00000000000130e4 <__malloc_allzerop>:
   130e4:	00f57793          	andi	a5,a0,15
   130e8:	02079063          	bnez	a5,13108 <__malloc_allzerop+0x24>
   130ec:	ffd54703          	lbu	a4,-3(a0)
   130f0:	ffc54783          	lbu	a5,-4(a0)
   130f4:	ffe55583          	lhu	a1,-2(a0)
   130f8:	01f77813          	andi	a6,a4,31
   130fc:	01f77713          	andi	a4,a4,31
   13100:	00078e63          	beqz	a5,1311c <__malloc_allzerop+0x38>
   13104:	00058663          	beqz	a1,13110 <__malloc_allzerop+0x2c>
   13108:	00000023          	sb	zero,0(zero) # 0 <exit-0x10158>
   1310c:	00100073          	ebreak
   13110:	ff852583          	lw	a1,-8(a0)
   13114:	000107b7          	lui	a5,0x10
   13118:	fef5c8e3          	blt	a1,a5,13108 <__malloc_allzerop+0x24>
   1311c:	0045979b          	slliw	a5,a1,0x4
   13120:	40f50533          	sub	a0,a0,a5
   13124:	ff053783          	ld	a5,-16(a0)
   13128:	ff050513          	addi	a0,a0,-16
   1312c:	0107b683          	ld	a3,16(a5) # 10010 <exit-0x148>
   13130:	fcd51ce3          	bne	a0,a3,13108 <__malloc_allzerop+0x24>
   13134:	0207b683          	ld	a3,32(a5)
   13138:	01f6f613          	andi	a2,a3,31
   1313c:	fce646e3          	blt	a2,a4,13108 <__malloc_allzerop+0x24>
   13140:	0187a603          	lw	a2,24(a5)
   13144:	00e6563b          	srlw	a2,a2,a4
   13148:	00167613          	andi	a2,a2,1
   1314c:	fa061ee3          	bnez	a2,13108 <__malloc_allzerop+0x24>
   13150:	01c7a603          	lw	a2,28(a5)
   13154:	00e6573b          	srlw	a4,a2,a4
   13158:	00177713          	andi	a4,a4,1
   1315c:	fa0716e3          	bnez	a4,13108 <__malloc_allzerop+0x24>
   13160:	fffff737          	lui	a4,0xfffff
   13164:	00e7f7b3          	and	a5,a5,a4
   13168:	0007b703          	ld	a4,0(a5)
   1316c:	0000c797          	auipc	a5,0xc
   13170:	17c7b783          	ld	a5,380(a5) # 1f2e8 <__malloc_context>
   13174:	f8f71ae3          	bne	a4,a5,13108 <__malloc_allzerop+0x24>
   13178:	0066d793          	srli	a5,a3,0x6
   1317c:	03f7f793          	andi	a5,a5,63
   13180:	02f00713          	li	a4,47
   13184:	06f76e63          	bltu	a4,a5,13200 <__malloc_allzerop+0x11c>
   13188:	00179713          	slli	a4,a5,0x1
   1318c:	00009897          	auipc	a7,0x9
   13190:	53c88893          	addi	a7,a7,1340 # 1c6c8 <__malloc_size_classes>
   13194:	00e88733          	add	a4,a7,a4
   13198:	00075603          	lhu	a2,0(a4) # fffffffffffff000 <__BSS_END__+0xfffffffffffdf3a0>
   1319c:	0007879b          	sext.w	a5,a5
   131a0:	02c8073b          	mulw	a4,a6,a2
   131a4:	f6e5c2e3          	blt	a1,a4,13108 <__malloc_allzerop+0x24>
   131a8:	00e6063b          	addw	a2,a2,a4
   131ac:	f4c5dee3          	bge	a1,a2,13108 <__malloc_allzerop+0x24>
   131b0:	00001737          	lui	a4,0x1
   131b4:	00e6ea63          	bltu	a3,a4,131c8 <__malloc_allzerop+0xe4>
   131b8:	00c6d713          	srli	a4,a3,0xc
   131bc:	00871713          	slli	a4,a4,0x8
   131c0:	fff70713          	addi	a4,a4,-1 # fff <exit-0xf159>
   131c4:	f4b762e3          	bltu	a4,a1,13108 <__malloc_allzerop+0x24>
   131c8:	01f6f713          	andi	a4,a3,31
   131cc:	00000513          	li	a0,0
   131d0:	04071e63          	bnez	a4,1322c <__malloc_allzerop+0x148>
   131d4:	00001737          	lui	a4,0x1
   131d8:	04e6ea63          	bltu	a3,a4,1322c <__malloc_allzerop+0x148>
   131dc:	00179793          	slli	a5,a5,0x1
   131e0:	00f888b3          	add	a7,a7,a5
   131e4:	0008d783          	lhu	a5,0(a7)
   131e8:	00c6d513          	srli	a0,a3,0xc
   131ec:	00c51513          	slli	a0,a0,0xc
   131f0:	0047979b          	slliw	a5,a5,0x4
   131f4:	ff050513          	addi	a0,a0,-16
   131f8:	00f53533          	sltu	a0,a0,a5
   131fc:	00008067          	ret
   13200:	000017b7          	lui	a5,0x1
   13204:	fc078793          	addi	a5,a5,-64 # fc0 <exit-0xf198>
   13208:	00f6f733          	and	a4,a3,a5
   1320c:	00001637          	lui	a2,0x1
   13210:	eef71ce3          	bne	a4,a5,13108 <__malloc_allzerop+0x24>
   13214:	00c6ea63          	bltu	a3,a2,13228 <__malloc_allzerop+0x144>
   13218:	00c6d693          	srli	a3,a3,0xc
   1321c:	00869693          	slli	a3,a3,0x8
   13220:	fff68693          	addi	a3,a3,-1
   13224:	eeb6e2e3          	bltu	a3,a1,13108 <__malloc_allzerop+0x24>
   13228:	00100513          	li	a0,1
   1322c:	00008067          	ret

0000000000013230 <__getauxval>:
   13230:	01700793          	li	a5,23
   13234:	04f50663          	beq	a0,a5,13280 <__getauxval+0x50>
   13238:	a601b783          	ld	a5,-1440(gp) # 1f260 <__libc+0x8>
   1323c:	0007b703          	ld	a4,0(a5)
   13240:	00070a63          	beqz	a4,13254 <__getauxval+0x24>
   13244:	02e50a63          	beq	a0,a4,13278 <__getauxval+0x48>
   13248:	0107b703          	ld	a4,16(a5)
   1324c:	01078793          	addi	a5,a5,16
   13250:	fe071ae3          	bnez	a4,13244 <__getauxval+0x14>
   13254:	ff010113          	addi	sp,sp,-16
   13258:	00113423          	sd	ra,8(sp)
   1325c:	c75fd0ef          	jal	10ed0 <__errno_location>
   13260:	00200793          	li	a5,2
   13264:	00f52023          	sw	a5,0(a0)
   13268:	00813083          	ld	ra,8(sp)
   1326c:	00000513          	li	a0,0
   13270:	01010113          	addi	sp,sp,16
   13274:	00008067          	ret
   13278:	0087b503          	ld	a0,8(a5)
   1327c:	00008067          	ret
   13280:	a5a1c503          	lbu	a0,-1446(gp) # 1f25a <__libc+0x2>
   13284:	00008067          	ret

0000000000013288 <__getopt_msg>:
   13288:	fd010113          	addi	sp,sp,-48
   1328c:	02813023          	sd	s0,32(sp)
   13290:	00050413          	mv	s0,a0
   13294:	00058513          	mv	a0,a1
   13298:	00913c23          	sd	s1,24(sp)
   1329c:	01213823          	sd	s2,16(sp)
   132a0:	01313423          	sd	s3,8(sp)
   132a4:	02113423          	sd	ra,40(sp)
   132a8:	00060993          	mv	s3,a2
   132ac:	00068913          	mv	s2,a3
   132b0:	8c4fe0ef          	jal	11374 <__lctrans_cur>
   132b4:	89c1a783          	lw	a5,-1892(gp) # 1f09c <__stderr_FILE+0x8c>
   132b8:	00050493          	mv	s1,a0
   132bc:	0807de63          	bgez	a5,13358 <__getopt_msg+0xd0>
   132c0:	00040513          	mv	a0,s0
   132c4:	0000c597          	auipc	a1,0xc
   132c8:	d4c58593          	addi	a1,a1,-692 # 1f010 <__stderr_FILE>
   132cc:	239000ef          	jal	13d04 <fputs>
   132d0:	02055063          	bgez	a0,132f0 <__getopt_msg+0x68>
   132d4:	02813083          	ld	ra,40(sp)
   132d8:	02013403          	ld	s0,32(sp)
   132dc:	01813483          	ld	s1,24(sp)
   132e0:	01013903          	ld	s2,16(sp)
   132e4:	00813983          	ld	s3,8(sp)
   132e8:	03010113          	addi	sp,sp,48
   132ec:	00008067          	ret
   132f0:	00048513          	mv	a0,s1
   132f4:	5d9030ef          	jal	170cc <strlen>
   132f8:	00050593          	mv	a1,a0
   132fc:	0000c697          	auipc	a3,0xc
   13300:	d1468693          	addi	a3,a3,-748 # 1f010 <__stderr_FILE>
   13304:	00048513          	mv	a0,s1
   13308:	00100613          	li	a2,1
   1330c:	369000ef          	jal	13e74 <fwrite>
   13310:	fc0502e3          	beqz	a0,132d4 <__getopt_msg+0x4c>
   13314:	00098513          	mv	a0,s3
   13318:	0000c697          	auipc	a3,0xc
   1331c:	cf868693          	addi	a3,a3,-776 # 1f010 <__stderr_FILE>
   13320:	00090613          	mv	a2,s2
   13324:	00100593          	li	a1,1
   13328:	34d000ef          	jal	13e74 <fwrite>
   1332c:	faa914e3          	bne	s2,a0,132d4 <__getopt_msg+0x4c>
   13330:	02013403          	ld	s0,32(sp)
   13334:	02813083          	ld	ra,40(sp)
   13338:	01813483          	ld	s1,24(sp)
   1333c:	01013903          	ld	s2,16(sp)
   13340:	00813983          	ld	s3,8(sp)
   13344:	0000c597          	auipc	a1,0xc
   13348:	ccc58593          	addi	a1,a1,-820 # 1f010 <__stderr_FILE>
   1334c:	00a00513          	li	a0,10
   13350:	03010113          	addi	sp,sp,48
   13354:	6ed0006f          	j	14240 <putc>
   13358:	0000c517          	auipc	a0,0xc
   1335c:	cb850513          	addi	a0,a0,-840 # 1f010 <__stderr_FILE>
   13360:	7f4000ef          	jal	13b54 <__lockfile>
   13364:	00050793          	mv	a5,a0
   13368:	0000c597          	auipc	a1,0xc
   1336c:	ca858593          	addi	a1,a1,-856 # 1f010 <__stderr_FILE>
   13370:	00040513          	mv	a0,s0
   13374:	00078413          	mv	s0,a5
   13378:	18d000ef          	jal	13d04 <fputs>
   1337c:	02055663          	bgez	a0,133a8 <__getopt_msg+0x120>
   13380:	f4040ae3          	beqz	s0,132d4 <__getopt_msg+0x4c>
   13384:	02013403          	ld	s0,32(sp)
   13388:	02813083          	ld	ra,40(sp)
   1338c:	01813483          	ld	s1,24(sp)
   13390:	01013903          	ld	s2,16(sp)
   13394:	00813983          	ld	s3,8(sp)
   13398:	0000c517          	auipc	a0,0xc
   1339c:	c7850513          	addi	a0,a0,-904 # 1f010 <__stderr_FILE>
   133a0:	03010113          	addi	sp,sp,48
   133a4:	0910006f          	j	13c34 <__unlockfile>
   133a8:	00048513          	mv	a0,s1
   133ac:	521030ef          	jal	170cc <strlen>
   133b0:	00050593          	mv	a1,a0
   133b4:	0000c697          	auipc	a3,0xc
   133b8:	c5c68693          	addi	a3,a3,-932 # 1f010 <__stderr_FILE>
   133bc:	00048513          	mv	a0,s1
   133c0:	00100613          	li	a2,1
   133c4:	2b1000ef          	jal	13e74 <fwrite>
   133c8:	fa050ce3          	beqz	a0,13380 <__getopt_msg+0xf8>
   133cc:	00098513          	mv	a0,s3
   133d0:	0000c697          	auipc	a3,0xc
   133d4:	c4068693          	addi	a3,a3,-960 # 1f010 <__stderr_FILE>
   133d8:	00090613          	mv	a2,s2
   133dc:	00100593          	li	a1,1
   133e0:	295000ef          	jal	13e74 <fwrite>
   133e4:	f9251ee3          	bne	a0,s2,13380 <__getopt_msg+0xf8>
   133e8:	0000c597          	auipc	a1,0xc
   133ec:	c2858593          	addi	a1,a1,-984 # 1f010 <__stderr_FILE>
   133f0:	00a00513          	li	a0,10
   133f4:	64d000ef          	jal	14240 <putc>
   133f8:	f89ff06f          	j	13380 <__getopt_msg+0xf8>

00000000000133fc <getopt>:
   133fc:	f9010113          	addi	sp,sp,-112
   13400:	04913c23          	sd	s1,88(sp)
   13404:	05213823          	sd	s2,80(sp)
   13408:	05313423          	sd	s3,72(sp)
   1340c:	05413023          	sd	s4,64(sp)
   13410:	03513c23          	sd	s5,56(sp)
   13414:	06113423          	sd	ra,104(sp)
   13418:	0000ca17          	auipc	s4,0xc
   1341c:	b88a3a03          	ld	s4,-1144(s4) # 1efa0 <_GLOBAL_OFFSET_TABLE_+0x48>
   13420:	000a2783          	lw	a5,0(s4)
   13424:	0000ca97          	auipc	s5,0xc
   13428:	b3caba83          	ld	s5,-1220(s5) # 1ef60 <_GLOBAL_OFFSET_TABLE_+0x8>
   1342c:	000ab703          	ld	a4,0(s5)
   13430:	00e13423          	sd	a4,8(sp)
   13434:	00000713          	li	a4,0
   13438:	00050993          	mv	s3,a0
   1343c:	00058913          	mv	s2,a1
   13440:	00060493          	mv	s1,a2
   13444:	0000c717          	auipc	a4,0xc
   13448:	b8473703          	ld	a4,-1148(a4) # 1efc8 <_GLOBAL_OFFSET_TABLE_+0x70>
   1344c:	08078063          	beqz	a5,134cc <getopt+0xd0>
   13450:	00072683          	lw	a3,0(a4)
   13454:	06069c63          	bnez	a3,134cc <getopt+0xd0>
   13458:	1f37dc63          	bge	a5,s3,13650 <getopt+0x254>
   1345c:	00379713          	slli	a4,a5,0x3
   13460:	00e90733          	add	a4,s2,a4
   13464:	00073703          	ld	a4,0(a4)
   13468:	1e070463          	beqz	a4,13650 <getopt+0x254>
   1346c:	00074603          	lbu	a2,0(a4)
   13470:	02d00693          	li	a3,45
   13474:	06d60a63          	beq	a2,a3,134e8 <getopt+0xec>
   13478:	0004c603          	lbu	a2,0(s1)
   1347c:	1cd61a63          	bne	a2,a3,13650 <getopt+0x254>
   13480:	0017879b          	addiw	a5,a5,1
   13484:	0000c697          	auipc	a3,0xc
   13488:	af46b683          	ld	a3,-1292(a3) # 1ef78 <_GLOBAL_OFFSET_TABLE_+0x20>
   1348c:	00fa2023          	sw	a5,0(s4)
   13490:	00e6b023          	sd	a4,0(a3)
   13494:	00100513          	li	a0,1
   13498:	00813703          	ld	a4,8(sp)
   1349c:	000ab783          	ld	a5,0(s5)
   134a0:	00f747b3          	xor	a5,a4,a5
   134a4:	00000713          	li	a4,0
   134a8:	28079063          	bnez	a5,13728 <getopt+0x32c>
   134ac:	06813083          	ld	ra,104(sp)
   134b0:	05813483          	ld	s1,88(sp)
   134b4:	05013903          	ld	s2,80(sp)
   134b8:	04813983          	ld	s3,72(sp)
   134bc:	04013a03          	ld	s4,64(sp)
   134c0:	03813a83          	ld	s5,56(sp)
   134c4:	07010113          	addi	sp,sp,112
   134c8:	00008067          	ret
   134cc:	0000c697          	auipc	a3,0xc
   134d0:	acc6b683          	ld	a3,-1332(a3) # 1ef98 <_GLOBAL_OFFSET_TABLE_+0x40>
   134d4:	00100793          	li	a5,1
   134d8:	00072023          	sw	zero,0(a4)
   134dc:	0006a023          	sw	zero,0(a3)
   134e0:	00fa2023          	sw	a5,0(s4)
   134e4:	f75ff06f          	j	13458 <getopt+0x5c>
   134e8:	00174683          	lbu	a3,1(a4)
   134ec:	16068263          	beqz	a3,13650 <getopt+0x254>
   134f0:	14c68863          	beq	a3,a2,13640 <getopt+0x244>
   134f4:	03713423          	sd	s7,40(sp)
   134f8:	06813023          	sd	s0,96(sp)
   134fc:	03613823          	sd	s6,48(sp)
   13500:	03813023          	sd	s8,32(sp)
   13504:	01913c23          	sd	s9,24(sp)
   13508:	0000cb97          	auipc	s7,0xc
   1350c:	a90bbb83          	ld	s7,-1392(s7) # 1ef98 <_GLOBAL_OFFSET_TABLE_+0x40>
   13510:	000ba583          	lw	a1,0(s7)
   13514:	00059663          	bnez	a1,13520 <getopt+0x124>
   13518:	00100593          	li	a1,1
   1351c:	00bba023          	sw	a1,0(s7)
   13520:	00b705b3          	add	a1,a4,a1
   13524:	00400613          	li	a2,4
   13528:	00010513          	mv	a0,sp
   1352c:	4a4000ef          	jal	139d0 <mbtowc>
   13530:	00050b13          	mv	s6,a0
   13534:	0e054c63          	bltz	a0,1362c <getopt+0x230>
   13538:	000a2703          	lw	a4,0(s4)
   1353c:	000ba683          	lw	a3,0(s7)
   13540:	00371793          	slli	a5,a4,0x3
   13544:	00f907b3          	add	a5,s2,a5
   13548:	0007bc03          	ld	s8,0(a5)
   1354c:	016687bb          	addw	a5,a3,s6
   13550:	00fba023          	sw	a5,0(s7)
   13554:	00fc07b3          	add	a5,s8,a5
   13558:	0007c783          	lbu	a5,0(a5)
   1355c:	00dc0c33          	add	s8,s8,a3
   13560:	0a078e63          	beqz	a5,1361c <getopt+0x220>
   13564:	0004c783          	lbu	a5,0(s1)
   13568:	00012223          	sw	zero,4(sp)
   1356c:	00000413          	li	s0,0
   13570:	fd57879b          	addiw	a5,a5,-43
   13574:	0fd7f793          	andi	a5,a5,253
   13578:	0017b793          	seqz	a5,a5
   1357c:	00f484b3          	add	s1,s1,a5
   13580:	00410c93          	addi	s9,sp,4
   13584:	0140006f          	j	13598 <getopt+0x19c>
   13588:	00a4043b          	addw	s0,s0,a0
   1358c:	00012503          	lw	a0,0(sp)
   13590:	00412783          	lw	a5,4(sp)
   13594:	04a78e63          	beq	a5,a0,135f0 <getopt+0x1f4>
   13598:	00400613          	li	a2,4
   1359c:	008485b3          	add	a1,s1,s0
   135a0:	000c8513          	mv	a0,s9
   135a4:	42c000ef          	jal	139d0 <mbtowc>
   135a8:	fea040e3          	bgtz	a0,13588 <getopt+0x18c>
   135ac:	0014041b          	addiw	s0,s0,1
   135b0:	fc051ee3          	bnez	a0,1358c <getopt+0x190>
   135b4:	00012503          	lw	a0,0(sp)
   135b8:	00412783          	lw	a5,4(sp)
   135bc:	02a78a63          	beq	a5,a0,135f0 <getopt+0x1f4>
   135c0:	0000c797          	auipc	a5,0xc
   135c4:	a287b783          	ld	a5,-1496(a5) # 1efe8 <_GLOBAL_OFFSET_TABLE_+0x90>
   135c8:	00a7a023          	sw	a0,0(a5)
   135cc:	0004c703          	lbu	a4,0(s1)
   135d0:	03a00793          	li	a5,58
   135d4:	00f70a63          	beq	a4,a5,135e8 <getopt+0x1ec>
   135d8:	0000c797          	auipc	a5,0xc
   135dc:	9a87b783          	ld	a5,-1624(a5) # 1ef80 <_GLOBAL_OFFSET_TABLE_+0x28>
   135e0:	0007a783          	lw	a5,0(a5)
   135e4:	0e079e63          	bnez	a5,136e0 <getopt+0x2e4>
   135e8:	03f00513          	li	a0,63
   135ec:	0180006f          	j	13604 <getopt+0x208>
   135f0:	03a00793          	li	a5,58
   135f4:	fcf506e3          	beq	a0,a5,135c0 <getopt+0x1c4>
   135f8:	00848433          	add	s0,s1,s0
   135fc:	00044703          	lbu	a4,0(s0)
   13600:	04f70c63          	beq	a4,a5,13658 <getopt+0x25c>
   13604:	06013403          	ld	s0,96(sp)
   13608:	03013b03          	ld	s6,48(sp)
   1360c:	02813b83          	ld	s7,40(sp)
   13610:	02013c03          	ld	s8,32(sp)
   13614:	01813c83          	ld	s9,24(sp)
   13618:	e81ff06f          	j	13498 <getopt+0x9c>
   1361c:	0017071b          	addiw	a4,a4,1
   13620:	00ea2023          	sw	a4,0(s4)
   13624:	000ba023          	sw	zero,0(s7)
   13628:	f3dff06f          	j	13564 <getopt+0x168>
   1362c:	000107b7          	lui	a5,0x10
   13630:	ffd78793          	addi	a5,a5,-3 # fffd <exit-0x15b>
   13634:	00f12023          	sw	a5,0(sp)
   13638:	00100b13          	li	s6,1
   1363c:	efdff06f          	j	13538 <getopt+0x13c>
   13640:	00274683          	lbu	a3,2(a4)
   13644:	ea0698e3          	bnez	a3,134f4 <getopt+0xf8>
   13648:	0017879b          	addiw	a5,a5,1
   1364c:	00fa2023          	sw	a5,0(s4)
   13650:	fff00513          	li	a0,-1
   13654:	e45ff06f          	j	13498 <getopt+0x9c>
   13658:	0000c697          	auipc	a3,0xc
   1365c:	9206b683          	ld	a3,-1760(a3) # 1ef78 <_GLOBAL_OFFSET_TABLE_+0x20>
   13660:	0006b023          	sd	zero,0(a3)
   13664:	00144583          	lbu	a1,1(s0)
   13668:	000ba603          	lw	a2,0(s7)
   1366c:	000a2783          	lw	a5,0(s4)
   13670:	08e58863          	beq	a1,a4,13700 <getopt+0x304>
   13674:	00379713          	slli	a4,a5,0x3
   13678:	00e90733          	add	a4,s2,a4
   1367c:	00073703          	ld	a4,0(a4)
   13680:	0017879b          	addiw	a5,a5,1
   13684:	00fa2023          	sw	a5,0(s4)
   13688:	00e6b023          	sd	a4,0(a3)
   1368c:	08061663          	bnez	a2,13718 <getopt+0x31c>
   13690:	000ba023          	sw	zero,0(s7)
   13694:	f6f9d8e3          	bge	s3,a5,13604 <getopt+0x208>
   13698:	0000c797          	auipc	a5,0xc
   1369c:	9507b783          	ld	a5,-1712(a5) # 1efe8 <_GLOBAL_OFFSET_TABLE_+0x90>
   136a0:	00a7a023          	sw	a0,0(a5)
   136a4:	0004c503          	lbu	a0,0(s1)
   136a8:	03a00793          	li	a5,58
   136ac:	f4f50ce3          	beq	a0,a5,13604 <getopt+0x208>
   136b0:	0000c797          	auipc	a5,0xc
   136b4:	8d07b783          	ld	a5,-1840(a5) # 1ef80 <_GLOBAL_OFFSET_TABLE_+0x28>
   136b8:	0007a783          	lw	a5,0(a5)
   136bc:	f20786e3          	beqz	a5,135e8 <getopt+0x1ec>
   136c0:	00093503          	ld	a0,0(s2)
   136c4:	000b0693          	mv	a3,s6
   136c8:	000c0613          	mv	a2,s8
   136cc:	00008597          	auipc	a1,0x8
   136d0:	6b458593          	addi	a1,a1,1716 # 1bd80 <values.0+0x238>
   136d4:	bb5ff0ef          	jal	13288 <__getopt_msg>
   136d8:	03f00513          	li	a0,63
   136dc:	f29ff06f          	j	13604 <getopt+0x208>
   136e0:	00093503          	ld	a0,0(s2)
   136e4:	000b0693          	mv	a3,s6
   136e8:	000c0613          	mv	a2,s8
   136ec:	00008597          	auipc	a1,0x8
   136f0:	67c58593          	addi	a1,a1,1660 # 1bd68 <values.0+0x220>
   136f4:	b95ff0ef          	jal	13288 <__getopt_msg>
   136f8:	03f00513          	li	a0,63
   136fc:	f09ff06f          	j	13604 <getopt+0x208>
   13700:	f8060ae3          	beqz	a2,13694 <getopt+0x298>
   13704:	00379713          	slli	a4,a5,0x3
   13708:	00e90733          	add	a4,s2,a4
   1370c:	00073703          	ld	a4,0(a4)
   13710:	0017879b          	addiw	a5,a5,1
   13714:	00fa2023          	sw	a5,0(s4)
   13718:	00c70733          	add	a4,a4,a2
   1371c:	00e6b023          	sd	a4,0(a3)
   13720:	000ba023          	sw	zero,0(s7)
   13724:	f71ff06f          	j	13694 <getopt+0x298>
   13728:	06813023          	sd	s0,96(sp)
   1372c:	03613823          	sd	s6,48(sp)
   13730:	03713423          	sd	s7,40(sp)
   13734:	03813023          	sd	s8,32(sp)
   13738:	01913c23          	sd	s9,24(sp)
   1373c:	f88fd0ef          	jal	10ec4 <__stack_chk_fail>

0000000000013740 <getrlimit>:
   13740:	fb010113          	addi	sp,sp,-80
   13744:	02913c23          	sd	s1,56(sp)
   13748:	03213823          	sd	s2,48(sp)
   1374c:	03313423          	sd	s3,40(sp)
   13750:	00058493          	mv	s1,a1
   13754:	04113423          	sd	ra,72(sp)
   13758:	04813023          	sd	s0,64(sp)
   1375c:	0000c997          	auipc	s3,0xc
   13760:	8049b983          	ld	s3,-2044(s3) # 1ef60 <_GLOBAL_OFFSET_TABLE_+0x8>
   13764:	00050913          	mv	s2,a0
   13768:	00050593          	mv	a1,a0
   1376c:	00048693          	mv	a3,s1
   13770:	0009b783          	ld	a5,0(s3)
   13774:	00f13c23          	sd	a5,24(sp)
   13778:	00000793          	li	a5,0
   1377c:	10500893          	li	a7,261
   13780:	00000513          	li	a0,0
   13784:	00000613          	li	a2,0
   13788:	00000073          	ecall
   1378c:	8d5fd0ef          	jal	11060 <__syscall_ret>
   13790:	0005041b          	sext.w	s0,a0
   13794:	06040863          	beqz	s0,13804 <getrlimit+0xc4>
   13798:	f38fd0ef          	jal	10ed0 <__errno_location>
   1379c:	00052703          	lw	a4,0(a0)
   137a0:	02600793          	li	a5,38
   137a4:	02f70c63          	beq	a4,a5,137dc <getrlimit+0x9c>
   137a8:	01813703          	ld	a4,24(sp)
   137ac:	0009b783          	ld	a5,0(s3)
   137b0:	00f747b3          	xor	a5,a4,a5
   137b4:	00000713          	li	a4,0
   137b8:	04079e63          	bnez	a5,13814 <getrlimit+0xd4>
   137bc:	04813083          	ld	ra,72(sp)
   137c0:	00040513          	mv	a0,s0
   137c4:	04013403          	ld	s0,64(sp)
   137c8:	03813483          	ld	s1,56(sp)
   137cc:	03013903          	ld	s2,48(sp)
   137d0:	02813983          	ld	s3,40(sp)
   137d4:	05010113          	addi	sp,sp,80
   137d8:	00008067          	ret
   137dc:	00090513          	mv	a0,s2
   137e0:	0a300893          	li	a7,163
   137e4:	00810593          	addi	a1,sp,8
   137e8:	00000073          	ecall
   137ec:	875fd0ef          	jal	11060 <__syscall_ret>
   137f0:	00054e63          	bltz	a0,1380c <getrlimit+0xcc>
   137f4:	00813703          	ld	a4,8(sp)
   137f8:	01013783          	ld	a5,16(sp)
   137fc:	00e4b023          	sd	a4,0(s1)
   13800:	00f4b423          	sd	a5,8(s1)
   13804:	00000413          	li	s0,0
   13808:	fa1ff06f          	j	137a8 <getrlimit+0x68>
   1380c:	fff00413          	li	s0,-1
   13810:	f99ff06f          	j	137a8 <getrlimit+0x68>
   13814:	eb0fd0ef          	jal	10ec4 <__stack_chk_fail>

0000000000013818 <mlock>:
   13818:	ff010113          	addi	sp,sp,-16
   1381c:	00113423          	sd	ra,8(sp)
   13820:	0e400893          	li	a7,228
   13824:	00000073          	ecall
   13828:	839fd0ef          	jal	11060 <__syscall_ret>
   1382c:	00813083          	ld	ra,8(sp)
   13830:	0005051b          	sext.w	a0,a0
   13834:	01010113          	addi	sp,sp,16
   13838:	00008067          	ret

000000000001383c <__vm_wait>:
   1383c:	00008067          	ret

0000000000013840 <__mmap>:
   13840:	fc010113          	addi	sp,sp,-64
   13844:	02113c23          	sd	ra,56(sp)
   13848:	03479813          	slli	a6,a5,0x34
   1384c:	06081463          	bnez	a6,138b4 <__mmap+0x74>
   13850:	02813823          	sd	s0,48(sp)
   13854:	00050413          	mv	s0,a0
   13858:	ffd00513          	li	a0,-3
   1385c:	00155513          	srli	a0,a0,0x1
   13860:	02b56a63          	bltu	a0,a1,13894 <__mmap+0x54>
   13864:	0106f513          	andi	a0,a3,16
   13868:	08051263          	bnez	a0,138ec <__mmap+0xac>
   1386c:	0de00893          	li	a7,222
   13870:	00040513          	mv	a0,s0
   13874:	00000073          	ecall
   13878:	fff00713          	li	a4,-1
   1387c:	00050793          	mv	a5,a0
   13880:	04e50863          	beq	a0,a4,138d0 <__mmap+0x90>
   13884:	03013403          	ld	s0,48(sp)
   13888:	03813083          	ld	ra,56(sp)
   1388c:	04010113          	addi	sp,sp,64
   13890:	fd0fd06f          	j	11060 <__syscall_ret>
   13894:	e3cfd0ef          	jal	10ed0 <__errno_location>
   13898:	00c00793          	li	a5,12
   1389c:	00f52023          	sw	a5,0(a0)
   138a0:	03013403          	ld	s0,48(sp)
   138a4:	03813083          	ld	ra,56(sp)
   138a8:	fff00513          	li	a0,-1
   138ac:	04010113          	addi	sp,sp,64
   138b0:	00008067          	ret
   138b4:	e1cfd0ef          	jal	10ed0 <__errno_location>
   138b8:	01600793          	li	a5,22
   138bc:	00f52023          	sw	a5,0(a0)
   138c0:	03813083          	ld	ra,56(sp)
   138c4:	fff00513          	li	a0,-1
   138c8:	04010113          	addi	sp,sp,64
   138cc:	00008067          	ret
   138d0:	fa041ae3          	bnez	s0,13884 <__mmap+0x44>
   138d4:	0306f693          	andi	a3,a3,48
   138d8:	02000713          	li	a4,32
   138dc:	ff400513          	li	a0,-12
   138e0:	fae682e3          	beq	a3,a4,13884 <__mmap+0x44>
   138e4:	00078513          	mv	a0,a5
   138e8:	f9dff06f          	j	13884 <__mmap+0x44>
   138ec:	02f13423          	sd	a5,40(sp)
   138f0:	02e13023          	sd	a4,32(sp)
   138f4:	00d13c23          	sd	a3,24(sp)
   138f8:	00c13823          	sd	a2,16(sp)
   138fc:	00b13423          	sd	a1,8(sp)
   13900:	f3dff0ef          	jal	1383c <__vm_wait>
   13904:	02813783          	ld	a5,40(sp)
   13908:	02013703          	ld	a4,32(sp)
   1390c:	01813683          	ld	a3,24(sp)
   13910:	01013603          	ld	a2,16(sp)
   13914:	00813583          	ld	a1,8(sp)
   13918:	f55ff06f          	j	1386c <__mmap+0x2c>

000000000001391c <__mprotect>:
   1391c:	a881b703          	ld	a4,-1400(gp) # 1f288 <__libc+0x30>
   13920:	ff010113          	addi	sp,sp,-16
   13924:	00113423          	sd	ra,8(sp)
   13928:	fff70793          	addi	a5,a4,-1
   1392c:	00b785b3          	add	a1,a5,a1
   13930:	40e00733          	neg	a4,a4
   13934:	00b505b3          	add	a1,a0,a1
   13938:	00e5f5b3          	and	a1,a1,a4
   1393c:	00e57533          	and	a0,a0,a4
   13940:	40a585b3          	sub	a1,a1,a0
   13944:	0e200893          	li	a7,226
   13948:	00000073          	ecall
   1394c:	f14fd0ef          	jal	11060 <__syscall_ret>
   13950:	00813083          	ld	ra,8(sp)
   13954:	0005051b          	sext.w	a0,a0
   13958:	01010113          	addi	sp,sp,16
   1395c:	00008067          	ret

0000000000013960 <munlock>:
   13960:	ff010113          	addi	sp,sp,-16
   13964:	00113423          	sd	ra,8(sp)
   13968:	0e500893          	li	a7,229
   1396c:	00000073          	ecall
   13970:	ef0fd0ef          	jal	11060 <__syscall_ret>
   13974:	00813083          	ld	ra,8(sp)
   13978:	0005051b          	sext.w	a0,a0
   1397c:	01010113          	addi	sp,sp,16
   13980:	00008067          	ret

0000000000013984 <dummy>:
   13984:	00008067          	ret

0000000000013988 <__munmap>:
   13988:	fe010113          	addi	sp,sp,-32
   1398c:	00813823          	sd	s0,16(sp)
   13990:	00913423          	sd	s1,8(sp)
   13994:	00113c23          	sd	ra,24(sp)
   13998:	00050493          	mv	s1,a0
   1399c:	00058413          	mv	s0,a1
   139a0:	e9dff0ef          	jal	1383c <__vm_wait>
   139a4:	00048513          	mv	a0,s1
   139a8:	00040593          	mv	a1,s0
   139ac:	0d700893          	li	a7,215
   139b0:	00000073          	ecall
   139b4:	eacfd0ef          	jal	11060 <__syscall_ret>
   139b8:	01813083          	ld	ra,24(sp)
   139bc:	01013403          	ld	s0,16(sp)
   139c0:	00813483          	ld	s1,8(sp)
   139c4:	0005051b          	sext.w	a0,a0
   139c8:	02010113          	addi	sp,sp,32
   139cc:	00008067          	ret

00000000000139d0 <mbtowc>:
   139d0:	fe010113          	addi	sp,sp,-32
   139d4:	00813823          	sd	s0,16(sp)
   139d8:	00113c23          	sd	ra,24(sp)
   139dc:	0000b417          	auipc	s0,0xb
   139e0:	58443403          	ld	s0,1412(s0) # 1ef60 <_GLOBAL_OFFSET_TABLE_+0x8>
   139e4:	00043783          	ld	a5,0(s0)
   139e8:	00f13423          	sd	a5,8(sp)
   139ec:	00000793          	li	a5,0
   139f0:	12058a63          	beqz	a1,13b24 <mbtowc+0x154>
   139f4:	10060863          	beqz	a2,13b04 <mbtowc+0x134>
   139f8:	0e050663          	beqz	a0,13ae4 <mbtowc+0x114>
   139fc:	0005c783          	lbu	a5,0(a1)
   13a00:	0187971b          	slliw	a4,a5,0x18
   13a04:	4187571b          	sraiw	a4,a4,0x18
   13a08:	0a075663          	bgez	a4,13ab4 <mbtowc+0xe4>
   13a0c:	00020693          	mv	a3,tp
   13a10:	fd06b683          	ld	a3,-48(a3)
   13a14:	0006b683          	ld	a3,0(a3)
   13a18:	12068063          	beqz	a3,13b38 <mbtowc+0x168>
   13a1c:	f3e7879b          	addiw	a5,a5,-194
   13a20:	03200713          	li	a4,50
   13a24:	0ef76063          	bltu	a4,a5,13b04 <mbtowc+0x134>
   13a28:	02079713          	slli	a4,a5,0x20
   13a2c:	01e75793          	srli	a5,a4,0x1e
   13a30:	00009717          	auipc	a4,0x9
   13a34:	0d070713          	addi	a4,a4,208 # 1cb00 <__fsmu8>
   13a38:	00f707b3          	add	a5,a4,a5
   13a3c:	00300713          	li	a4,3
   13a40:	0007a683          	lw	a3,0(a5)
   13a44:	0ac77463          	bgeu	a4,a2,13aec <mbtowc+0x11c>
   13a48:	0015c783          	lbu	a5,1(a1)
   13a4c:	41a6d71b          	sraiw	a4,a3,0x1a
   13a50:	00700813          	li	a6,7
   13a54:	0037d61b          	srliw	a2,a5,0x3
   13a58:	00e6073b          	addw	a4,a2,a4
   13a5c:	ff06061b          	addiw	a2,a2,-16 # ff0 <exit-0xf168>
   13a60:	00c76733          	or	a4,a4,a2
   13a64:	0ae86063          	bltu	a6,a4,13b04 <mbtowc+0x134>
   13a68:	f807879b          	addiw	a5,a5,-128
   13a6c:	0066969b          	slliw	a3,a3,0x6
   13a70:	00d7e7b3          	or	a5,a5,a3
   13a74:	0a07dc63          	bgez	a5,13b2c <mbtowc+0x15c>
   13a78:	0025c703          	lbu	a4,2(a1)
   13a7c:	03f00693          	li	a3,63
   13a80:	f807071b          	addiw	a4,a4,-128
   13a84:	08e6e063          	bltu	a3,a4,13b04 <mbtowc+0x134>
   13a88:	0067979b          	slliw	a5,a5,0x6
   13a8c:	00f76733          	or	a4,a4,a5
   13a90:	08075463          	bgez	a4,13b18 <mbtowc+0x148>
   13a94:	0035c783          	lbu	a5,3(a1)
   13a98:	f807879b          	addiw	a5,a5,-128
   13a9c:	06f6e463          	bltu	a3,a5,13b04 <mbtowc+0x134>
   13aa0:	0067171b          	slliw	a4,a4,0x6
   13aa4:	00e7e7b3          	or	a5,a5,a4
   13aa8:	00f52023          	sw	a5,0(a0)
   13aac:	00400513          	li	a0,4
   13ab0:	0100006f          	j	13ac0 <mbtowc+0xf0>
   13ab4:	0007879b          	sext.w	a5,a5
   13ab8:	00f52023          	sw	a5,0(a0)
   13abc:	00f03533          	snez	a0,a5
   13ac0:	00813703          	ld	a4,8(sp)
   13ac4:	00043783          	ld	a5,0(s0)
   13ac8:	00f747b3          	xor	a5,a4,a5
   13acc:	00000713          	li	a4,0
   13ad0:	08079063          	bnez	a5,13b50 <mbtowc+0x180>
   13ad4:	01813083          	ld	ra,24(sp)
   13ad8:	01013403          	ld	s0,16(sp)
   13adc:	02010113          	addi	sp,sp,32
   13ae0:	00008067          	ret
   13ae4:	00410513          	addi	a0,sp,4
   13ae8:	f15ff06f          	j	139fc <mbtowc+0x2c>
   13aec:	0016179b          	slliw	a5,a2,0x1
   13af0:	00c787bb          	addw	a5,a5,a2
   13af4:	0017979b          	slliw	a5,a5,0x1
   13af8:	ffa7879b          	addiw	a5,a5,-6
   13afc:	00f697bb          	sllw	a5,a3,a5
   13b00:	f407d4e3          	bgez	a5,13a48 <mbtowc+0x78>
   13b04:	bccfd0ef          	jal	10ed0 <__errno_location>
   13b08:	05400793          	li	a5,84
   13b0c:	00f52023          	sw	a5,0(a0)
   13b10:	fff00513          	li	a0,-1
   13b14:	fadff06f          	j	13ac0 <mbtowc+0xf0>
   13b18:	00e52023          	sw	a4,0(a0)
   13b1c:	00300513          	li	a0,3
   13b20:	fa1ff06f          	j	13ac0 <mbtowc+0xf0>
   13b24:	00000513          	li	a0,0
   13b28:	f99ff06f          	j	13ac0 <mbtowc+0xf0>
   13b2c:	00f52023          	sw	a5,0(a0)
   13b30:	00200513          	li	a0,2
   13b34:	f8dff06f          	j	13ac0 <mbtowc+0xf0>
   13b38:	0000e7b7          	lui	a5,0xe
   13b3c:	fff78793          	addi	a5,a5,-1 # dfff <exit-0x2159>
   13b40:	00f77733          	and	a4,a4,a5
   13b44:	00e52023          	sw	a4,0(a0)
   13b48:	00100513          	li	a0,1
   13b4c:	f75ff06f          	j	13ac0 <mbtowc+0xf0>
   13b50:	b74fd0ef          	jal	10ec4 <__stack_chk_fail>

0000000000013b54 <__lockfile>:
   13b54:	08c52783          	lw	a5,140(a0)
   13b58:	0007879b          	sext.w	a5,a5
   13b5c:	00020693          	mv	a3,tp
   13b60:	c0000737          	lui	a4,0xc0000
   13b64:	f586a803          	lw	a6,-168(a3)
   13b68:	fff70713          	addi	a4,a4,-1 # ffffffffbfffffff <__BSS_END__+0xffffffffbffe039f>
   13b6c:	00e7f7b3          	and	a5,a5,a4
   13b70:	0b078e63          	beq	a5,a6,13c2c <__lockfile+0xd8>
   13b74:	08c50713          	addi	a4,a0,140
   13b78:	00000693          	li	a3,0
   13b7c:	160727af          	lr.w.aqrl	a5,(a4)
   13b80:	00d79663          	bne	a5,a3,13b8c <__lockfile+0x38>
   13b84:	1f07262f          	sc.w.aqrl	a2,a6,(a4)
   13b88:	fe061ae3          	bnez	a2,13b7c <__lockfile+0x28>
   13b8c:	0007879b          	sext.w	a5,a5
   13b90:	08078a63          	beqz	a5,13c24 <__lockfile+0xd0>
   13b94:	40000337          	lui	t1,0x40000
   13b98:	00686833          	or	a6,a6,t1
   13b9c:	160727af          	lr.w.aqrl	a5,(a4)
   13ba0:	00d79663          	bne	a5,a3,13bac <__lockfile+0x58>
   13ba4:	1f07262f          	sc.w.aqrl	a2,a6,(a4)
   13ba8:	fe061ae3          	bnez	a2,13b9c <__lockfile+0x48>
   13bac:	0007879b          	sext.w	a5,a5
   13bb0:	06078a63          	beqz	a5,13c24 <__lockfile+0xd0>
   13bb4:	fda00e13          	li	t3,-38
   13bb8:	0380006f          	j	13bf0 <__lockfile+0x9c>
   13bbc:	160726af          	lr.w.aqrl	a3,(a4)
   13bc0:	00f69663          	bne	a3,a5,13bcc <__lockfile+0x78>
   13bc4:	1ec725af          	sc.w.aqrl	a1,a2,(a4)
   13bc8:	fe059ae3          	bnez	a1,13bbc <__lockfile+0x68>
   13bcc:	0006869b          	sext.w	a3,a3
   13bd0:	02f68663          	beq	a3,a5,13bfc <__lockfile+0xa8>
   13bd4:	00000693          	li	a3,0
   13bd8:	160727af          	lr.w.aqrl	a5,(a4)
   13bdc:	00d79663          	bne	a5,a3,13be8 <__lockfile+0x94>
   13be0:	1f07262f          	sc.w.aqrl	a2,a6,(a4)
   13be4:	fe061ae3          	bnez	a2,13bd8 <__lockfile+0x84>
   13be8:	0007879b          	sext.w	a5,a5
   13bec:	02078c63          	beqz	a5,13c24 <__lockfile+0xd0>
   13bf0:	0067f6b3          	and	a3,a5,t1
   13bf4:	0067e633          	or	a2,a5,t1
   13bf8:	fc0682e3          	beqz	a3,13bbc <__lockfile+0x68>
   13bfc:	06200893          	li	a7,98
   13c00:	00070513          	mv	a0,a4
   13c04:	08000593          	li	a1,128
   13c08:	00000693          	li	a3,0
   13c0c:	00000073          	ecall
   13c10:	fdc512e3          	bne	a0,t3,13bd4 <__lockfile+0x80>
   13c14:	00070513          	mv	a0,a4
   13c18:	00000593          	li	a1,0
   13c1c:	00000073          	ecall
   13c20:	fb5ff06f          	j	13bd4 <__lockfile+0x80>
   13c24:	00100513          	li	a0,1
   13c28:	00008067          	ret
   13c2c:	00000513          	li	a0,0
   13c30:	00008067          	ret

0000000000013c34 <__unlockfile>:
   13c34:	08c50813          	addi	a6,a0,140
   13c38:	08c52783          	lw	a5,140(a0)
   13c3c:	00000693          	li	a3,0
   13c40:	0007879b          	sext.w	a5,a5
   13c44:	1608272f          	lr.w.aqrl	a4,(a6)
   13c48:	00f71663          	bne	a4,a5,13c54 <__unlockfile+0x20>
   13c4c:	1ed8262f          	sc.w.aqrl	a2,a3,(a6)
   13c50:	fe061ae3          	bnez	a2,13c44 <__unlockfile+0x10>
   13c54:	0007071b          	sext.w	a4,a4
   13c58:	fee790e3          	bne	a5,a4,13c38 <__unlockfile+0x4>
   13c5c:	02179713          	slli	a4,a5,0x21
   13c60:	00074463          	bltz	a4,13c68 <__unlockfile+0x34>
   13c64:	00008067          	ret
   13c68:	06200893          	li	a7,98
   13c6c:	00080513          	mv	a0,a6
   13c70:	08100593          	li	a1,129
   13c74:	00100613          	li	a2,1
   13c78:	00000073          	ecall
   13c7c:	fda00793          	li	a5,-38
   13c80:	fef512e3          	bne	a0,a5,13c64 <__unlockfile+0x30>
   13c84:	00080513          	mv	a0,a6
   13c88:	00060593          	mv	a1,a2
   13c8c:	00000073          	ecall
   13c90:	00008067          	ret

0000000000013c94 <fprintf>:
   13c94:	fb010113          	addi	sp,sp,-80
   13c98:	00813823          	sd	s0,16(sp)
   13c9c:	02010313          	addi	t1,sp,32
   13ca0:	02c13023          	sd	a2,32(sp)
   13ca4:	02e13823          	sd	a4,48(sp)
   13ca8:	00113c23          	sd	ra,24(sp)
   13cac:	0000b417          	auipc	s0,0xb
   13cb0:	2b443403          	ld	s0,692(s0) # 1ef60 <_GLOBAL_OFFSET_TABLE_+0x8>
   13cb4:	02d13423          	sd	a3,40(sp)
   13cb8:	02f13c23          	sd	a5,56(sp)
   13cbc:	05013023          	sd	a6,64(sp)
   13cc0:	05113423          	sd	a7,72(sp)
   13cc4:	00043783          	ld	a5,0(s0)
   13cc8:	00f13423          	sd	a5,8(sp)
   13ccc:	00000793          	li	a5,0
   13cd0:	00030613          	mv	a2,t1
   13cd4:	00613023          	sd	t1,0(sp)
   13cd8:	441020ef          	jal	16918 <vfprintf>
   13cdc:	00813703          	ld	a4,8(sp)
   13ce0:	00043783          	ld	a5,0(s0)
   13ce4:	00f747b3          	xor	a5,a4,a5
   13ce8:	00000713          	li	a4,0
   13cec:	00079a63          	bnez	a5,13d00 <fprintf+0x6c>
   13cf0:	01813083          	ld	ra,24(sp)
   13cf4:	01013403          	ld	s0,16(sp)
   13cf8:	05010113          	addi	sp,sp,80
   13cfc:	00008067          	ret
   13d00:	9c4fd0ef          	jal	10ec4 <__stack_chk_fail>

0000000000013d04 <fputs>:
   13d04:	fe010113          	addi	sp,sp,-32
   13d08:	00113c23          	sd	ra,24(sp)
   13d0c:	00813823          	sd	s0,16(sp)
   13d10:	00913423          	sd	s1,8(sp)
   13d14:	01213023          	sd	s2,0(sp)
   13d18:	00050493          	mv	s1,a0
   13d1c:	00058913          	mv	s2,a1
   13d20:	3ac030ef          	jal	170cc <strlen>
   13d24:	00050413          	mv	s0,a0
   13d28:	00090693          	mv	a3,s2
   13d2c:	00048513          	mv	a0,s1
   13d30:	00040613          	mv	a2,s0
   13d34:	00100593          	li	a1,1
   13d38:	13c000ef          	jal	13e74 <fwrite>
   13d3c:	01813083          	ld	ra,24(sp)
   13d40:	40850533          	sub	a0,a0,s0
   13d44:	01013403          	ld	s0,16(sp)
   13d48:	00a03533          	snez	a0,a0
   13d4c:	00813483          	ld	s1,8(sp)
   13d50:	00013903          	ld	s2,0(sp)
   13d54:	40a00533          	neg	a0,a0
   13d58:	02010113          	addi	sp,sp,32
   13d5c:	00008067          	ret

0000000000013d60 <__fwritex>:
   13d60:	fd010113          	addi	sp,sp,-48
   13d64:	00913c23          	sd	s1,24(sp)
   13d68:	01213823          	sd	s2,16(sp)
   13d6c:	01313423          	sd	s3,8(sp)
   13d70:	02113423          	sd	ra,40(sp)
   13d74:	02063783          	ld	a5,32(a2)
   13d78:	00060913          	mv	s2,a2
   13d7c:	00050493          	mv	s1,a0
   13d80:	00058993          	mv	s3,a1
   13d84:	0c078a63          	beqz	a5,13e58 <__fwritex+0xf8>
   13d88:	02893503          	ld	a0,40(s2)
   13d8c:	40a787b3          	sub	a5,a5,a0
   13d90:	0737e863          	bltu	a5,s3,13e00 <__fwritex+0xa0>
   13d94:	02813023          	sd	s0,32(sp)
   13d98:	09092783          	lw	a5,144(s2)
   13d9c:	00098413          	mv	s0,s3
   13da0:	00a00693          	li	a3,10
   13da4:	0407d463          	bgez	a5,13dec <__fwritex+0x8c>
   13da8:	00040613          	mv	a2,s0
   13dac:	00048593          	mv	a1,s1
   13db0:	599020ef          	jal	16b48 <memcpy>
   13db4:	02893783          	ld	a5,40(s2)
   13db8:	00098513          	mv	a0,s3
   13dbc:	008787b3          	add	a5,a5,s0
   13dc0:	02f93423          	sd	a5,40(s2)
   13dc4:	02013403          	ld	s0,32(sp)
   13dc8:	02813083          	ld	ra,40(sp)
   13dcc:	01813483          	ld	s1,24(sp)
   13dd0:	01013903          	ld	s2,16(sp)
   13dd4:	00813983          	ld	s3,8(sp)
   13dd8:	03010113          	addi	sp,sp,48
   13ddc:	00008067          	ret
   13de0:	00074703          	lbu	a4,0(a4)
   13de4:	04d70263          	beq	a4,a3,13e28 <__fwritex+0xc8>
   13de8:	00078413          	mv	s0,a5
   13dec:	fff40793          	addi	a5,s0,-1
   13df0:	00f48733          	add	a4,s1,a5
   13df4:	fe0416e3          	bnez	s0,13de0 <__fwritex+0x80>
   13df8:	00098413          	mv	s0,s3
   13dfc:	fadff06f          	j	13da8 <__fwritex+0x48>
   13e00:	04893783          	ld	a5,72(s2)
   13e04:	02813083          	ld	ra,40(sp)
   13e08:	00098613          	mv	a2,s3
   13e0c:	00048593          	mv	a1,s1
   13e10:	00813983          	ld	s3,8(sp)
   13e14:	01813483          	ld	s1,24(sp)
   13e18:	00090513          	mv	a0,s2
   13e1c:	01013903          	ld	s2,16(sp)
   13e20:	03010113          	addi	sp,sp,48
   13e24:	00078067          	jr	a5
   13e28:	04893783          	ld	a5,72(s2)
   13e2c:	00040613          	mv	a2,s0
   13e30:	00048593          	mv	a1,s1
   13e34:	00090513          	mv	a0,s2
   13e38:	000780e7          	jalr	a5
   13e3c:	00856a63          	bltu	a0,s0,13e50 <__fwritex+0xf0>
   13e40:	008484b3          	add	s1,s1,s0
   13e44:	02893503          	ld	a0,40(s2)
   13e48:	40898433          	sub	s0,s3,s0
   13e4c:	f5dff06f          	j	13da8 <__fwritex+0x48>
   13e50:	02013403          	ld	s0,32(sp)
   13e54:	f75ff06f          	j	13dc8 <__fwritex+0x68>
   13e58:	00060513          	mv	a0,a2
   13e5c:	53d030ef          	jal	17b98 <__towrite>
   13e60:	00051663          	bnez	a0,13e6c <__fwritex+0x10c>
   13e64:	02093783          	ld	a5,32(s2)
   13e68:	f21ff06f          	j	13d88 <__fwritex+0x28>
   13e6c:	00000513          	li	a0,0
   13e70:	f59ff06f          	j	13dc8 <__fwritex+0x68>

0000000000013e74 <fwrite>:
   13e74:	fc010113          	addi	sp,sp,-64
   13e78:	08c6a783          	lw	a5,140(a3)
   13e7c:	02913423          	sd	s1,40(sp)
   13e80:	00b034b3          	snez	s1,a1
   13e84:	02813823          	sd	s0,48(sp)
   13e88:	03213023          	sd	s2,32(sp)
   13e8c:	01313c23          	sd	s3,24(sp)
   13e90:	409004b3          	neg	s1,s1
   13e94:	02113c23          	sd	ra,56(sp)
   13e98:	01413823          	sd	s4,16(sp)
   13e9c:	02c58433          	mul	s0,a1,a2
   13ea0:	00068913          	mv	s2,a3
   13ea4:	00058993          	mv	s3,a1
   13ea8:	009674b3          	and	s1,a2,s1
   13eac:	0407d063          	bgez	a5,13eec <fwrite+0x78>
   13eb0:	00068613          	mv	a2,a3
   13eb4:	00040593          	mv	a1,s0
   13eb8:	ea9ff0ef          	jal	13d60 <__fwritex>
   13ebc:	00050a13          	mv	s4,a0
   13ec0:	01440463          	beq	s0,s4,13ec8 <fwrite+0x54>
   13ec4:	033a54b3          	divu	s1,s4,s3
   13ec8:	03813083          	ld	ra,56(sp)
   13ecc:	03013403          	ld	s0,48(sp)
   13ed0:	02013903          	ld	s2,32(sp)
   13ed4:	01813983          	ld	s3,24(sp)
   13ed8:	01013a03          	ld	s4,16(sp)
   13edc:	00048513          	mv	a0,s1
   13ee0:	02813483          	ld	s1,40(sp)
   13ee4:	04010113          	addi	sp,sp,64
   13ee8:	00008067          	ret
   13eec:	00050a13          	mv	s4,a0
   13ef0:	00068513          	mv	a0,a3
   13ef4:	01513423          	sd	s5,8(sp)
   13ef8:	c5dff0ef          	jal	13b54 <__lockfile>
   13efc:	00050a93          	mv	s5,a0
   13f00:	00090613          	mv	a2,s2
   13f04:	000a0513          	mv	a0,s4
   13f08:	00040593          	mv	a1,s0
   13f0c:	e55ff0ef          	jal	13d60 <__fwritex>
   13f10:	00050a13          	mv	s4,a0
   13f14:	000a8a63          	beqz	s5,13f28 <fwrite+0xb4>
   13f18:	00090513          	mv	a0,s2
   13f1c:	d19ff0ef          	jal	13c34 <__unlockfile>
   13f20:	00813a83          	ld	s5,8(sp)
   13f24:	f9dff06f          	j	13ec0 <fwrite+0x4c>
   13f28:	00813a83          	ld	s5,8(sp)
   13f2c:	f95ff06f          	j	13ec0 <fwrite+0x4c>

0000000000013f30 <perror>:
   13f30:	fc010113          	addi	sp,sp,-64
   13f34:	02113c23          	sd	ra,56(sp)
   13f38:	02813823          	sd	s0,48(sp)
   13f3c:	02913423          	sd	s1,40(sp)
   13f40:	03213023          	sd	s2,32(sp)
   13f44:	01313c23          	sd	s3,24(sp)
   13f48:	01413823          	sd	s4,16(sp)
   13f4c:	01513423          	sd	s5,8(sp)
   13f50:	00050413          	mv	s0,a0
   13f54:	f7dfc0ef          	jal	10ed0 <__errno_location>
   13f58:	00052503          	lw	a0,0(a0)
   13f5c:	0000b917          	auipc	s2,0xb
   13f60:	0b490913          	addi	s2,s2,180 # 1f010 <__stderr_FILE>
   13f64:	fb9fc0ef          	jal	10f1c <strerror>
   13f68:	89c1a783          	lw	a5,-1892(gp) # 1f09c <__stderr_FILE+0x8c>
   13f6c:	00050493          	mv	s1,a0
   13f70:	0e07d663          	bgez	a5,1405c <perror+0x12c>
   13f74:	0e093a03          	ld	s4,224(s2)
   13f78:	8981aa83          	lw	s5,-1896(gp) # 1f098 <__stderr_FILE+0x88>
   13f7c:	00000993          	li	s3,0
   13f80:	10040063          	beqz	s0,14080 <perror+0x150>
   13f84:	00044783          	lbu	a5,0(s0)
   13f88:	08079863          	bnez	a5,14018 <perror+0xe8>
   13f8c:	00048513          	mv	a0,s1
   13f90:	13c030ef          	jal	170cc <strlen>
   13f94:	00050593          	mv	a1,a0
   13f98:	0000b697          	auipc	a3,0xb
   13f9c:	07868693          	addi	a3,a3,120 # 1f010 <__stderr_FILE>
   13fa0:	00100613          	li	a2,1
   13fa4:	00048513          	mv	a0,s1
   13fa8:	ecdff0ef          	jal	13e74 <fwrite>
   13fac:	0000b597          	auipc	a1,0xb
   13fb0:	06458593          	addi	a1,a1,100 # 1f010 <__stderr_FILE>
   13fb4:	00a00513          	li	a0,10
   13fb8:	54d030ef          	jal	17d04 <fputc>
   13fbc:	09592423          	sw	s5,136(s2)
   13fc0:	0f493023          	sd	s4,224(s2)
   13fc4:	02099463          	bnez	s3,13fec <perror+0xbc>
   13fc8:	03813083          	ld	ra,56(sp)
   13fcc:	03013403          	ld	s0,48(sp)
   13fd0:	02813483          	ld	s1,40(sp)
   13fd4:	02013903          	ld	s2,32(sp)
   13fd8:	01813983          	ld	s3,24(sp)
   13fdc:	01013a03          	ld	s4,16(sp)
   13fe0:	00813a83          	ld	s5,8(sp)
   13fe4:	04010113          	addi	sp,sp,64
   13fe8:	00008067          	ret
   13fec:	03013403          	ld	s0,48(sp)
   13ff0:	03813083          	ld	ra,56(sp)
   13ff4:	02813483          	ld	s1,40(sp)
   13ff8:	02013903          	ld	s2,32(sp)
   13ffc:	01813983          	ld	s3,24(sp)
   14000:	01013a03          	ld	s4,16(sp)
   14004:	00813a83          	ld	s5,8(sp)
   14008:	0000b517          	auipc	a0,0xb
   1400c:	00850513          	addi	a0,a0,8 # 1f010 <__stderr_FILE>
   14010:	04010113          	addi	sp,sp,64
   14014:	c21ff06f          	j	13c34 <__unlockfile>
   14018:	00040513          	mv	a0,s0
   1401c:	0b0030ef          	jal	170cc <strlen>
   14020:	00050593          	mv	a1,a0
   14024:	0000b697          	auipc	a3,0xb
   14028:	fec68693          	addi	a3,a3,-20 # 1f010 <__stderr_FILE>
   1402c:	00100613          	li	a2,1
   14030:	00040513          	mv	a0,s0
   14034:	e41ff0ef          	jal	13e74 <fwrite>
   14038:	0000b597          	auipc	a1,0xb
   1403c:	fd858593          	addi	a1,a1,-40 # 1f010 <__stderr_FILE>
   14040:	03a00513          	li	a0,58
   14044:	4c1030ef          	jal	17d04 <fputc>
   14048:	0000b597          	auipc	a1,0xb
   1404c:	fc858593          	addi	a1,a1,-56 # 1f010 <__stderr_FILE>
   14050:	02000513          	li	a0,32
   14054:	4b1030ef          	jal	17d04 <fputc>
   14058:	f35ff06f          	j	13f8c <perror+0x5c>
   1405c:	00090513          	mv	a0,s2
   14060:	af5ff0ef          	jal	13b54 <__lockfile>
   14064:	00050993          	mv	s3,a0
   14068:	0e093a03          	ld	s4,224(s2)
   1406c:	8981aa83          	lw	s5,-1896(gp) # 1f098 <__stderr_FILE+0x88>
   14070:	f0040ee3          	beqz	s0,13f8c <perror+0x5c>
   14074:	00044783          	lbu	a5,0(s0)
   14078:	f0078ae3          	beqz	a5,13f8c <perror+0x5c>
   1407c:	f9dff06f          	j	14018 <perror+0xe8>
   14080:	04c030ef          	jal	170cc <strlen>
   14084:	00050593          	mv	a1,a0
   14088:	00090693          	mv	a3,s2
   1408c:	00100613          	li	a2,1
   14090:	00048513          	mv	a0,s1
   14094:	de1ff0ef          	jal	13e74 <fwrite>
   14098:	00090593          	mv	a1,s2
   1409c:	00a00513          	li	a0,10
   140a0:	465030ef          	jal	17d04 <fputc>
   140a4:	09592423          	sw	s5,136(s2)
   140a8:	0f493023          	sd	s4,224(s2)
   140ac:	f1dff06f          	j	13fc8 <perror+0x98>

00000000000140b0 <printf>:
   140b0:	fa010113          	addi	sp,sp,-96
   140b4:	00813823          	sd	s0,16(sp)
   140b8:	02810313          	addi	t1,sp,40
   140bc:	02b13423          	sd	a1,40(sp)
   140c0:	02c13823          	sd	a2,48(sp)
   140c4:	04e13023          	sd	a4,64(sp)
   140c8:	00113c23          	sd	ra,24(sp)
   140cc:	0000b417          	auipc	s0,0xb
   140d0:	e9443403          	ld	s0,-364(s0) # 1ef60 <_GLOBAL_OFFSET_TABLE_+0x8>
   140d4:	02d13c23          	sd	a3,56(sp)
   140d8:	04f13423          	sd	a5,72(sp)
   140dc:	05013823          	sd	a6,80(sp)
   140e0:	05113c23          	sd	a7,88(sp)
   140e4:	00050593          	mv	a1,a0
   140e8:	00043783          	ld	a5,0(s0)
   140ec:	00f13423          	sd	a5,8(sp)
   140f0:	00000793          	li	a5,0
   140f4:	00030613          	mv	a2,t1
   140f8:	90018513          	addi	a0,gp,-1792 # 1f100 <__stdout_FILE>
   140fc:	00613023          	sd	t1,0(sp)
   14100:	019020ef          	jal	16918 <vfprintf>
   14104:	00813703          	ld	a4,8(sp)
   14108:	00043783          	ld	a5,0(s0)
   1410c:	00f747b3          	xor	a5,a4,a5
   14110:	00000713          	li	a4,0
   14114:	00079a63          	bnez	a5,14128 <printf+0x78>
   14118:	01813083          	ld	ra,24(sp)
   1411c:	01013403          	ld	s0,16(sp)
   14120:	06010113          	addi	sp,sp,96
   14124:	00008067          	ret
   14128:	d9dfc0ef          	jal	10ec4 <__stack_chk_fail>

000000000001412c <locking_putc>:
   1412c:	fe010113          	addi	sp,sp,-32
   14130:	400007b7          	lui	a5,0x40000
   14134:	00813823          	sd	s0,16(sp)
   14138:	00913423          	sd	s1,8(sp)
   1413c:	01213023          	sd	s2,0(sp)
   14140:	00113c23          	sd	ra,24(sp)
   14144:	00058493          	mv	s1,a1
   14148:	00050913          	mv	s2,a0
   1414c:	08c58413          	addi	s0,a1,140
   14150:	fff78793          	addi	a5,a5,-1 # 3fffffff <__BSS_END__+0x3ffe039f>
   14154:	00000693          	li	a3,0
   14158:	1604272f          	lr.w.aqrl	a4,(s0)
   1415c:	00d71663          	bne	a4,a3,14168 <locking_putc+0x3c>
   14160:	1ef4262f          	sc.w.aqrl	a2,a5,(s0)
   14164:	fe061ae3          	bnez	a2,14158 <locking_putc+0x2c>
   14168:	0007079b          	sext.w	a5,a4
   1416c:	08079263          	bnez	a5,141f0 <locking_putc+0xc4>
   14170:	0904a783          	lw	a5,144(s1)
   14174:	0ff97813          	zext.b	a6,s2
   14178:	07078263          	beq	a5,a6,141dc <locking_putc+0xb0>
   1417c:	0284b783          	ld	a5,40(s1)
   14180:	0204b703          	ld	a4,32(s1)
   14184:	04e78c63          	beq	a5,a4,141dc <locking_putc+0xb0>
   14188:	00178713          	addi	a4,a5,1
   1418c:	02e4b423          	sd	a4,40(s1)
   14190:	01278023          	sb	s2,0(a5)
   14194:	08c4a783          	lw	a5,140(s1)
   14198:	00000693          	li	a3,0
   1419c:	0007879b          	sext.w	a5,a5
   141a0:	1604272f          	lr.w.aqrl	a4,(s0)
   141a4:	00f71663          	bne	a4,a5,141b0 <locking_putc+0x84>
   141a8:	1ed4262f          	sc.w.aqrl	a2,a3,(s0)
   141ac:	fe061ae3          	bnez	a2,141a0 <locking_putc+0x74>
   141b0:	0007071b          	sext.w	a4,a4
   141b4:	fee790e3          	bne	a5,a4,14194 <locking_putc+0x68>
   141b8:	02179713          	slli	a4,a5,0x21
   141bc:	04074063          	bltz	a4,141fc <locking_putc+0xd0>
   141c0:	01813083          	ld	ra,24(sp)
   141c4:	01013403          	ld	s0,16(sp)
   141c8:	00813483          	ld	s1,8(sp)
   141cc:	00013903          	ld	s2,0(sp)
   141d0:	00080513          	mv	a0,a6
   141d4:	02010113          	addi	sp,sp,32
   141d8:	00008067          	ret
   141dc:	00080593          	mv	a1,a6
   141e0:	00048513          	mv	a0,s1
   141e4:	6d8030ef          	jal	178bc <__overflow>
   141e8:	00050813          	mv	a6,a0
   141ec:	fa9ff06f          	j	14194 <locking_putc+0x68>
   141f0:	00058513          	mv	a0,a1
   141f4:	961ff0ef          	jal	13b54 <__lockfile>
   141f8:	f79ff06f          	j	14170 <locking_putc+0x44>
   141fc:	06200893          	li	a7,98
   14200:	00040513          	mv	a0,s0
   14204:	08100593          	li	a1,129
   14208:	00100613          	li	a2,1
   1420c:	00000073          	ecall
   14210:	fda00793          	li	a5,-38
   14214:	faf516e3          	bne	a0,a5,141c0 <locking_putc+0x94>
   14218:	00040513          	mv	a0,s0
   1421c:	00060593          	mv	a1,a2
   14220:	00000073          	ecall
   14224:	01813083          	ld	ra,24(sp)
   14228:	01013403          	ld	s0,16(sp)
   1422c:	00813483          	ld	s1,8(sp)
   14230:	00013903          	ld	s2,0(sp)
   14234:	00080513          	mv	a0,a6
   14238:	02010113          	addi	sp,sp,32
   1423c:	00008067          	ret

0000000000014240 <putc>:
   14240:	08c5a683          	lw	a3,140(a1)
   14244:	00058793          	mv	a5,a1
   14248:	0006871b          	sext.w	a4,a3
   1424c:	0206c463          	bltz	a3,14274 <putc+0x34>
   14250:	00070e63          	beqz	a4,1426c <putc+0x2c>
   14254:	00020613          	mv	a2,tp
   14258:	c00006b7          	lui	a3,0xc0000
   1425c:	f5862603          	lw	a2,-168(a2)
   14260:	fff68693          	addi	a3,a3,-1 # ffffffffbfffffff <__BSS_END__+0xffffffffbffe039f>
   14264:	00d77733          	and	a4,a4,a3
   14268:	00e60663          	beq	a2,a4,14274 <putc+0x34>
   1426c:	00078593          	mv	a1,a5
   14270:	ebdff06f          	j	1412c <locking_putc>
   14274:	0907a703          	lw	a4,144(a5)
   14278:	0ff57593          	zext.b	a1,a0
   1427c:	02b70263          	beq	a4,a1,142a0 <putc+0x60>
   14280:	0287b703          	ld	a4,40(a5)
   14284:	0207b683          	ld	a3,32(a5)
   14288:	00d70c63          	beq	a4,a3,142a0 <putc+0x60>
   1428c:	00170693          	addi	a3,a4,1
   14290:	02d7b423          	sd	a3,40(a5)
   14294:	00a70023          	sb	a0,0(a4)
   14298:	00058513          	mv	a0,a1
   1429c:	00008067          	ret
   142a0:	00078513          	mv	a0,a5
   142a4:	6180306f          	j	178bc <__overflow>

00000000000142a8 <puts>:
   142a8:	98c1a783          	lw	a5,-1652(gp) # 1f18c <__stdout_FILE+0x8c>
   142ac:	fe010113          	addi	sp,sp,-32
   142b0:	00113c23          	sd	ra,24(sp)
   142b4:	00813823          	sd	s0,16(sp)
   142b8:	00913423          	sd	s1,8(sp)
   142bc:	0607de63          	bgez	a5,14338 <puts+0x90>
   142c0:	90018593          	addi	a1,gp,-1792 # 1f100 <__stdout_FILE>
   142c4:	a41ff0ef          	jal	13d04 <fputs>
   142c8:	fff00413          	li	s0,-1
   142cc:	00000493          	li	s1,0
   142d0:	02054e63          	bltz	a0,1430c <puts+0x64>
   142d4:	9901a783          	lw	a5,-1648(gp) # 1f190 <__stdout_FILE+0x90>
   142d8:	00a00713          	li	a4,10
   142dc:	04e78463          	beq	a5,a4,14324 <puts+0x7c>
   142e0:	90018613          	addi	a2,gp,-1792 # 1f100 <__stdout_FILE>
   142e4:	02863783          	ld	a5,40(a2)
   142e8:	02063683          	ld	a3,32(a2)
   142ec:	02d78c63          	beq	a5,a3,14324 <puts+0x7c>
   142f0:	00178693          	addi	a3,a5,1
   142f4:	02d63423          	sd	a3,40(a2)
   142f8:	00e78023          	sb	a4,0(a5)
   142fc:	00000413          	li	s0,0
   14300:	00048663          	beqz	s1,1430c <puts+0x64>
   14304:	90018513          	addi	a0,gp,-1792 # 1f100 <__stdout_FILE>
   14308:	92dff0ef          	jal	13c34 <__unlockfile>
   1430c:	01813083          	ld	ra,24(sp)
   14310:	00040513          	mv	a0,s0
   14314:	01013403          	ld	s0,16(sp)
   14318:	00813483          	ld	s1,8(sp)
   1431c:	02010113          	addi	sp,sp,32
   14320:	00008067          	ret
   14324:	00a00593          	li	a1,10
   14328:	90018513          	addi	a0,gp,-1792 # 1f100 <__stdout_FILE>
   1432c:	590030ef          	jal	178bc <__overflow>
   14330:	41f5541b          	sraiw	s0,a0,0x1f
   14334:	fcdff06f          	j	14300 <puts+0x58>
   14338:	00050413          	mv	s0,a0
   1433c:	90018513          	addi	a0,gp,-1792 # 1f100 <__stdout_FILE>
   14340:	815ff0ef          	jal	13b54 <__lockfile>
   14344:	00050493          	mv	s1,a0
   14348:	90018593          	addi	a1,gp,-1792 # 1f100 <__stdout_FILE>
   1434c:	00040513          	mv	a0,s0
   14350:	9b5ff0ef          	jal	13d04 <fputs>
   14354:	fff00413          	li	s0,-1
   14358:	fa0544e3          	bltz	a0,14300 <puts+0x58>
   1435c:	9901a783          	lw	a5,-1648(gp) # 1f190 <__stdout_FILE+0x90>
   14360:	00a00713          	li	a4,10
   14364:	f6e79ee3          	bne	a5,a4,142e0 <puts+0x38>
   14368:	fbdff06f          	j	14324 <puts+0x7c>

000000000001436c <pop_arg>:
   1436c:	ff75859b          	addiw	a1,a1,-9
   14370:	01100793          	li	a5,17
   14374:	12b7e863          	bltu	a5,a1,144a4 <pop_arg+0x138>
   14378:	02059793          	slli	a5,a1,0x20
   1437c:	01e7d593          	srli	a1,a5,0x1e
   14380:	00008717          	auipc	a4,0x8
   14384:	3a870713          	addi	a4,a4,936 # 1c728 <__malloc_size_classes+0x60>
   14388:	00e585b3          	add	a1,a1,a4
   1438c:	0005a783          	lw	a5,0(a1)
   14390:	ff010113          	addi	sp,sp,-16
   14394:	00813023          	sd	s0,0(sp)
   14398:	00e787b3          	add	a5,a5,a4
   1439c:	00113423          	sd	ra,8(sp)
   143a0:	00050413          	mv	s0,a0
   143a4:	00078067          	jr	a5
   143a8:	00063783          	ld	a5,0(a2)
   143ac:	00878713          	addi	a4,a5,8
   143b0:	00e63023          	sd	a4,0(a2)
   143b4:	0007b783          	ld	a5,0(a5)
   143b8:	00f53023          	sd	a5,0(a0)
   143bc:	00813083          	ld	ra,8(sp)
   143c0:	00013403          	ld	s0,0(sp)
   143c4:	01010113          	addi	sp,sp,16
   143c8:	00008067          	ret
   143cc:	00063783          	ld	a5,0(a2)
   143d0:	00878713          	addi	a4,a5,8
   143d4:	00e63023          	sd	a4,0(a2)
   143d8:	0007d783          	lhu	a5,0(a5)
   143dc:	00f53023          	sd	a5,0(a0)
   143e0:	fddff06f          	j	143bc <pop_arg+0x50>
   143e4:	00063783          	ld	a5,0(a2)
   143e8:	00f78793          	addi	a5,a5,15
   143ec:	ff07f793          	andi	a5,a5,-16
   143f0:	01078713          	addi	a4,a5,16
   143f4:	00e63023          	sd	a4,0(a2)
   143f8:	0007b703          	ld	a4,0(a5)
   143fc:	0087b783          	ld	a5,8(a5)
   14400:	00e53023          	sd	a4,0(a0)
   14404:	00f53423          	sd	a5,8(a0)
   14408:	fb5ff06f          	j	143bc <pop_arg+0x50>
   1440c:	00063783          	ld	a5,0(a2)
   14410:	00878713          	addi	a4,a5,8
   14414:	00e63023          	sd	a4,0(a2)
   14418:	0007b507          	fld	fa0,0(a5)
   1441c:	7c5060ef          	jal	1b3e0 <__extenddftf2>
   14420:	00a43023          	sd	a0,0(s0)
   14424:	00b43423          	sd	a1,8(s0)
   14428:	f95ff06f          	j	143bc <pop_arg+0x50>
   1442c:	00063783          	ld	a5,0(a2)
   14430:	00878713          	addi	a4,a5,8
   14434:	00e63023          	sd	a4,0(a2)
   14438:	0007a783          	lw	a5,0(a5)
   1443c:	00f53023          	sd	a5,0(a0)
   14440:	f7dff06f          	j	143bc <pop_arg+0x50>
   14444:	00063783          	ld	a5,0(a2)
   14448:	00878713          	addi	a4,a5,8
   1444c:	00e63023          	sd	a4,0(a2)
   14450:	0007e783          	lwu	a5,0(a5)
   14454:	00f53023          	sd	a5,0(a0)
   14458:	f65ff06f          	j	143bc <pop_arg+0x50>
   1445c:	00063783          	ld	a5,0(a2)
   14460:	00878713          	addi	a4,a5,8
   14464:	00e63023          	sd	a4,0(a2)
   14468:	0007c783          	lbu	a5,0(a5)
   1446c:	00f53023          	sd	a5,0(a0)
   14470:	f4dff06f          	j	143bc <pop_arg+0x50>
   14474:	00063783          	ld	a5,0(a2)
   14478:	00878713          	addi	a4,a5,8
   1447c:	00e63023          	sd	a4,0(a2)
   14480:	00078783          	lb	a5,0(a5)
   14484:	00f53023          	sd	a5,0(a0)
   14488:	f35ff06f          	j	143bc <pop_arg+0x50>
   1448c:	00063783          	ld	a5,0(a2)
   14490:	00878713          	addi	a4,a5,8
   14494:	00e63023          	sd	a4,0(a2)
   14498:	00079783          	lh	a5,0(a5)
   1449c:	00f53023          	sd	a5,0(a0)
   144a0:	f1dff06f          	j	143bc <pop_arg+0x50>
   144a4:	00008067          	ret

00000000000144a8 <pad.part.0>:
   144a8:	eb010113          	addi	sp,sp,-336
   144ac:	14813023          	sd	s0,320(sp)
   144b0:	13213823          	sd	s2,304(sp)
   144b4:	13313423          	sd	s3,296(sp)
   144b8:	11513c23          	sd	s5,280(sp)
   144bc:	14113423          	sd	ra,328(sp)
   144c0:	12913c23          	sd	s1,312(sp)
   144c4:	13413023          	sd	s4,288(sp)
   144c8:	0000ba97          	auipc	s5,0xb
   144cc:	a98aba83          	ld	s5,-1384(s5) # 1ef60 <_GLOBAL_OFFSET_TABLE_+0x8>
   144d0:	000ab783          	ld	a5,0(s5)
   144d4:	10f13423          	sd	a5,264(sp)
   144d8:	00000793          	li	a5,0
   144dc:	40d609bb          	subw	s3,a2,a3
   144e0:	10000793          	li	a5,256
   144e4:	00050913          	mv	s2,a0
   144e8:	00098413          	mv	s0,s3
   144ec:	0007861b          	sext.w	a2,a5
   144f0:	0137c463          	blt	a5,s3,144f8 <pad.part.0+0x50>
   144f4:	0009861b          	sext.w	a2,s3
   144f8:	00810a13          	addi	s4,sp,8
   144fc:	000a0513          	mv	a0,s4
   14500:	2c5020ef          	jal	16fc4 <memset>
   14504:	0ff00493          	li	s1,255
   14508:	00092703          	lw	a4,0(s2)
   1450c:	0334de63          	bge	s1,s3,14548 <pad.part.0+0xa0>
   14510:	00098413          	mv	s0,s3
   14514:	00c0006f          	j	14520 <pad.part.0+0x78>
   14518:	f004041b          	addiw	s0,s0,-256
   1451c:	0284f463          	bgeu	s1,s0,14544 <pad.part.0+0x9c>
   14520:	02077793          	andi	a5,a4,32
   14524:	fe079ae3          	bnez	a5,14518 <pad.part.0+0x70>
   14528:	00090613          	mv	a2,s2
   1452c:	10000593          	li	a1,256
   14530:	000a0513          	mv	a0,s4
   14534:	82dff0ef          	jal	13d60 <__fwritex>
   14538:	f004041b          	addiw	s0,s0,-256
   1453c:	00092703          	lw	a4,0(s2)
   14540:	fe84e0e3          	bltu	s1,s0,14520 <pad.part.0+0x78>
   14544:	0ff9f413          	zext.b	s0,s3
   14548:	02077713          	andi	a4,a4,32
   1454c:	02070e63          	beqz	a4,14588 <pad.part.0+0xe0>
   14550:	10813703          	ld	a4,264(sp)
   14554:	000ab783          	ld	a5,0(s5)
   14558:	00f747b3          	xor	a5,a4,a5
   1455c:	00000713          	li	a4,0
   14560:	02079e63          	bnez	a5,1459c <pad.part.0+0xf4>
   14564:	14813083          	ld	ra,328(sp)
   14568:	14013403          	ld	s0,320(sp)
   1456c:	13813483          	ld	s1,312(sp)
   14570:	13013903          	ld	s2,304(sp)
   14574:	12813983          	ld	s3,296(sp)
   14578:	12013a03          	ld	s4,288(sp)
   1457c:	11813a83          	ld	s5,280(sp)
   14580:	15010113          	addi	sp,sp,336
   14584:	00008067          	ret
   14588:	00090613          	mv	a2,s2
   1458c:	00040593          	mv	a1,s0
   14590:	000a0513          	mv	a0,s4
   14594:	fccff0ef          	jal	13d60 <__fwritex>
   14598:	fb9ff06f          	j	14550 <pad.part.0+0xa8>
   1459c:	929fc0ef          	jal	10ec4 <__stack_chk_fail>

00000000000145a0 <fmt_fp>:
   145a0:	fffff2b7          	lui	t0,0xfffff
   145a4:	81010113          	addi	sp,sp,-2032
   145a8:	a3028293          	addi	t0,t0,-1488 # ffffffffffffea30 <__BSS_END__+0xfffffffffffdedd0>
   145ac:	7e813023          	sd	s0,2016(sp)
   145b0:	7c913c23          	sd	s1,2008(sp)
   145b4:	7d213823          	sd	s2,2000(sp)
   145b8:	7d313423          	sd	s3,1992(sp)
   145bc:	7d413023          	sd	s4,1984(sp)
   145c0:	7b713423          	sd	s7,1960(sp)
   145c4:	7e113423          	sd	ra,2024(sp)
   145c8:	7b513c23          	sd	s5,1976(sp)
   145cc:	7b613823          	sd	s6,1968(sp)
   145d0:	7b813023          	sd	s8,1952(sp)
   145d4:	79913c23          	sd	s9,1944(sp)
   145d8:	79a13823          	sd	s10,1936(sp)
   145dc:	79b13423          	sd	s11,1928(sp)
   145e0:	00078b93          	mv	s7,a5
   145e4:	00510133          	add	sp,sp,t0
   145e8:	000027b7          	lui	a5,0x2
   145ec:	00070913          	mv	s2,a4
   145f0:	d0878713          	addi	a4,a5,-760 # 1d08 <exit-0xe450>
   145f4:	04010793          	addi	a5,sp,64
   145f8:	00068a13          	mv	s4,a3
   145fc:	00f70733          	add	a4,a4,a5
   14600:	0000b697          	auipc	a3,0xb
   14604:	9606b683          	ld	a3,-1696(a3) # 1ef60 <_GLOBAL_OFFSET_TABLE_+0x8>
   14608:	00058413          	mv	s0,a1
   1460c:	00050993          	mv	s3,a0
   14610:	0006b783          	ld	a5,0(a3)
   14614:	00f73023          	sd	a5,0(a4)
   14618:	00000793          	li	a5,0
   1461c:	00058513          	mv	a0,a1
   14620:	00060593          	mv	a1,a2
   14624:	00060493          	mv	s1,a2
   14628:	01013823          	sd	a6,16(sp)
   1462c:	04012223          	sw	zero,68(sp)
   14630:	15c030ef          	jal	1778c <__signbitl>
   14634:	66050c63          	beqz	a0,14cac <fmt_fp+0x70c>
   14638:	fff00793          	li	a5,-1
   1463c:	03f79793          	slli	a5,a5,0x3f
   14640:	00f4c4b3          	xor	s1,s1,a5
   14644:	00007797          	auipc	a5,0x7
   14648:	75c78793          	addi	a5,a5,1884 # 1bda0 <values.0+0x258>
   1464c:	00100d13          	li	s10,1
   14650:	02f13023          	sd	a5,32(sp)
   14654:	00040513          	mv	a0,s0
   14658:	00048593          	mv	a1,s1
   1465c:	0e8030ef          	jal	17744 <__fpclassifyl>
   14660:	00100793          	li	a5,1
   14664:	66a7da63          	bge	a5,a0,14cd8 <fmt_fp+0x738>
   14668:	00040513          	mv	a0,s0
   1466c:	00048593          	mv	a1,s1
   14670:	04410613          	addi	a2,sp,68
   14674:	120030ef          	jal	17794 <frexpl>
   14678:	00050613          	mv	a2,a0
   1467c:	00058693          	mv	a3,a1
   14680:	215030ef          	jal	18094 <__addtf3>
   14684:	01013783          	ld	a5,16(sp)
   14688:	00000613          	li	a2,0
   1468c:	00000693          	li	a3,0
   14690:	d5010d93          	addi	s11,sp,-688
   14694:	00058c93          	mv	s9,a1
   14698:	00050c13          	mv	s8,a0
   1469c:	00058493          	mv	s1,a1
   146a0:	0207eb13          	ori	s6,a5,32
   146a4:	00050413          	mv	s0,a0
   146a8:	2f4daa83          	lw	s5,756(s11)
   146ac:	285040ef          	jal	19130 <__eqtf2>
   146b0:	6e050863          	beqz	a0,14da0 <fmt_fp+0x800>
   146b4:	06100713          	li	a4,97
   146b8:	7ceb0e63          	beq	s6,a4,14e94 <fmt_fp+0x8f4>
   146bc:	00095463          	bgez	s2,146c4 <fmt_fp+0x124>
   146c0:	00600913          	li	s2,6
   146c4:	00008797          	auipc	a5,0x8
   146c8:	3ec78793          	addi	a5,a5,1004 # 1cab0 <states+0x230>
   146cc:	0007b603          	ld	a2,0(a5)
   146d0:	0087b683          	ld	a3,8(a5)
   146d4:	000c0513          	mv	a0,s8
   146d8:	000c8593          	mv	a1,s9
   146dc:	329040ef          	jal	19204 <__multf3>
   146e0:	fe3a8a9b          	addiw	s5,s5,-29
   146e4:	00050413          	mv	s0,a0
   146e8:	00058493          	mv	s1,a1
   146ec:	05512223          	sw	s5,68(sp)
   146f0:	000027b7          	lui	a5,0x2
   146f4:	b4878793          	addi	a5,a5,-1208 # 1b48 <exit-0xe610>
   146f8:	00278c33          	add	s8,a5,sp
   146fc:	000ad463          	bgez	s5,14704 <fmt_fp+0x164>
   14700:	04810c13          	addi	s8,sp,72
   14704:	00008797          	auipc	a5,0x8
   14708:	3bc78793          	addi	a5,a5,956 # 1cac0 <states+0x240>
   1470c:	0007bc83          	ld	s9,0(a5)
   14710:	0087b783          	ld	a5,8(a5)
   14714:	000c0d93          	mv	s11,s8
   14718:	00f13423          	sd	a5,8(sp)
   1471c:	00048593          	mv	a1,s1
   14720:	00040513          	mv	a0,s0
   14724:	2dd060ef          	jal	1b200 <__fixunstfsi>
   14728:	00ada023          	sw	a0,0(s11)
   1472c:	0005051b          	sext.w	a0,a0
   14730:	429060ef          	jal	1b358 <__floatunsitf>
   14734:	00050613          	mv	a2,a0
   14738:	00058693          	mv	a3,a1
   1473c:	00040513          	mv	a0,s0
   14740:	00048593          	mv	a1,s1
   14744:	7f8050ef          	jal	19f3c <__subtf3>
   14748:	00813683          	ld	a3,8(sp)
   1474c:	000c8613          	mv	a2,s9
   14750:	004d8d93          	addi	s11,s11,4
   14754:	2b1040ef          	jal	19204 <__multf3>
   14758:	00000613          	li	a2,0
   1475c:	00000693          	li	a3,0
   14760:	00050413          	mv	s0,a0
   14764:	00058493          	mv	s1,a1
   14768:	1c9040ef          	jal	19130 <__eqtf2>
   1476c:	fa0518e3          	bnez	a0,1471c <fmt_fp+0x17c>
   14770:	01504463          	bgtz	s5,14778 <fmt_fp+0x1d8>
   14774:	1800106f          	j	158f4 <fmt_fp+0x1354>
   14778:	0044c5b7          	lui	a1,0x44c
   1477c:	83058593          	addi	a1,a1,-2000 # 44b830 <__BSS_END__+0x42bbd0>
   14780:	a09b67b7          	lui	a5,0xa09b6
   14784:	02059593          	slli	a1,a1,0x20
   14788:	a5378793          	addi	a5,a5,-1453 # ffffffffa09b5a53 <__BSS_END__+0xffffffffa0995df3>
   1478c:	3b9ad537          	lui	a0,0x3b9ad
   14790:	00f585b3          	add	a1,a1,a5
   14794:	a0050513          	addi	a0,a0,-1536 # 3b9aca00 <__BSS_END__+0x3b98cda0>
   14798:	000c0493          	mv	s1,s8
   1479c:	01d00313          	li	t1,29
   147a0:	000a861b          	sext.w	a2,s5
   147a4:	01535463          	bge	t1,s5,147ac <fmt_fp+0x20c>
   147a8:	01d00613          	li	a2,29
   147ac:	ffcd8693          	addi	a3,s11,-4
   147b0:	0496e663          	bltu	a3,s1,147fc <fmt_fp+0x25c>
   147b4:	00000793          	li	a5,0
   147b8:	0006e703          	lwu	a4,0(a3)
   147bc:	02079793          	slli	a5,a5,0x20
   147c0:	0207d793          	srli	a5,a5,0x20
   147c4:	00c71733          	sll	a4,a4,a2
   147c8:	00f70733          	add	a4,a4,a5
   147cc:	00975793          	srli	a5,a4,0x9
   147d0:	02b7b7b3          	mulhu	a5,a5,a1
   147d4:	ffc68693          	addi	a3,a3,-4
   147d8:	00b7d793          	srli	a5,a5,0xb
   147dc:	02a78e33          	mul	t3,a5,a0
   147e0:	0007879b          	sext.w	a5,a5
   147e4:	41c70733          	sub	a4,a4,t3
   147e8:	00e6a223          	sw	a4,4(a3)
   147ec:	fc96f6e3          	bgeu	a3,s1,147b8 <fmt_fp+0x218>
   147f0:	00078663          	beqz	a5,147fc <fmt_fp+0x25c>
   147f4:	fef4ae23          	sw	a5,-4(s1)
   147f8:	ffc48493          	addi	s1,s1,-4
   147fc:	01b4e863          	bltu	s1,s11,1480c <fmt_fp+0x26c>
   14800:	0140006f          	j	14814 <fmt_fp+0x274>
   14804:	ffcd8d93          	addi	s11,s11,-4
   14808:	01b4f663          	bgeu	s1,s11,14814 <fmt_fp+0x274>
   1480c:	ffcda783          	lw	a5,-4(s11)
   14810:	fe078ae3          	beqz	a5,14804 <fmt_fp+0x264>
   14814:	40ca8abb          	subw	s5,s5,a2
   14818:	f95044e3          	bgtz	s5,147a0 <fmt_fp+0x200>
   1481c:	05512223          	sw	s5,68(sp)
   14820:	0a0a8c63          	beqz	s5,148d8 <fmt_fp+0x338>
   14824:	02091313          	slli	t1,s2,0x20
   14828:	38e397b7          	lui	a5,0x38e39
   1482c:	02035313          	srli	t1,t1,0x20
   14830:	e3978793          	addi	a5,a5,-455 # 38e38e39 <__BSS_END__+0x38e191d9>
   14834:	02f30333          	mul	t1,t1,a5
   14838:	3b9ade37          	lui	t3,0x3b9ad
   1483c:	a00e0e1b          	addiw	t3,t3,-1536 # 3b9aca00 <__BSS_END__+0x3b98cda0>
   14840:	ff700e93          	li	t4,-9
   14844:	06600f13          	li	t5,102
   14848:	00100f93          	li	t6,1
   1484c:	02135313          	srli	t1,t1,0x21
   14850:	00630313          	addi	t1,t1,6 # 40000006 <__BSS_END__+0x3ffe03a6>
   14854:	00231293          	slli	t0,t1,0x2
   14858:	01dadee3          	bge	s5,t4,15074 <fmt_fp+0xad4>
   1485c:	009a8a9b          	addiw	s5,s5,9
   14860:	00900613          	li	a2,9
   14864:	01b4fee3          	bgeu	s1,s11,15080 <fmt_fp+0xae0>
   14868:	00cf95bb          	sllw	a1,t6,a2
   1486c:	fff5859b          	addiw	a1,a1,-1
   14870:	40ce553b          	sraw	a0,t3,a2
   14874:	00048793          	mv	a5,s1
   14878:	00000393          	li	t2,0
   1487c:	0007a703          	lw	a4,0(a5)
   14880:	00478793          	addi	a5,a5,4
   14884:	00c756bb          	srlw	a3,a4,a2
   14888:	007686bb          	addw	a3,a3,t2
   1488c:	00b77733          	and	a4,a4,a1
   14890:	fed7ae23          	sw	a3,-4(a5)
   14894:	02a703bb          	mulw	t2,a4,a0
   14898:	ffb7e2e3          	bltu	a5,s11,1487c <fmt_fp+0x2dc>
   1489c:	0004a703          	lw	a4,0(s1)
   148a0:	00048793          	mv	a5,s1
   148a4:	00071463          	bnez	a4,148ac <fmt_fp+0x30c>
   148a8:	00448793          	addi	a5,s1,4
   148ac:	00038663          	beqz	t2,148b8 <fmt_fp+0x318>
   148b0:	007da023          	sw	t2,0(s11)
   148b4:	004d8d93          	addi	s11,s11,4
   148b8:	00078493          	mv	s1,a5
   148bc:	7deb0c63          	beq	s6,t5,15094 <fmt_fp+0xaf4>
   148c0:	40fd8733          	sub	a4,s11,a5
   148c4:	40275713          	srai	a4,a4,0x2
   148c8:	00e35463          	bge	t1,a4,148d0 <fmt_fp+0x330>
   148cc:	00578db3          	add	s11,a5,t0
   148d0:	f80a94e3          	bnez	s5,14858 <fmt_fp+0x2b8>
   148d4:	04012223          	sw	zero,68(sp)
   148d8:	19b4fee3          	bgeu	s1,s11,15274 <fmt_fp+0xcd4>
   148dc:	409c07b3          	sub	a5,s8,s1
   148e0:	0004a683          	lw	a3,0(s1)
   148e4:	4027d793          	srai	a5,a5,0x2
   148e8:	0037989b          	slliw	a7,a5,0x3
   148ec:	f9ab0613          	addi	a2,s6,-102
   148f0:	00900713          	li	a4,9
   148f4:	00f888bb          	addw	a7,a7,a5
   148f8:	00c03633          	snez	a2,a2
   148fc:	00a00793          	li	a5,10
   14900:	00d77c63          	bgeu	a4,a3,14918 <fmt_fp+0x378>
   14904:	0027971b          	slliw	a4,a5,0x2
   14908:	00f707bb          	addw	a5,a4,a5
   1490c:	0017979b          	slliw	a5,a5,0x1
   14910:	0018889b          	addiw	a7,a7,1
   14914:	fef6f8e3          	bgeu	a3,a5,14904 <fmt_fp+0x364>
   14918:	00000793          	li	a5,0
   1491c:	00060463          	beqz	a2,14924 <fmt_fp+0x384>
   14920:	00088793          	mv	a5,a7
   14924:	40f907bb          	subw	a5,s2,a5
   14928:	06700713          	li	a4,103
   1492c:	00eb1663          	bne	s6,a4,14938 <fmt_fp+0x398>
   14930:	01203733          	snez	a4,s2
   14934:	40e787bb          	subw	a5,a5,a4
   14938:	418d8733          	sub	a4,s11,s8
   1493c:	40275713          	srai	a4,a4,0x2
   14940:	fff70713          	addi	a4,a4,-1
   14944:	00371693          	slli	a3,a4,0x3
   14948:	00e68733          	add	a4,a3,a4
   1494c:	12e7d463          	bge	a5,a4,14a74 <fmt_fp+0x4d4>
   14950:	000246b7          	lui	a3,0x24
   14954:	38e39737          	lui	a4,0x38e39
   14958:	00d787bb          	addw	a5,a5,a3
   1495c:	e3970713          	addi	a4,a4,-455 # 38e38e39 <__BSS_END__+0x38e191d9>
   14960:	02e78733          	mul	a4,a5,a4
   14964:	41f7d59b          	sraiw	a1,a5,0x1f
   14968:	ffff06b7          	lui	a3,0xffff0
   1496c:	00468693          	addi	a3,a3,4 # ffffffffffff0004 <__BSS_END__+0xfffffffffffd03a4>
   14970:	00900613          	li	a2,9
   14974:	42175713          	srai	a4,a4,0x21
   14978:	40b7073b          	subw	a4,a4,a1
   1497c:	0037159b          	slliw	a1,a4,0x3
   14980:	00e585bb          	addw	a1,a1,a4
   14984:	40b787bb          	subw	a5,a5,a1
   14988:	00271c93          	slli	s9,a4,0x2
   1498c:	00dc8cb3          	add	s9,s9,a3
   14990:	0017879b          	addiw	a5,a5,1
   14994:	019c0cb3          	add	s9,s8,s9
   14998:	00c79463          	bne	a5,a2,149a0 <fmt_fp+0x400>
   1499c:	0780106f          	j	15a14 <fmt_fp+0x1474>
   149a0:	00a00693          	li	a3,10
   149a4:	0026971b          	slliw	a4,a3,0x2
   149a8:	00d7073b          	addw	a4,a4,a3
   149ac:	0017879b          	addiw	a5,a5,1
   149b0:	0017169b          	slliw	a3,a4,0x1
   149b4:	fec798e3          	bne	a5,a2,149a4 <fmt_fp+0x404>
   149b8:	00068313          	mv	t1,a3
   149bc:	000ca403          	lw	s0,0(s9)
   149c0:	0264773b          	remuw	a4,s0,t1
   149c4:	4a0710e3          	bnez	a4,15664 <fmt_fp+0x10c4>
   149c8:	004c8793          	addi	a5,s9,4
   149cc:	000d8613          	mv	a2,s11
   149d0:	08fd8e63          	beq	s11,a5,14a6c <fmt_fp+0x4cc>
   149d4:	026457bb          	divuw	a5,s0,t1
   149d8:	0017f793          	andi	a5,a5,1
   149dc:	68078ae3          	beqz	a5,15870 <fmt_fp+0x12d0>
   149e0:	00008797          	auipc	a5,0x8
   149e4:	09078793          	addi	a5,a5,144 # 1ca70 <states+0x1f0>
   149e8:	00008697          	auipc	a3,0x8
   149ec:	09868693          	addi	a3,a3,152 # 1ca80 <states+0x200>
   149f0:	0007be03          	ld	t3,0(a5)
   149f4:	0006b603          	ld	a2,0(a3)
   149f8:	0087b783          	ld	a5,8(a5)
   149fc:	0086b683          	ld	a3,8(a3)
   14a00:	020d0263          	beqz	s10,14a24 <fmt_fp+0x484>
   14a04:	02013583          	ld	a1,32(sp)
   14a08:	0005c503          	lbu	a0,0(a1)
   14a0c:	02d00593          	li	a1,45
   14a10:	00b51a63          	bne	a0,a1,14a24 <fmt_fp+0x484>
   14a14:	fff00593          	li	a1,-1
   14a18:	03f59593          	slli	a1,a1,0x3f
   14a1c:	00b7c7b3          	xor	a5,a5,a1
   14a20:	00b6c6b3          	xor	a3,a3,a1
   14a24:	000e0513          	mv	a0,t3
   14a28:	00078593          	mv	a1,a5
   14a2c:	02613823          	sd	t1,48(sp)
   14a30:	03113c23          	sd	a7,56(sp)
   14a34:	01c13c23          	sd	t3,24(sp)
   14a38:	00f13423          	sd	a5,8(sp)
   14a3c:	40e4043b          	subw	s0,s0,a4
   14a40:	654030ef          	jal	18094 <__addtf3>
   14a44:	01813e03          	ld	t3,24(sp)
   14a48:	00813783          	ld	a5,8(sp)
   14a4c:	000e0613          	mv	a2,t3
   14a50:	00078693          	mv	a3,a5
   14a54:	6dc040ef          	jal	19130 <__eqtf2>
   14a58:	03013303          	ld	t1,48(sp)
   14a5c:	480512e3          	bnez	a0,156e0 <fmt_fp+0x1140>
   14a60:	03813883          	ld	a7,56(sp)
   14a64:	008ca023          	sw	s0,0(s9)
   14a68:	004c8613          	addi	a2,s9,4
   14a6c:	01b67463          	bgeu	a2,s11,14a74 <fmt_fp+0x4d4>
   14a70:	00060d93          	mv	s11,a2
   14a74:	01b4e863          	bltu	s1,s11,14a84 <fmt_fp+0x4e4>
   14a78:	0140006f          	j	14a8c <fmt_fp+0x4ec>
   14a7c:	ffcd8d93          	addi	s11,s11,-4
   14a80:	01b4f663          	bgeu	s1,s11,14a8c <fmt_fp+0x4ec>
   14a84:	ffcda783          	lw	a5,-4(s11)
   14a88:	fe078ae3          	beqz	a5,14a7c <fmt_fp+0x4dc>
   14a8c:	06700793          	li	a5,103
   14a90:	04fb04e3          	beq	s6,a5,152d8 <fmt_fp+0xd38>
   14a94:	000910e3          	bnez	s2,15294 <fmt_fp+0xcf4>
   14a98:	003bd413          	srli	s0,s7,0x3
   14a9c:	00147413          	andi	s0,s0,1
   14aa0:	800007b7          	lui	a5,0x80000
   14aa4:	0014041b          	addiw	s0,s0,1
   14aa8:	fff7879b          	addiw	a5,a5,-1 # 7fffffff <__BSS_END__+0x7ffe039f>
   14aac:	408787bb          	subw	a5,a5,s0
   14ab0:	06600713          	li	a4,102
   14ab4:	00078513          	mv	a0,a5
   14ab8:	62eb08e3          	beq	s6,a4,158e8 <fmt_fp+0x1348>
   14abc:	41f8d79b          	sraiw	a5,a7,0x1f
   14ac0:	00f8ce33          	xor	t3,a7,a5
   14ac4:	40fe0e3b          	subw	t3,t3,a5
   14ac8:	6e088ae3          	beqz	a7,159bc <fmt_fp+0x141c>
   14acc:	ccccd7b7          	lui	a5,0xccccd
   14ad0:	00002737          	lui	a4,0x2
   14ad4:	ccd78793          	addi	a5,a5,-819 # ffffffffcccccccd <__BSS_END__+0xffffffffcccad06d>
   14ad8:	d1c70713          	addi	a4,a4,-740 # 1d1c <exit-0xe43c>
   14adc:	02079593          	slli	a1,a5,0x20
   14ae0:	00270cb3          	add	s9,a4,sp
   14ae4:	00f585b3          	add	a1,a1,a5
   14ae8:	000c8713          	mv	a4,s9
   14aec:	00900313          	li	t1,9
   14af0:	02be36b3          	mulhu	a3,t3,a1
   14af4:	fff70713          	addi	a4,a4,-1
   14af8:	000e0613          	mv	a2,t3
   14afc:	0036d693          	srli	a3,a3,0x3
   14b00:	00269793          	slli	a5,a3,0x2
   14b04:	00d787b3          	add	a5,a5,a3
   14b08:	00179793          	slli	a5,a5,0x1
   14b0c:	40fe07b3          	sub	a5,t3,a5
   14b10:	0307879b          	addiw	a5,a5,48
   14b14:	00f70023          	sb	a5,0(a4)
   14b18:	00068e13          	mv	t3,a3
   14b1c:	fcc36ae3          	bltu	t1,a2,14af0 <fmt_fp+0x550>
   14b20:	40ec87b3          	sub	a5,s9,a4
   14b24:	00100693          	li	a3,1
   14b28:	00f6ce63          	blt	a3,a5,14b44 <fmt_fp+0x5a4>
   14b2c:	03000613          	li	a2,48
   14b30:	00100693          	li	a3,1
   14b34:	fff70713          	addi	a4,a4,-1
   14b38:	40ec87b3          	sub	a5,s9,a4
   14b3c:	00c70023          	sb	a2,0(a4)
   14b40:	fef6dae3          	bge	a3,a5,14b34 <fmt_fp+0x594>
   14b44:	fff8c793          	not	a5,a7
   14b48:	43f7d793          	srai	a5,a5,0x3f
   14b4c:	ffe7f793          	andi	a5,a5,-2
   14b50:	02d78793          	addi	a5,a5,45
   14b54:	fef70fa3          	sb	a5,-1(a4)
   14b58:	01013783          	ld	a5,16(sp)
   14b5c:	ffe70693          	addi	a3,a4,-2
   14b60:	02d13423          	sd	a3,40(sp)
   14b64:	fef70f23          	sb	a5,-2(a4)
   14b68:	40dc8cb3          	sub	s9,s9,a3
   14b6c:	739544e3          	blt	a0,s9,15a94 <fmt_fp+0x14f4>
   14b70:	008c843b          	addw	s0,s9,s0
   14b74:	800007b7          	lui	a5,0x80000
   14b78:	fff7879b          	addiw	a5,a5,-1 # 7fffffff <__BSS_END__+0x7ffe039f>
   14b7c:	41a787bb          	subw	a5,a5,s10
   14b80:	7087cae3          	blt	a5,s0,15a94 <fmt_fp+0x14f4>
   14b84:	00dbd793          	srli	a5,s7,0xd
   14b88:	0097f793          	andi	a5,a5,9
   14b8c:	008d043b          	addw	s0,s10,s0
   14b90:	0a0790e3          	bnez	a5,15430 <fmt_fp+0xe90>
   14b94:	01445c63          	bge	s0,s4,14bac <fmt_fp+0x60c>
   14b98:	00040693          	mv	a3,s0
   14b9c:	000a0613          	mv	a2,s4
   14ba0:	02000593          	li	a1,32
   14ba4:	00098513          	mv	a0,s3
   14ba8:	901ff0ef          	jal	144a8 <pad.part.0>
   14bac:	0009a683          	lw	a3,0(s3)
   14bb0:	0206f793          	andi	a5,a3,32
   14bb4:	30078ae3          	beqz	a5,156c8 <fmt_fp+0x1128>
   14bb8:	06600793          	li	a5,102
   14bbc:	0afb0ce3          	beq	s6,a5,15474 <fmt_fp+0xed4>
   14bc0:	01b4e463          	bltu	s1,s11,14bc8 <fmt_fp+0x628>
   14bc4:	00448d93          	addi	s11,s1,4
   14bc8:	ccccd7b7          	lui	a5,0xccccd
   14bcc:	ccd78793          	addi	a5,a5,-819 # ffffffffcccccccd <__BSS_END__+0xffffffffcccad06d>
   14bd0:	02079b13          	slli	s6,a5,0x20
   14bd4:	00fb0b33          	add	s6,s6,a5
   14bd8:	000027b7          	lui	a5,0x2
   14bdc:	d2978713          	addi	a4,a5,-727 # 1d29 <exit-0xe42f>
   14be0:	d2078793          	addi	a5,a5,-736
   14be4:	00278cb3          	add	s9,a5,sp
   14be8:	008bf793          	andi	a5,s7,8
   14bec:	00f13c23          	sd	a5,24(sp)
   14bf0:	00048893          	mv	a7,s1
   14bf4:	00270ab3          	add	s5,a4,sp
   14bf8:	00900c13          	li	s8,9
   14bfc:	03000d13          	li	s10,48
   14c00:	08094063          	bltz	s2,14c80 <fmt_fp+0x6e0>
   14c04:	0008e783          	lwu	a5,0(a7)
   14c08:	000a8313          	mv	t1,s5
   14c0c:	000a8513          	mv	a0,s5
   14c10:	5a078263          	beqz	a5,151b4 <fmt_fp+0xc14>
   14c14:	0367b733          	mulhu	a4,a5,s6
   14c18:	00078593          	mv	a1,a5
   14c1c:	fff50513          	addi	a0,a0,-1
   14c20:	00375713          	srli	a4,a4,0x3
   14c24:	00271613          	slli	a2,a4,0x2
   14c28:	00e60633          	add	a2,a2,a4
   14c2c:	00161613          	slli	a2,a2,0x1
   14c30:	40c787b3          	sub	a5,a5,a2
   14c34:	0307879b          	addiw	a5,a5,48
   14c38:	00f50023          	sb	a5,0(a0)
   14c3c:	00070793          	mv	a5,a4
   14c40:	fcbc6ae3          	bltu	s8,a1,14c14 <fmt_fp+0x674>
   14c44:	57550e63          	beq	a0,s5,151c0 <fmt_fp+0xc20>
   14c48:	58988863          	beq	a7,s1,151d8 <fmt_fp+0xc38>
   14c4c:	62acfe63          	bgeu	s9,a0,15288 <fmt_fp+0xce8>
   14c50:	fff50513          	addi	a0,a0,-1
   14c54:	01a50023          	sb	s10,0(a0)
   14c58:	ff951ce3          	bne	a0,s9,14c50 <fmt_fp+0x6b0>
   14c5c:	0206f693          	andi	a3,a3,32
   14c60:	000c8793          	mv	a5,s9
   14c64:	40f30333          	sub	t1,t1,a5
   14c68:	4e068c63          	beqz	a3,15160 <fmt_fp+0xbc0>
   14c6c:	00488893          	addi	a7,a7,4
   14c70:	4069093b          	subw	s2,s2,t1
   14c74:	53b8f063          	bgeu	a7,s11,15194 <fmt_fp+0xbf4>
   14c78:	0009a683          	lw	a3,0(s3)
   14c7c:	f80954e3          	bgez	s2,14c04 <fmt_fp+0x664>
   14c80:	0206f693          	andi	a3,a3,32
   14c84:	1a069863          	bnez	a3,14e34 <fmt_fp+0x894>
   14c88:	000027b7          	lui	a5,0x2
   14c8c:	d1c78793          	addi	a5,a5,-740 # 1d1c <exit-0xe43c>
   14c90:	002785b3          	add	a1,a5,sp
   14c94:	02813783          	ld	a5,40(sp)
   14c98:	00098613          	mv	a2,s3
   14c9c:	40f585b3          	sub	a1,a1,a5
   14ca0:	00078513          	mv	a0,a5
   14ca4:	8bcff0ef          	jal	13d60 <__fwritex>
   14ca8:	18c0006f          	j	14e34 <fmt_fp+0x894>
   14cac:	034b9793          	slli	a5,s7,0x34
   14cb0:	1007d263          	bgez	a5,14db4 <fmt_fp+0x814>
   14cb4:	00007797          	auipc	a5,0x7
   14cb8:	0ef78793          	addi	a5,a5,239 # 1bda3 <values.0+0x25b>
   14cbc:	00040513          	mv	a0,s0
   14cc0:	00048593          	mv	a1,s1
   14cc4:	02f13023          	sd	a5,32(sp)
   14cc8:	27d020ef          	jal	17744 <__fpclassifyl>
   14ccc:	00100793          	li	a5,1
   14cd0:	00100d13          	li	s10,1
   14cd4:	98a7cae3          	blt	a5,a0,14668 <fmt_fp+0xc8>
   14cd8:	01013783          	ld	a5,16(sp)
   14cdc:	00040613          	mv	a2,s0
   14ce0:	00040513          	mv	a0,s0
   14ce4:	0207fa93          	andi	s5,a5,32
   14ce8:	00048693          	mv	a3,s1
   14cec:	00048593          	mv	a1,s1
   14cf0:	0e0a8463          	beqz	s5,14dd8 <fmt_fp+0x838>
   14cf4:	43c040ef          	jal	19130 <__eqtf2>
   14cf8:	00007497          	auipc	s1,0x7
   14cfc:	0d048493          	addi	s1,s1,208 # 1bdc8 <values.0+0x280>
   14d00:	18050463          	beqz	a0,14e88 <fmt_fp+0x8e8>
   14d04:	032b9793          	slli	a5,s7,0x32
   14d08:	003d041b          	addiw	s0,s10,3
   14d0c:	0e07c863          	bltz	a5,14dfc <fmt_fp+0x85c>
   14d10:	15444a63          	blt	s0,s4,14e64 <fmt_fp+0x8c4>
   14d14:	0009a783          	lw	a5,0(s3)
   14d18:	0207f793          	andi	a5,a5,32
   14d1c:	0e078663          	beqz	a5,14e08 <fmt_fp+0x868>
   14d20:	0004051b          	sext.w	a0,s0
   14d24:	01445463          	bge	s0,s4,14d2c <fmt_fp+0x78c>
   14d28:	000a051b          	sext.w	a0,s4
   14d2c:	000027b7          	lui	a5,0x2
   14d30:	04010713          	addi	a4,sp,64
   14d34:	d0878793          	addi	a5,a5,-760 # 1d08 <exit-0xe450>
   14d38:	00e787b3          	add	a5,a5,a4
   14d3c:	0000a697          	auipc	a3,0xa
   14d40:	2246b683          	ld	a3,548(a3) # 1ef60 <_GLOBAL_OFFSET_TABLE_+0x8>
   14d44:	0007b703          	ld	a4,0(a5)
   14d48:	0006b783          	ld	a5,0(a3)
   14d4c:	00f747b3          	xor	a5,a4,a5
   14d50:	00000713          	li	a4,0
   14d54:	560796e3          	bnez	a5,15ac0 <fmt_fp+0x1520>
   14d58:	000012b7          	lui	t0,0x1
   14d5c:	5d028293          	addi	t0,t0,1488 # 15d0 <exit-0xeb88>
   14d60:	00510133          	add	sp,sp,t0
   14d64:	7e813083          	ld	ra,2024(sp)
   14d68:	7e013403          	ld	s0,2016(sp)
   14d6c:	7d813483          	ld	s1,2008(sp)
   14d70:	7d013903          	ld	s2,2000(sp)
   14d74:	7c813983          	ld	s3,1992(sp)
   14d78:	7c013a03          	ld	s4,1984(sp)
   14d7c:	7b813a83          	ld	s5,1976(sp)
   14d80:	7b013b03          	ld	s6,1968(sp)
   14d84:	7a813b83          	ld	s7,1960(sp)
   14d88:	7a013c03          	ld	s8,1952(sp)
   14d8c:	79813c83          	ld	s9,1944(sp)
   14d90:	79013d03          	ld	s10,1936(sp)
   14d94:	78813d83          	ld	s11,1928(sp)
   14d98:	7f010113          	addi	sp,sp,2032
   14d9c:	00008067          	ret
   14da0:	06100793          	li	a5,97
   14da4:	0efb0c63          	beq	s6,a5,14e9c <fmt_fp+0x8fc>
   14da8:	940954e3          	bgez	s2,146f0 <fmt_fp+0x150>
   14dac:	00600913          	li	s2,6
   14db0:	941ff06f          	j	146f0 <fmt_fp+0x150>
   14db4:	00007797          	auipc	a5,0x7
   14db8:	fed78793          	addi	a5,a5,-19 # 1bda1 <values.0+0x259>
   14dbc:	001bfd13          	andi	s10,s7,1
   14dc0:	02f13023          	sd	a5,32(sp)
   14dc4:	880d08e3          	beqz	s10,14654 <fmt_fp+0xb4>
   14dc8:	00007797          	auipc	a5,0x7
   14dcc:	fde78793          	addi	a5,a5,-34 # 1bda6 <values.0+0x25e>
   14dd0:	02f13023          	sd	a5,32(sp)
   14dd4:	881ff06f          	j	14654 <fmt_fp+0xb4>
   14dd8:	358040ef          	jal	19130 <__eqtf2>
   14ddc:	00007497          	auipc	s1,0x7
   14de0:	fe448493          	addi	s1,s1,-28 # 1bdc0 <values.0+0x278>
   14de4:	f20510e3          	bnez	a0,14d04 <fmt_fp+0x764>
   14de8:	032b9793          	slli	a5,s7,0x32
   14dec:	00007497          	auipc	s1,0x7
   14df0:	fcc48493          	addi	s1,s1,-52 # 1bdb8 <values.0+0x270>
   14df4:	003d041b          	addiw	s0,s10,3
   14df8:	f007dce3          	bgez	a5,14d10 <fmt_fp+0x770>
   14dfc:	0009a783          	lw	a5,0(s3)
   14e00:	0207f793          	andi	a5,a5,32
   14e04:	02079863          	bnez	a5,14e34 <fmt_fp+0x894>
   14e08:	02013503          	ld	a0,32(sp)
   14e0c:	000d0593          	mv	a1,s10
   14e10:	00098613          	mv	a2,s3
   14e14:	f4dfe0ef          	jal	13d60 <__fwritex>
   14e18:	0009a783          	lw	a5,0(s3)
   14e1c:	0207f793          	andi	a5,a5,32
   14e20:	00079a63          	bnez	a5,14e34 <fmt_fp+0x894>
   14e24:	00048513          	mv	a0,s1
   14e28:	00098613          	mv	a2,s3
   14e2c:	00300593          	li	a1,3
   14e30:	f31fe0ef          	jal	13d60 <__fwritex>
   14e34:	000027b7          	lui	a5,0x2
   14e38:	00fbc7b3          	xor	a5,s7,a5
   14e3c:	00d7d713          	srli	a4,a5,0xd
   14e40:	00977713          	andi	a4,a4,9
   14e44:	ec071ee3          	bnez	a4,14d20 <fmt_fp+0x780>
   14e48:	ed445ce3          	bge	s0,s4,14d20 <fmt_fp+0x780>
   14e4c:	00098513          	mv	a0,s3
   14e50:	00040693          	mv	a3,s0
   14e54:	000a0613          	mv	a2,s4
   14e58:	02000593          	li	a1,32
   14e5c:	e4cff0ef          	jal	144a8 <pad.part.0>
   14e60:	ec1ff06f          	j	14d20 <fmt_fp+0x780>
   14e64:	00040693          	mv	a3,s0
   14e68:	000a0613          	mv	a2,s4
   14e6c:	02000593          	li	a1,32
   14e70:	00098513          	mv	a0,s3
   14e74:	e34ff0ef          	jal	144a8 <pad.part.0>
   14e78:	0009a783          	lw	a5,0(s3)
   14e7c:	0207f793          	andi	a5,a5,32
   14e80:	ea0790e3          	bnez	a5,14d20 <fmt_fp+0x780>
   14e84:	f85ff06f          	j	14e08 <fmt_fp+0x868>
   14e88:	00007497          	auipc	s1,0x7
   14e8c:	f4848493          	addi	s1,s1,-184 # 1bdd0 <values.0+0x288>
   14e90:	e75ff06f          	j	14d04 <fmt_fp+0x764>
   14e94:	fffa8a9b          	addiw	s5,s5,-1
   14e98:	2f5daa23          	sw	s5,756(s11)
   14e9c:	01013703          	ld	a4,16(sp)
   14ea0:	02077793          	andi	a5,a4,32
   14ea4:	02f13823          	sd	a5,48(sp)
   14ea8:	00078863          	beqz	a5,14eb8 <fmt_fp+0x918>
   14eac:	02013783          	ld	a5,32(sp)
   14eb0:	00978793          	addi	a5,a5,9 # 2009 <exit-0xe14f>
   14eb4:	02f13023          	sd	a5,32(sp)
   14eb8:	002d071b          	addiw	a4,s10,2
   14ebc:	01a00793          	li	a5,26
   14ec0:	02e13423          	sd	a4,40(sp)
   14ec4:	00008b17          	auipc	s6,0x8
   14ec8:	b8cb0b13          	addi	s6,s6,-1140 # 1ca50 <states+0x1d0>
   14ecc:	0727ec63          	bltu	a5,s2,14f44 <fmt_fp+0x9a4>
   14ed0:	000b3603          	ld	a2,0(s6)
   14ed4:	008b3683          	ld	a3,8(s6)
   14ed8:	41278dbb          	subw	s11,a5,s2
   14edc:	00060493          	mv	s1,a2
   14ee0:	00068d13          	mv	s10,a3
   14ee4:	fff00413          	li	s0,-1
   14ee8:	00060513          	mv	a0,a2
   14eec:	00068593          	mv	a1,a3
   14ef0:	00048613          	mv	a2,s1
   14ef4:	000d0693          	mv	a3,s10
   14ef8:	30c040ef          	jal	19204 <__multf3>
   14efc:	fffd8d9b          	addiw	s11,s11,-1
   14f00:	00050613          	mv	a2,a0
   14f04:	00058693          	mv	a3,a1
   14f08:	fe8d90e3          	bne	s11,s0,14ee8 <fmt_fp+0x948>
   14f0c:	02013783          	ld	a5,32(sp)
   14f10:	02d00713          	li	a4,45
   14f14:	0007c583          	lbu	a1,0(a5)
   14f18:	24e58ce3          	beq	a1,a4,15970 <fmt_fp+0x13d0>
   14f1c:	000c0513          	mv	a0,s8
   14f20:	000c8593          	mv	a1,s9
   14f24:	00c13c23          	sd	a2,24(sp)
   14f28:	00d13423          	sd	a3,8(sp)
   14f2c:	168030ef          	jal	18094 <__addtf3>
   14f30:	01813603          	ld	a2,24(sp)
   14f34:	00813683          	ld	a3,8(sp)
   14f38:	004050ef          	jal	19f3c <__subtf3>
   14f3c:	00050413          	mv	s0,a0
   14f40:	00058493          	mv	s1,a1
   14f44:	41fad71b          	sraiw	a4,s5,0x1f
   14f48:	00eac7b3          	xor	a5,s5,a4
   14f4c:	40e787bb          	subw	a5,a5,a4
   14f50:	2c0a88e3          	beqz	s5,15a20 <fmt_fp+0x1480>
   14f54:	ccccd737          	lui	a4,0xccccd
   14f58:	000026b7          	lui	a3,0x2
   14f5c:	ccd70713          	addi	a4,a4,-819 # ffffffffcccccccd <__BSS_END__+0xffffffffcccad06d>
   14f60:	d1c68693          	addi	a3,a3,-740 # 1d1c <exit-0xe43c>
   14f64:	02071513          	slli	a0,a4,0x20
   14f68:	00268cb3          	add	s9,a3,sp
   14f6c:	00e50533          	add	a0,a0,a4
   14f70:	000c8613          	mv	a2,s9
   14f74:	00900813          	li	a6,9
   14f78:	02a7b733          	mulhu	a4,a5,a0
   14f7c:	00078593          	mv	a1,a5
   14f80:	00060313          	mv	t1,a2
   14f84:	fff60613          	addi	a2,a2,-1
   14f88:	00375713          	srli	a4,a4,0x3
   14f8c:	00271693          	slli	a3,a4,0x2
   14f90:	00e686b3          	add	a3,a3,a4
   14f94:	00169693          	slli	a3,a3,0x1
   14f98:	40d787b3          	sub	a5,a5,a3
   14f9c:	0307879b          	addiw	a5,a5,48
   14fa0:	00f60023          	sb	a5,0(a2)
   14fa4:	00070793          	mv	a5,a4
   14fa8:	fcb868e3          	bltu	a6,a1,14f78 <fmt_fp+0x9d8>
   14fac:	059600e3          	beq	a2,s9,157ec <fmt_fp+0x124c>
   14fb0:	02d00713          	li	a4,45
   14fb4:	000ac463          	bltz	s5,14fbc <fmt_fp+0xa1c>
   14fb8:	02b00713          	li	a4,43
   14fbc:	000b3783          	ld	a5,0(s6)
   14fc0:	03014c03          	lbu	s8,48(sp)
   14fc4:	fee60fa3          	sb	a4,-1(a2)
   14fc8:	00f13423          	sd	a5,8(sp)
   14fcc:	008b3783          	ld	a5,8(s6)
   14fd0:	00100d93          	li	s11,1
   14fd4:	00f13c23          	sd	a5,24(sp)
   14fd8:	01013783          	ld	a5,16(sp)
   14fdc:	00f78a9b          	addiw	s5,a5,15
   14fe0:	000027b7          	lui	a5,0x2
   14fe4:	d2078793          	addi	a5,a5,-736 # 1d20 <exit-0xe438>
   14fe8:	00278d33          	add	s10,a5,sp
   14fec:	ffe60793          	addi	a5,a2,-2
   14ff0:	ff560f23          	sb	s5,-2(a2)
   14ff4:	00f13823          	sd	a5,16(sp)
   14ff8:	000d0a93          	mv	s5,s10
   14ffc:	00048593          	mv	a1,s1
   15000:	00040513          	mv	a0,s0
   15004:	10c060ef          	jal	1b110 <__fixtfsi>
   15008:	00008797          	auipc	a5,0x8
   1500c:	86878793          	addi	a5,a5,-1944 # 1c870 <xdigits>
   15010:	0005051b          	sext.w	a0,a0
   15014:	00a78733          	add	a4,a5,a0
   15018:	00074703          	lbu	a4,0(a4)
   1501c:	001a8b13          	addi	s6,s5,1
   15020:	00ec6733          	or	a4,s8,a4
   15024:	00ea8023          	sb	a4,0(s5)
   15028:	298060ef          	jal	1b2c0 <__floatsitf>
   1502c:	00050613          	mv	a2,a0
   15030:	00058693          	mv	a3,a1
   15034:	00040513          	mv	a0,s0
   15038:	00048593          	mv	a1,s1
   1503c:	701040ef          	jal	19f3c <__subtf3>
   15040:	00813603          	ld	a2,8(sp)
   15044:	01813683          	ld	a3,24(sp)
   15048:	1bc040ef          	jal	19204 <__multf3>
   1504c:	41ab0733          	sub	a4,s6,s10
   15050:	00050413          	mv	s0,a0
   15054:	00058493          	mv	s1,a1
   15058:	00000613          	li	a2,0
   1505c:	00000693          	li	a3,0
   15060:	05b70063          	beq	a4,s11,150a0 <fmt_fp+0xb00>
   15064:	0cc040ef          	jal	19130 <__eqtf2>
   15068:	38050e63          	beqz	a0,15404 <fmt_fp+0xe64>
   1506c:	000b0a93          	mv	s5,s6
   15070:	f8dff06f          	j	14ffc <fmt_fp+0xa5c>
   15074:	4150063b          	negw	a2,s5
   15078:	00000a93          	li	s5,0
   1507c:	ffb4e663          	bltu	s1,s11,14868 <fmt_fp+0x2c8>
   15080:	0004a783          	lw	a5,0(s1)
   15084:	1e078e63          	beqz	a5,15280 <fmt_fp+0xce0>
   15088:	06600793          	li	a5,102
   1508c:	84fb12e3          	bne	s6,a5,148d0 <fmt_fp+0x330>
   15090:	00048793          	mv	a5,s1
   15094:	00078493          	mv	s1,a5
   15098:	000c0793          	mv	a5,s8
   1509c:	825ff06f          	j	148c0 <fmt_fp+0x320>
   150a0:	090040ef          	jal	19130 <__eqtf2>
   150a4:	1a051e63          	bnez	a0,15260 <fmt_fp+0xcc0>
   150a8:	35205463          	blez	s2,153f0 <fmt_fp+0xe50>
   150ac:	01013783          	ld	a5,16(sp)
   150b0:	80000737          	lui	a4,0x80000
   150b4:	ffd74713          	xori	a4,a4,-3
   150b8:	40fc8cb3          	sub	s9,s9,a5
   150bc:	02813783          	ld	a5,40(sp)
   150c0:	41970733          	sub	a4,a4,s9
   150c4:	02e00693          	li	a3,46
   150c8:	40f70733          	sub	a4,a4,a5
   150cc:	00da80a3          	sb	a3,1(s5)
   150d0:	002a8b13          	addi	s6,s5,2
   150d4:	1d2740e3          	blt	a4,s2,15a94 <fmt_fp+0x14f4>
   150d8:	41ab0ab3          	sub	s5,s6,s10
   150dc:	fffa8713          	addi	a4,s5,-1
   150e0:	76e95a63          	bge	s2,a4,15854 <fmt_fp+0x12b4>
   150e4:	019a843b          	addw	s0,s5,s9
   150e8:	00000493          	li	s1,0
   150ec:	02813783          	ld	a5,40(sp)
   150f0:	00dbd713          	srli	a4,s7,0xd
   150f4:	00977713          	andi	a4,a4,9
   150f8:	00f4043b          	addw	s0,s0,a5
   150fc:	00012937          	lui	s2,0x12
   15100:	66071a63          	bnez	a4,15774 <fmt_fp+0x11d4>
   15104:	65445863          	bge	s0,s4,15754 <fmt_fp+0x11b4>
   15108:	00040693          	mv	a3,s0
   1510c:	000a0613          	mv	a2,s4
   15110:	02000593          	li	a1,32
   15114:	00098513          	mv	a0,s3
   15118:	b90ff0ef          	jal	144a8 <pad.part.0>
   1511c:	0009a703          	lw	a4,0(s3)
   15120:	02077713          	andi	a4,a4,32
   15124:	62070e63          	beqz	a4,15760 <fmt_fp+0x11c0>
   15128:	be905ce3          	blez	s1,14d20 <fmt_fp+0x780>
   1512c:	00048613          	mv	a2,s1
   15130:	00000693          	li	a3,0
   15134:	03000593          	li	a1,48
   15138:	00098513          	mv	a0,s3
   1513c:	b6cff0ef          	jal	144a8 <pad.part.0>
   15140:	0009a783          	lw	a5,0(s3)
   15144:	0207f793          	andi	a5,a5,32
   15148:	ce0796e3          	bnez	a5,14e34 <fmt_fp+0x894>
   1514c:	01013503          	ld	a0,16(sp)
   15150:	000c8593          	mv	a1,s9
   15154:	00098613          	mv	a2,s3
   15158:	c09fe0ef          	jal	13d60 <__fwritex>
   1515c:	cd9ff06f          	j	14e34 <fmt_fp+0x894>
   15160:	00090593          	mv	a1,s2
   15164:	01235463          	bge	t1,s2,1516c <fmt_fp+0xbcc>
   15168:	00030593          	mv	a1,t1
   1516c:	00078513          	mv	a0,a5
   15170:	00098613          	mv	a2,s3
   15174:	01113823          	sd	a7,16(sp)
   15178:	00613423          	sd	t1,8(sp)
   1517c:	be5fe0ef          	jal	13d60 <__fwritex>
   15180:	01013883          	ld	a7,16(sp)
   15184:	00813303          	ld	t1,8(sp)
   15188:	00488893          	addi	a7,a7,4
   1518c:	4069093b          	subw	s2,s2,t1
   15190:	afb8e4e3          	bltu	a7,s11,14c78 <fmt_fp+0x6d8>
   15194:	0129061b          	addiw	a2,s2,18 # 12012 <__malloc_alloc_meta+0x1aa>
   15198:	01200693          	li	a3,18
   1519c:	00c6d863          	bge	a3,a2,151ac <fmt_fp+0xc0c>
   151a0:	03000593          	li	a1,48
   151a4:	00098513          	mv	a0,s3
   151a8:	b00ff0ef          	jal	144a8 <pad.part.0>
   151ac:	0009a683          	lw	a3,0(s3)
   151b0:	ad1ff06f          	j	14c80 <fmt_fp+0x6e0>
   151b4:	000027b7          	lui	a5,0x2
   151b8:	d2978793          	addi	a5,a5,-727 # 1d29 <exit-0xe42f>
   151bc:	00278333          	add	t1,a5,sp
   151c0:	00002737          	lui	a4,0x2
   151c4:	002707b3          	add	a5,a4,sp
   151c8:	d3a78423          	sb	s10,-728(a5)
   151cc:	d2870793          	addi	a5,a4,-728 # 1d28 <exit-0xe430>
   151d0:	00278533          	add	a0,a5,sp
   151d4:	a6989ee3          	bne	a7,s1,14c50 <fmt_fp+0x6b0>
   151d8:	0206f693          	andi	a3,a3,32
   151dc:	00150793          	addi	a5,a0,1
   151e0:	00068663          	beqz	a3,151ec <fmt_fp+0xc4c>
   151e4:	40f30333          	sub	t1,t1,a5
   151e8:	a85ff06f          	j	14c6c <fmt_fp+0x6cc>
   151ec:	00098613          	mv	a2,s3
   151f0:	00100593          	li	a1,1
   151f4:	02613023          	sd	t1,32(sp)
   151f8:	01113823          	sd	a7,16(sp)
   151fc:	00f13423          	sd	a5,8(sp)
   15200:	b61fe0ef          	jal	13d60 <__fwritex>
   15204:	0009a683          	lw	a3,0(s3)
   15208:	008bf713          	andi	a4,s7,8
   1520c:	00e96733          	or	a4,s2,a4
   15210:	00813783          	ld	a5,8(sp)
   15214:	01013883          	ld	a7,16(sp)
   15218:	02013303          	ld	t1,32(sp)
   1521c:	0206f693          	andi	a3,a3,32
   15220:	a40702e3          	beqz	a4,14c64 <fmt_fp+0x6c4>
   15224:	fc0690e3          	bnez	a3,151e4 <fmt_fp+0xc44>
   15228:	00098613          	mv	a2,s3
   1522c:	00100593          	li	a1,1
   15230:	00007517          	auipc	a0,0x7
   15234:	ba850513          	addi	a0,a0,-1112 # 1bdd8 <values.0+0x290>
   15238:	02613023          	sd	t1,32(sp)
   1523c:	01113823          	sd	a7,16(sp)
   15240:	00f13423          	sd	a5,8(sp)
   15244:	b1dfe0ef          	jal	13d60 <__fwritex>
   15248:	0009a683          	lw	a3,0(s3)
   1524c:	02013303          	ld	t1,32(sp)
   15250:	01013883          	ld	a7,16(sp)
   15254:	00813783          	ld	a5,8(sp)
   15258:	0206f693          	andi	a3,a3,32
   1525c:	a09ff06f          	j	14c64 <fmt_fp+0x6c4>
   15260:	02e00793          	li	a5,46
   15264:	002a8b13          	addi	s6,s5,2
   15268:	00fa80a3          	sb	a5,1(s5)
   1526c:	000b0a93          	mv	s5,s6
   15270:	d8dff06f          	j	14ffc <fmt_fp+0xa5c>
   15274:	00090793          	mv	a5,s2
   15278:	00000893          	li	a7,0
   1527c:	eacff06f          	j	14928 <fmt_fp+0x388>
   15280:	00448793          	addi	a5,s1,4
   15284:	e34ff06f          	j	148b8 <fmt_fp+0x318>
   15288:	0206f693          	andi	a3,a3,32
   1528c:	00050793          	mv	a5,a0
   15290:	9d5ff06f          	j	14c64 <fmt_fp+0x6c4>
   15294:	800007b7          	lui	a5,0x80000
   15298:	ffd7c793          	xori	a5,a5,-3
   1529c:	80000537          	lui	a0,0x80000
   152a0:	7f27ca63          	blt	a5,s2,15a94 <fmt_fp+0x14f4>
   152a4:	01013783          	ld	a5,16(sp)
   152a8:	fff5051b          	addiw	a0,a0,-1 # 7fffffff <__BSS_END__+0x7ffe039f>
   152ac:	0029041b          	addiw	s0,s2,2
   152b0:	0207eb13          	ori	s6,a5,32
   152b4:	06600793          	li	a5,102
   152b8:	4085053b          	subw	a0,a0,s0
   152bc:	80fb10e3          	bne	s6,a5,14abc <fmt_fp+0x51c>
   152c0:	7d154a63          	blt	a0,a7,15a94 <fmt_fp+0x14f4>
   152c4:	06600b13          	li	s6,102
   152c8:	8b1056e3          	blez	a7,14b74 <fmt_fp+0x5d4>
   152cc:	0088843b          	addw	s0,a7,s0
   152d0:	06600b13          	li	s6,102
   152d4:	8a1ff06f          	j	14b74 <fmt_fp+0x5d4>
   152d8:	00090793          	mv	a5,s2
   152dc:	01204463          	bgtz	s2,152e4 <fmt_fp+0xd44>
   152e0:	00100793          	li	a5,1
   152e4:	0007841b          	sext.w	s0,a5
   152e8:	008bf713          	andi	a4,s7,8
   152ec:	0888dc63          	bge	a7,s0,15384 <fmt_fp+0xde4>
   152f0:	ffc00693          	li	a3,-4
   152f4:	08d8c863          	blt	a7,a3,15384 <fmt_fp+0xde4>
   152f8:	01013683          	ld	a3,16(sp)
   152fc:	0018891b          	addiw	s2,a7,1
   15300:	4127893b          	subw	s2,a5,s2
   15304:	fff6869b          	addiw	a3,a3,-1
   15308:	00d13823          	sd	a3,16(sp)
   1530c:	74071863          	bnez	a4,15a5c <fmt_fp+0x14bc>
   15310:	00900693          	li	a3,9
   15314:	01b4f663          	bgeu	s1,s11,15320 <fmt_fp+0xd80>
   15318:	ffcda603          	lw	a2,-4(s11)
   1531c:	08061463          	bnez	a2,153a4 <fmt_fp+0xe04>
   15320:	01013583          	ld	a1,16(sp)
   15324:	418d8733          	sub	a4,s11,s8
   15328:	40275613          	srai	a2,a4,0x2
   1532c:	fff60613          	addi	a2,a2,-1
   15330:	00361793          	slli	a5,a2,0x3
   15334:	0205eb13          	ori	s6,a1,32
   15338:	06600593          	li	a1,102
   1533c:	00c787b3          	add	a5,a5,a2
   15340:	5cbb1263          	bne	s6,a1,15904 <fmt_fp+0x1364>
   15344:	40d787b3          	sub	a5,a5,a3
   15348:	fff7c713          	not	a4,a5
   1534c:	43f75713          	srai	a4,a4,0x3f
   15350:	00e7f7b3          	and	a5,a5,a4
   15354:	00f95463          	bge	s2,a5,1535c <fmt_fp+0xdbc>
   15358:	00090793          	mv	a5,s2
   1535c:	68078e63          	beqz	a5,159f8 <fmt_fp+0x1458>
   15360:	80000737          	lui	a4,0x80000
   15364:	ffd74713          	xori	a4,a4,-3
   15368:	0007891b          	sext.w	s2,a5
   1536c:	80000537          	lui	a0,0x80000
   15370:	72f74263          	blt	a4,a5,15a94 <fmt_fp+0x14f4>
   15374:	fff5051b          	addiw	a0,a0,-1 # 7fffffff <__BSS_END__+0x7ffe039f>
   15378:	0029041b          	addiw	s0,s2,2
   1537c:	4085053b          	subw	a0,a0,s0
   15380:	f41ff06f          	j	152c0 <fmt_fp+0xd20>
   15384:	01013783          	ld	a5,16(sp)
   15388:	fff4091b          	addiw	s2,s0,-1
   1538c:	ffe7879b          	addiw	a5,a5,-2 # 7ffffffe <__BSS_END__+0x7ffe039e>
   15390:	00f13823          	sd	a5,16(sp)
   15394:	48071c63          	bnez	a4,1582c <fmt_fp+0x128c>
   15398:	57b4f263          	bgeu	s1,s11,158fc <fmt_fp+0x135c>
   1539c:	ffcda603          	lw	a2,-4(s11)
   153a0:	54060e63          	beqz	a2,158fc <fmt_fp+0x135c>
   153a4:	ccccd7b7          	lui	a5,0xccccd
   153a8:	ccd7879b          	addiw	a5,a5,-819 # ffffffffcccccccd <__BSS_END__+0xffffffffcccad06d>
   153ac:	02f607bb          	mulw	a5,a2,a5
   153b0:	1999a737          	lui	a4,0x1999a
   153b4:	99970713          	addi	a4,a4,-1639 # 19999999 <__BSS_END__+0x19979d39>
   153b8:	0017d69b          	srliw	a3,a5,0x1
   153bc:	01f7979b          	slliw	a5,a5,0x1f
   153c0:	00f6e7b3          	or	a5,a3,a5
   153c4:	6ef76a63          	bltu	a4,a5,15ab8 <fmt_fp+0x1518>
   153c8:	00000713          	li	a4,0
   153cc:	00a00793          	li	a5,10
   153d0:	0027969b          	slliw	a3,a5,0x2
   153d4:	00f687bb          	addw	a5,a3,a5
   153d8:	0017979b          	slliw	a5,a5,0x1
   153dc:	02f676bb          	remuw	a3,a2,a5
   153e0:	0017071b          	addiw	a4,a4,1
   153e4:	fe0686e3          	beqz	a3,153d0 <fmt_fp+0xe30>
   153e8:	00070693          	mv	a3,a4
   153ec:	f35ff06f          	j	15320 <fmt_fp+0xd80>
   153f0:	008bf713          	andi	a4,s7,8
   153f4:	00070863          	beqz	a4,15404 <fmt_fp+0xe64>
   153f8:	02e00713          	li	a4,46
   153fc:	00ea80a3          	sb	a4,1(s5)
   15400:	002a8b13          	addi	s6,s5,2
   15404:	01013783          	ld	a5,16(sp)
   15408:	80000737          	lui	a4,0x80000
   1540c:	ffd74713          	xori	a4,a4,-3
   15410:	40fc8cb3          	sub	s9,s9,a5
   15414:	02813783          	ld	a5,40(sp)
   15418:	41970733          	sub	a4,a4,s9
   1541c:	40f70733          	sub	a4,a4,a5
   15420:	67274a63          	blt	a4,s2,15a94 <fmt_fp+0x14f4>
   15424:	41ab0ab3          	sub	s5,s6,s10
   15428:	ca090ee3          	beqz	s2,150e4 <fmt_fp+0xb44>
   1542c:	cadff06f          	j	150d8 <fmt_fp+0xb38>
   15430:	0009a683          	lw	a3,0(s3)
   15434:	0206f693          	andi	a3,a3,32
   15438:	52068263          	beqz	a3,1595c <fmt_fp+0x13bc>
   1543c:	000107b7          	lui	a5,0x10
   15440:	00fbc7b3          	xor	a5,s7,a5
   15444:	00d7d713          	srli	a4,a5,0xd
   15448:	00977713          	andi	a4,a4,9
   1544c:	00071e63          	bnez	a4,15468 <fmt_fp+0xec8>
   15450:	01445c63          	bge	s0,s4,15468 <fmt_fp+0xec8>
   15454:	00040693          	mv	a3,s0
   15458:	000a0613          	mv	a2,s4
   1545c:	03000593          	li	a1,48
   15460:	00098513          	mv	a0,s3
   15464:	844ff0ef          	jal	144a8 <pad.part.0>
   15468:	06600793          	li	a5,102
   1546c:	0009a683          	lw	a3,0(s3)
   15470:	f4fb1863          	bne	s6,a5,14bc0 <fmt_fp+0x620>
   15474:	000c0893          	mv	a7,s8
   15478:	0184f463          	bgeu	s1,s8,15480 <fmt_fp+0xee0>
   1547c:	00048893          	mv	a7,s1
   15480:	ccccd7b7          	lui	a5,0xccccd
   15484:	ccd78793          	addi	a5,a5,-819 # ffffffffcccccccd <__BSS_END__+0xffffffffcccad06d>
   15488:	02079493          	slli	s1,a5,0x20
   1548c:	00f484b3          	add	s1,s1,a5
   15490:	000027b7          	lui	a5,0x2
   15494:	d2978713          	addi	a4,a5,-727 # 1d29 <exit-0xe42f>
   15498:	00088c93          	mv	s9,a7
   1549c:	d2078793          	addi	a5,a5,-736
   154a0:	00278333          	add	t1,a5,sp
   154a4:	000ce783          	lwu	a5,0(s9)
   154a8:	03000b13          	li	s6,48
   154ac:	00900a93          	li	s5,9
   154b0:	00270833          	add	a6,a4,sp
   154b4:	06078863          	beqz	a5,15524 <fmt_fp+0xf84>
   154b8:	00080513          	mv	a0,a6
   154bc:	0297b733          	mulhu	a4,a5,s1
   154c0:	00078593          	mv	a1,a5
   154c4:	fff50513          	addi	a0,a0,-1
   154c8:	00375713          	srli	a4,a4,0x3
   154cc:	00271613          	slli	a2,a4,0x2
   154d0:	00e60633          	add	a2,a2,a4
   154d4:	00161613          	slli	a2,a2,0x1
   154d8:	40c787b3          	sub	a5,a5,a2
   154dc:	0307879b          	addiw	a5,a5,48
   154e0:	00f50023          	sb	a5,0(a0)
   154e4:	00070793          	mv	a5,a4
   154e8:	fcbaeae3          	bltu	s5,a1,154bc <fmt_fp+0xf1c>
   154ec:	171c8663          	beq	s9,a7,15658 <fmt_fp+0x10b8>
   154f0:	00030d13          	mv	s10,t1
   154f4:	16a37463          	bgeu	t1,a0,1565c <fmt_fp+0x10bc>
   154f8:	fff50513          	addi	a0,a0,-1
   154fc:	01650023          	sb	s6,0(a0)
   15500:	ffa51ce3          	bne	a0,s10,154f8 <fmt_fp+0xf58>
   15504:	00900593          	li	a1,9
   15508:	0206f693          	andi	a3,a3,32
   1550c:	04068a63          	beqz	a3,15560 <fmt_fp+0xfc0>
   15510:	004c8c93          	addi	s9,s9,4
   15514:	079c6a63          	bltu	s8,s9,15588 <fmt_fp+0xfe8>
   15518:	000ce783          	lwu	a5,0(s9)
   1551c:	0009a683          	lw	a3,0(s3)
   15520:	f8079ce3          	bnez	a5,154b8 <fmt_fp+0xf18>
   15524:	000027b7          	lui	a5,0x2
   15528:	d2978713          	addi	a4,a5,-727 # 1d29 <exit-0xe42f>
   1552c:	d2078793          	addi	a5,a5,-736
   15530:	00270533          	add	a0,a4,sp
   15534:	00278d33          	add	s10,a5,sp
   15538:	fd1c90e3          	bne	s9,a7,154f8 <fmt_fp+0xf58>
   1553c:	00002637          	lui	a2,0x2
   15540:	03000793          	li	a5,48
   15544:	00260733          	add	a4,a2,sp
   15548:	d2f70423          	sb	a5,-728(a4) # ffffffff7ffffd28 <__BSS_END__+0xffffffff7ffe00c8>
   1554c:	0206f693          	andi	a3,a3,32
   15550:	d2860793          	addi	a5,a2,-728 # 1d28 <exit-0xe430>
   15554:	00100593          	li	a1,1
   15558:	00278533          	add	a0,a5,sp
   1555c:	fa069ae3          	bnez	a3,15510 <fmt_fp+0xf70>
   15560:	00098613          	mv	a2,s3
   15564:	00613c23          	sd	t1,24(sp)
   15568:	01013823          	sd	a6,16(sp)
   1556c:	01113423          	sd	a7,8(sp)
   15570:	004c8c93          	addi	s9,s9,4
   15574:	fecfe0ef          	jal	13d60 <__fwritex>
   15578:	01813303          	ld	t1,24(sp)
   1557c:	01013803          	ld	a6,16(sp)
   15580:	00813883          	ld	a7,8(sp)
   15584:	f99c7ae3          	bgeu	s8,s9,15518 <fmt_fp+0xf78>
   15588:	001c0713          	addi	a4,s8,1
   1558c:	00188793          	addi	a5,a7,1
   15590:	00000c93          	li	s9,0
   15594:	2cf77863          	bgeu	a4,a5,15864 <fmt_fp+0x12c4>
   15598:	008bf793          	andi	a5,s7,8
   1559c:	00488893          	addi	a7,a7,4
   155a0:	00f967b3          	or	a5,s2,a5
   155a4:	011c8cb3          	add	s9,s9,a7
   155a8:	880786e3          	beqz	a5,14e34 <fmt_fp+0x894>
   155ac:	0009a783          	lw	a5,0(s3)
   155b0:	0207f793          	andi	a5,a5,32
   155b4:	2c078a63          	beqz	a5,15888 <fmt_fp+0x12e8>
   155b8:	21bcfa63          	bgeu	s9,s11,157cc <fmt_fp+0x122c>
   155bc:	ccccd7b7          	lui	a5,0xccccd
   155c0:	ccd78793          	addi	a5,a5,-819 # ffffffffcccccccd <__BSS_END__+0xffffffffcccad06d>
   155c4:	02079b13          	slli	s6,a5,0x20
   155c8:	00fb0b33          	add	s6,s6,a5
   155cc:	000027b7          	lui	a5,0x2
   155d0:	d2078793          	addi	a5,a5,-736 # 1d20 <exit-0xe438>
   155d4:	03000c13          	li	s8,48
   155d8:	002784b3          	add	s1,a5,sp
   155dc:	00900a93          	li	s5,9
   155e0:	85205ae3          	blez	s2,14e34 <fmt_fp+0x894>
   155e4:	000ce783          	lwu	a5,0(s9)
   155e8:	0c078863          	beqz	a5,156b8 <fmt_fp+0x1118>
   155ec:	00002737          	lui	a4,0x2
   155f0:	d2970713          	addi	a4,a4,-727 # 1d29 <exit-0xe42f>
   155f4:	00270533          	add	a0,a4,sp
   155f8:	0367b733          	mulhu	a4,a5,s6
   155fc:	00078613          	mv	a2,a5
   15600:	fff50513          	addi	a0,a0,-1
   15604:	00375713          	srli	a4,a4,0x3
   15608:	00271693          	slli	a3,a4,0x2
   1560c:	00e686b3          	add	a3,a3,a4
   15610:	00169693          	slli	a3,a3,0x1
   15614:	40d787b3          	sub	a5,a5,a3
   15618:	0307879b          	addiw	a5,a5,48
   1561c:	00f50023          	sb	a5,0(a0)
   15620:	00070793          	mv	a5,a4
   15624:	fccaeae3          	bltu	s5,a2,155f8 <fmt_fp+0x1058>
   15628:	00a4f863          	bgeu	s1,a0,15638 <fmt_fp+0x1098>
   1562c:	fff50513          	addi	a0,a0,-1
   15630:	01850023          	sb	s8,0(a0)
   15634:	fe951ce3          	bne	a0,s1,1562c <fmt_fp+0x108c>
   15638:	0009a783          	lw	a5,0(s3)
   1563c:	0207f793          	andi	a5,a5,32
   15640:	06078063          	beqz	a5,156a0 <fmt_fp+0x1100>
   15644:	004c8c93          	addi	s9,s9,4
   15648:	ff79079b          	addiw	a5,s2,-9
   1564c:	19bcf263          	bgeu	s9,s11,157d0 <fmt_fp+0x1230>
   15650:	00078913          	mv	s2,a5
   15654:	f8dff06f          	j	155e0 <fmt_fp+0x1040>
   15658:	ef0502e3          	beq	a0,a6,1553c <fmt_fp+0xf9c>
   1565c:	40a805b3          	sub	a1,a6,a0
   15660:	ea9ff06f          	j	15508 <fmt_fp+0xf68>
   15664:	026457bb          	divuw	a5,s0,t1
   15668:	0017f793          	andi	a5,a5,1
   1566c:	1a078063          	beqz	a5,1580c <fmt_fp+0x126c>
   15670:	00007797          	auipc	a5,0x7
   15674:	40078793          	addi	a5,a5,1024 # 1ca70 <states+0x1f0>
   15678:	0007be03          	ld	t3,0(a5)
   1567c:	0087b783          	ld	a5,8(a5)
   15680:	4016d69b          	sraiw	a3,a3,0x1
   15684:	40d76c63          	bltu	a4,a3,15a9c <fmt_fp+0x14fc>
   15688:	30e68c63          	beq	a3,a4,159a0 <fmt_fp+0x1400>
   1568c:	00007697          	auipc	a3,0x7
   15690:	41468693          	addi	a3,a3,1044 # 1caa0 <states+0x220>
   15694:	0006b603          	ld	a2,0(a3)
   15698:	0086b683          	ld	a3,8(a3)
   1569c:	b64ff06f          	j	14a00 <fmt_fp+0x460>
   156a0:	0009059b          	sext.w	a1,s2
   156a4:	012ad463          	bge	s5,s2,156ac <fmt_fp+0x110c>
   156a8:	00900593          	li	a1,9
   156ac:	00098613          	mv	a2,s3
   156b0:	eb0fe0ef          	jal	13d60 <__fwritex>
   156b4:	f91ff06f          	j	15644 <fmt_fp+0x10a4>
   156b8:	000027b7          	lui	a5,0x2
   156bc:	d2978793          	addi	a5,a5,-727 # 1d29 <exit-0xe42f>
   156c0:	00278533          	add	a0,a5,sp
   156c4:	f69ff06f          	j	1562c <fmt_fp+0x108c>
   156c8:	02013503          	ld	a0,32(sp)
   156cc:	000d0593          	mv	a1,s10
   156d0:	00098613          	mv	a2,s3
   156d4:	e8cfe0ef          	jal	13d60 <__fwritex>
   156d8:	0009a683          	lw	a3,0(s3)
   156dc:	cdcff06f          	j	14bb8 <fmt_fp+0x618>
   156e0:	0064043b          	addw	s0,s0,t1
   156e4:	3b9ad737          	lui	a4,0x3b9ad
   156e8:	008ca023          	sw	s0,0(s9)
   156ec:	9ff70713          	addi	a4,a4,-1537 # 3b9ac9ff <__BSS_END__+0x3b98cd9f>
   156f0:	3c877063          	bgeu	a4,s0,15ab0 <fmt_fp+0x1510>
   156f4:	000c8613          	mv	a2,s9
   156f8:	000ca023          	sw	zero,0(s9)
   156fc:	ffcc8c93          	addi	s9,s9,-4
   15700:	009cf663          	bgeu	s9,s1,1570c <fmt_fp+0x116c>
   15704:	fe04ae23          	sw	zero,-4(s1)
   15708:	ffc48493          	addi	s1,s1,-4
   1570c:	000ca783          	lw	a5,0(s9)
   15710:	0017879b          	addiw	a5,a5,1
   15714:	00fca023          	sw	a5,0(s9)
   15718:	fcf76ee3          	bltu	a4,a5,156f4 <fmt_fp+0x1154>
   1571c:	409c07b3          	sub	a5,s8,s1
   15720:	0004a683          	lw	a3,0(s1)
   15724:	4027d793          	srai	a5,a5,0x2
   15728:	0037989b          	slliw	a7,a5,0x3
   1572c:	00900713          	li	a4,9
   15730:	00f888bb          	addw	a7,a7,a5
   15734:	b2d77c63          	bgeu	a4,a3,14a6c <fmt_fp+0x4cc>
   15738:	00a00793          	li	a5,10
   1573c:	0027971b          	slliw	a4,a5,0x2
   15740:	00f707bb          	addw	a5,a4,a5
   15744:	0017979b          	slliw	a5,a5,0x1
   15748:	0018889b          	addiw	a7,a7,1
   1574c:	fef6f8e3          	bgeu	a3,a5,1573c <fmt_fp+0x119c>
   15750:	b1cff06f          	j	14a6c <fmt_fp+0x4cc>
   15754:	0009a703          	lw	a4,0(s3)
   15758:	02077713          	andi	a4,a4,32
   1575c:	9c0716e3          	bnez	a4,15128 <fmt_fp+0xb88>
   15760:	02813583          	ld	a1,40(sp)
   15764:	02013503          	ld	a0,32(sp)
   15768:	00098613          	mv	a2,s3
   1576c:	df4fe0ef          	jal	13d60 <__fwritex>
   15770:	0380006f          	j	157a8 <fmt_fp+0x1208>
   15774:	0009a703          	lw	a4,0(s3)
   15778:	02077713          	andi	a4,a4,32
   1577c:	12070263          	beqz	a4,158a0 <fmt_fp+0x1300>
   15780:	00010737          	lui	a4,0x10
   15784:	00ebc733          	xor	a4,s7,a4
   15788:	01277733          	and	a4,a4,s2
   1578c:	14071a63          	bnez	a4,158e0 <fmt_fp+0x1340>
   15790:	01445c63          	bge	s0,s4,157a8 <fmt_fp+0x1208>
   15794:	00040693          	mv	a3,s0
   15798:	000a0613          	mv	a2,s4
   1579c:	03000593          	li	a1,48
   157a0:	00098513          	mv	a0,s3
   157a4:	d05fe0ef          	jal	144a8 <pad.part.0>
   157a8:	0009a703          	lw	a4,0(s3)
   157ac:	02077713          	andi	a4,a4,32
   157b0:	12071863          	bnez	a4,158e0 <fmt_fp+0x1340>
   157b4:	000a8593          	mv	a1,s5
   157b8:	000d0513          	mv	a0,s10
   157bc:	00098613          	mv	a2,s3
   157c0:	da0fe0ef          	jal	13d60 <__fwritex>
   157c4:	96905ee3          	blez	s1,15140 <fmt_fp+0xba0>
   157c8:	965ff06f          	j	1512c <fmt_fp+0xb8c>
   157cc:	0099091b          	addiw	s2,s2,9
   157d0:	00900693          	li	a3,9
   157d4:	e726d063          	bge	a3,s2,14e34 <fmt_fp+0x894>
   157d8:	00090613          	mv	a2,s2
   157dc:	03000593          	li	a1,48
   157e0:	00098513          	mv	a0,s3
   157e4:	cc5fe0ef          	jal	144a8 <pad.part.0>
   157e8:	e4cff06f          	j	14e34 <fmt_fp+0x894>
   157ec:	00002737          	lui	a4,0x2
   157f0:	cdb70713          	addi	a4,a4,-805 # 1cdb <exit-0xe47d>
   157f4:	04010693          	addi	a3,sp,64
   157f8:	03000793          	li	a5,48
   157fc:	00d70733          	add	a4,a4,a3
   15800:	ffe30613          	addi	a2,t1,-2
   15804:	00f70023          	sb	a5,0(a4)
   15808:	fa8ff06f          	j	14fb0 <fmt_fp+0xa10>
   1580c:	3b9ad7b7          	lui	a5,0x3b9ad
   15810:	a0078793          	addi	a5,a5,-1536 # 3b9aca00 <__BSS_END__+0x3b98cda0>
   15814:	22f68a63          	beq	a3,a5,15a48 <fmt_fp+0x14a8>
   15818:	00007797          	auipc	a5,0x7
   1581c:	24878793          	addi	a5,a5,584 # 1ca60 <states+0x1e0>
   15820:	0007be03          	ld	t3,0(a5)
   15824:	0087b783          	ld	a5,8(a5)
   15828:	e59ff06f          	j	15680 <fmt_fp+0x10e0>
   1582c:	1a091263          	bnez	s2,159d0 <fmt_fp+0x1430>
   15830:	01013783          	ld	a5,16(sp)
   15834:	80000537          	lui	a0,0x80000
   15838:	ffd54513          	xori	a0,a0,-3
   1583c:	0207eb13          	ori	s6,a5,32
   15840:	00200413          	li	s0,2
   15844:	41f8d79b          	sraiw	a5,a7,0x1f
   15848:	00f8ce33          	xor	t3,a7,a5
   1584c:	40fe0e3b          	subw	t3,t3,a5
   15850:	a7cff06f          	j	14acc <fmt_fp+0x52c>
   15854:	0029049b          	addiw	s1,s2,2
   15858:	009c843b          	addw	s0,s9,s1
   1585c:	415484bb          	subw	s1,s1,s5
   15860:	88dff06f          	j	150ec <fmt_fp+0xb4c>
   15864:	411c0cb3          	sub	s9,s8,a7
   15868:	ffccfc93          	andi	s9,s9,-4
   1586c:	d2dff06f          	j	15598 <fmt_fp+0xff8>
   15870:	3b9ad7b7          	lui	a5,0x3b9ad
   15874:	a0078793          	addi	a5,a5,-1536 # 3b9aca00 <__BSS_END__+0x3b98cda0>
   15878:	04f68663          	beq	a3,a5,158c4 <fmt_fp+0x1324>
   1587c:	00007797          	auipc	a5,0x7
   15880:	1e478793          	addi	a5,a5,484 # 1ca60 <states+0x1e0>
   15884:	964ff06f          	j	149e8 <fmt_fp+0x448>
   15888:	00098613          	mv	a2,s3
   1588c:	00100593          	li	a1,1
   15890:	00006517          	auipc	a0,0x6
   15894:	54850513          	addi	a0,a0,1352 # 1bdd8 <values.0+0x290>
   15898:	cc8fe0ef          	jal	13d60 <__fwritex>
   1589c:	d1dff06f          	j	155b8 <fmt_fp+0x1018>
   158a0:	02813583          	ld	a1,40(sp)
   158a4:	02013503          	ld	a0,32(sp)
   158a8:	00098613          	mv	a2,s3
   158ac:	cb4fe0ef          	jal	13d60 <__fwritex>
   158b0:	00010737          	lui	a4,0x10
   158b4:	00ebc733          	xor	a4,s7,a4
   158b8:	01277733          	and	a4,a4,s2
   158bc:	ec070ae3          	beqz	a4,15790 <fmt_fp+0x11f0>
   158c0:	ee9ff06f          	j	157a8 <fmt_fp+0x1208>
   158c4:	fb94fce3          	bgeu	s1,s9,1587c <fmt_fp+0x12dc>
   158c8:	ffcca783          	lw	a5,-4(s9)
   158cc:	0017f793          	andi	a5,a5,1
   158d0:	90079863          	bnez	a5,149e0 <fmt_fp+0x440>
   158d4:	00007797          	auipc	a5,0x7
   158d8:	18c78793          	addi	a5,a5,396 # 1ca60 <states+0x1e0>
   158dc:	90cff06f          	j	149e8 <fmt_fp+0x448>
   158e0:	d4905a63          	blez	s1,14e34 <fmt_fp+0x894>
   158e4:	849ff06f          	j	1512c <fmt_fp+0xb8c>
   158e8:	1b17c663          	blt	a5,a7,15a94 <fmt_fp+0x14f4>
   158ec:	9f1040e3          	bgtz	a7,152cc <fmt_fp+0xd2c>
   158f0:	a94ff06f          	j	14b84 <fmt_fp+0x5e4>
   158f4:	000c0493          	mv	s1,s8
   158f8:	f29fe06f          	j	14820 <fmt_fp+0x280>
   158fc:	00900693          	li	a3,9
   15900:	418d8733          	sub	a4,s11,s8
   15904:	40275793          	srai	a5,a4,0x2
   15908:	fff78793          	addi	a5,a5,-1
   1590c:	00379713          	slli	a4,a5,0x3
   15910:	00f707b3          	add	a5,a4,a5
   15914:	011787b3          	add	a5,a5,a7
   15918:	40d787b3          	sub	a5,a5,a3
   1591c:	fff7c713          	not	a4,a5
   15920:	43f75713          	srai	a4,a4,0x3f
   15924:	00e7f7b3          	and	a5,a5,a4
   15928:	00f95463          	bge	s2,a5,15930 <fmt_fp+0x1390>
   1592c:	00090793          	mv	a5,s2
   15930:	0007891b          	sext.w	s2,a5
   15934:	960790e3          	bnez	a5,15294 <fmt_fp+0xcf4>
   15938:	01013783          	ld	a5,16(sp)
   1593c:	0207eb13          	ori	s6,a5,32
   15940:	06600793          	li	a5,102
   15944:	0afb0a63          	beq	s6,a5,159f8 <fmt_fp+0x1458>
   15948:	80000537          	lui	a0,0x80000
   1594c:	ffe54513          	xori	a0,a0,-2
   15950:	00100413          	li	s0,1
   15954:	00000913          	li	s2,0
   15958:	964ff06f          	j	14abc <fmt_fp+0x51c>
   1595c:	02013503          	ld	a0,32(sp)
   15960:	000d0593          	mv	a1,s10
   15964:	00098613          	mv	a2,s3
   15968:	bf8fe0ef          	jal	13d60 <__fwritex>
   1596c:	ad1ff06f          	j	1543c <fmt_fp+0xe9c>
   15970:	03fd9493          	slli	s1,s11,0x3f
   15974:	009cc5b3          	xor	a1,s9,s1
   15978:	000c0513          	mv	a0,s8
   1597c:	00c13c23          	sd	a2,24(sp)
   15980:	00d13423          	sd	a3,8(sp)
   15984:	5b8040ef          	jal	19f3c <__subtf3>
   15988:	01813603          	ld	a2,24(sp)
   1598c:	00813683          	ld	a3,8(sp)
   15990:	704020ef          	jal	18094 <__addtf3>
   15994:	00050413          	mv	s0,a0
   15998:	0095c4b3          	xor	s1,a1,s1
   1599c:	da8ff06f          	j	14f44 <fmt_fp+0x9a4>
   159a0:	004c8693          	addi	a3,s9,4
   159a4:	cedd94e3          	bne	s11,a3,1568c <fmt_fp+0x10ec>
   159a8:	00007697          	auipc	a3,0x7
   159ac:	0e868693          	addi	a3,a3,232 # 1ca90 <states+0x210>
   159b0:	0006b603          	ld	a2,0(a3)
   159b4:	0086b683          	ld	a3,8(a3)
   159b8:	848ff06f          	j	14a00 <fmt_fp+0x460>
   159bc:	000027b7          	lui	a5,0x2
   159c0:	d1c78793          	addi	a5,a5,-740 # 1d1c <exit-0xe43c>
   159c4:	00278cb3          	add	s9,a5,sp
   159c8:	000c8713          	mv	a4,s9
   159cc:	960ff06f          	j	14b2c <fmt_fp+0x58c>
   159d0:	800007b7          	lui	a5,0x80000
   159d4:	ffe7c793          	xori	a5,a5,-2
   159d8:	80000537          	lui	a0,0x80000
   159dc:	0af90c63          	beq	s2,a5,15a94 <fmt_fp+0x14f4>
   159e0:	01013783          	ld	a5,16(sp)
   159e4:	0014041b          	addiw	s0,s0,1
   159e8:	fff5051b          	addiw	a0,a0,-1 # 7fffffff <__BSS_END__+0x7ffe039f>
   159ec:	4085053b          	subw	a0,a0,s0
   159f0:	0207eb13          	ori	s6,a5,32
   159f4:	e51ff06f          	j	15844 <fmt_fp+0x12a4>
   159f8:	800007b7          	lui	a5,0x80000
   159fc:	fff7c793          	not	a5,a5
   15a00:	08f88a63          	beq	a7,a5,15a94 <fmt_fp+0x14f4>
   15a04:	00000913          	li	s2,0
   15a08:	00100413          	li	s0,1
   15a0c:	8d1040e3          	bgtz	a7,152cc <fmt_fp+0xd2c>
   15a10:	974ff06f          	j	14b84 <fmt_fp+0x5e4>
   15a14:	00a00313          	li	t1,10
   15a18:	00030693          	mv	a3,t1
   15a1c:	fa1fe06f          	j	149bc <fmt_fp+0x41c>
   15a20:	00002737          	lui	a4,0x2
   15a24:	03000793          	li	a5,48
   15a28:	002706b3          	add	a3,a4,sp
   15a2c:	d0f68da3          	sb	a5,-741(a3)
   15a30:	00070793          	mv	a5,a4
   15a34:	d1c78793          	addi	a5,a5,-740 # ffffffff7ffffd1c <__BSS_END__+0xffffffff7ffe00bc>
   15a38:	d1b70713          	addi	a4,a4,-741 # 1d1b <exit-0xe43d>
   15a3c:	00270633          	add	a2,a4,sp
   15a40:	00278cb3          	add	s9,a5,sp
   15a44:	d74ff06f          	j	14fb8 <fmt_fp+0xa18>
   15a48:	dd94f8e3          	bgeu	s1,s9,15818 <fmt_fp+0x1278>
   15a4c:	ffcca783          	lw	a5,-4(s9)
   15a50:	0017f793          	andi	a5,a5,1
   15a54:	c0079ee3          	bnez	a5,15670 <fmt_fp+0x10d0>
   15a58:	dc1ff06f          	j	15818 <fmt_fp+0x1278>
   15a5c:	82091ce3          	bnez	s2,15294 <fmt_fp+0xcf4>
   15a60:	01013783          	ld	a5,16(sp)
   15a64:	80000537          	lui	a0,0x80000
   15a68:	ffd54513          	xori	a0,a0,-3
   15a6c:	0207eb13          	ori	s6,a5,32
   15a70:	06600793          	li	a5,102
   15a74:	00200413          	li	s0,2
   15a78:	00fb0463          	beq	s6,a5,15a80 <fmt_fp+0x14e0>
   15a7c:	840ff06f          	j	14abc <fmt_fp+0x51c>
   15a80:	800007b7          	lui	a5,0x80000
   15a84:	ffe7c793          	xori	a5,a5,-2
   15a88:	00f88663          	beq	a7,a5,15a94 <fmt_fp+0x14f4>
   15a8c:	840890e3          	bnez	a7,152cc <fmt_fp+0xd2c>
   15a90:	8f4ff06f          	j	14b84 <fmt_fp+0x5e4>
   15a94:	fff00513          	li	a0,-1
   15a98:	a94ff06f          	j	14d2c <fmt_fp+0x78c>
   15a9c:	00007697          	auipc	a3,0x7
   15aa0:	fe468693          	addi	a3,a3,-28 # 1ca80 <states+0x200>
   15aa4:	0006b603          	ld	a2,0(a3)
   15aa8:	0086b683          	ld	a3,8(a3)
   15aac:	f55fe06f          	j	14a00 <fmt_fp+0x460>
   15ab0:	004c8613          	addi	a2,s9,4
   15ab4:	c69ff06f          	j	1571c <fmt_fp+0x117c>
   15ab8:	00000693          	li	a3,0
   15abc:	865ff06f          	j	15320 <fmt_fp+0xd80>
   15ac0:	c04fb0ef          	jal	10ec4 <__stack_chk_fail>

0000000000015ac4 <printf_core>:
   15ac4:	f0010113          	addi	sp,sp,-256
   15ac8:	0e913423          	sd	s1,232(sp)
   15acc:	0f213023          	sd	s2,224(sp)
   15ad0:	0d313c23          	sd	s3,216(sp)
   15ad4:	0d413823          	sd	s4,208(sp)
   15ad8:	0d513423          	sd	s5,200(sp)
   15adc:	0d613023          	sd	s6,192(sp)
   15ae0:	0b913423          	sd	s9,168(sp)
   15ae4:	0ba13023          	sd	s10,160(sp)
   15ae8:	0e113c23          	sd	ra,248(sp)
   15aec:	0e813823          	sd	s0,240(sp)
   15af0:	0b713c23          	sd	s7,184(sp)
   15af4:	0b813823          	sd	s8,176(sp)
   15af8:	09b13c23          	sd	s11,152(sp)
   15afc:	800009b7          	lui	s3,0x80000
   15b00:	02e13023          	sd	a4,32(sp)
   15b04:	00009717          	auipc	a4,0x9
   15b08:	45c73703          	ld	a4,1116(a4) # 1ef60 <_GLOBAL_OFFSET_TABLE_+0x8>
   15b0c:	00050b13          	mv	s6,a0
   15b10:	00058d13          	mv	s10,a1
   15b14:	00c13823          	sd	a2,16(sp)
   15b18:	00d13c23          	sd	a3,24(sp)
   15b1c:	00073783          	ld	a5,0(a4)
   15b20:	08f13423          	sd	a5,136(sp)
   15b24:	00000793          	li	a5,0
   15b28:	fff9899b          	addiw	s3,s3,-1 # 7fffffff <__BSS_END__+0x7ffe039f>
   15b2c:	00000493          	li	s1,0
   15b30:	00000a93          	li	s5,0
   15b34:	00013423          	sd	zero,8(sp)
   15b38:	02500913          	li	s2,37
   15b3c:	00007a17          	auipc	s4,0x7
   15b40:	d44a0a13          	addi	s4,s4,-700 # 1c880 <states>
   15b44:	03a00c93          	li	s9,58
   15b48:	000d4703          	lbu	a4,0(s10)
   15b4c:	01548abb          	addw	s5,s1,s5
   15b50:	54070c63          	beqz	a4,160a8 <printf_core+0x5e4>
   15b54:	000d0793          	mv	a5,s10
   15b58:	09270863          	beq	a4,s2,15be8 <printf_core+0x124>
   15b5c:	0017c703          	lbu	a4,1(a5) # ffffffff80000001 <__BSS_END__+0xffffffff7ffe03a1>
   15b60:	00178793          	addi	a5,a5,1
   15b64:	fe071ae3          	bnez	a4,15b58 <printf_core+0x94>
   15b68:	00078413          	mv	s0,a5
   15b6c:	41a787b3          	sub	a5,a5,s10
   15b70:	41598ebb          	subw	t4,s3,s5
   15b74:	20feca63          	blt	t4,a5,15d88 <printf_core+0x2c4>
   15b78:	0007849b          	sext.w	s1,a5
   15b7c:	000b0863          	beqz	s6,15b8c <printf_core+0xc8>
   15b80:	000b2783          	lw	a5,0(s6)
   15b84:	0207f793          	andi	a5,a5,32
   15b88:	04078063          	beqz	a5,15bc8 <printf_core+0x104>
   15b8c:	00048863          	beqz	s1,15b9c <printf_core+0xd8>
   15b90:	1e9ecc63          	blt	t4,s1,15d88 <printf_core+0x2c4>
   15b94:	00040d13          	mv	s10,s0
   15b98:	fb1ff06f          	j	15b48 <printf_core+0x84>
   15b9c:	00144583          	lbu	a1,1(s0)
   15ba0:	00900713          	li	a4,9
   15ba4:	fd05869b          	addiw	a3,a1,-48
   15ba8:	0005879b          	sext.w	a5,a1
   15bac:	06d76463          	bltu	a4,a3,15c14 <printf_core+0x150>
   15bb0:	00244703          	lbu	a4,2(s0)
   15bb4:	02400793          	li	a5,36
   15bb8:	36f70c63          	beq	a4,a5,15f30 <printf_core+0x46c>
   15bbc:	00140413          	addi	s0,s0,1
   15bc0:	fff00613          	li	a2,-1
   15bc4:	0640006f          	j	15c28 <printf_core+0x164>
   15bc8:	000b0613          	mv	a2,s6
   15bcc:	00048593          	mv	a1,s1
   15bd0:	000d0513          	mv	a0,s10
   15bd4:	03d13423          	sd	t4,40(sp)
   15bd8:	988fe0ef          	jal	13d60 <__fwritex>
   15bdc:	02813e83          	ld	t4,40(sp)
   15be0:	fa0498e3          	bnez	s1,15b90 <printf_core+0xcc>
   15be4:	fb9ff06f          	j	15b9c <printf_core+0xd8>
   15be8:	0007c703          	lbu	a4,0(a5)
   15bec:	00078413          	mv	s0,a5
   15bf0:	01270c63          	beq	a4,s2,15c08 <printf_core+0x144>
   15bf4:	f79ff06f          	j	15b6c <printf_core+0xa8>
   15bf8:	00244703          	lbu	a4,2(s0)
   15bfc:	00240413          	addi	s0,s0,2
   15c00:	00178793          	addi	a5,a5,1
   15c04:	f72714e3          	bne	a4,s2,15b6c <printf_core+0xa8>
   15c08:	00144703          	lbu	a4,1(s0)
   15c0c:	ff2706e3          	beq	a4,s2,15bf8 <printf_core+0x134>
   15c10:	f5dff06f          	j	15b6c <printf_core+0xa8>
   15c14:	00140413          	addi	s0,s0,1
   15c18:	fff00613          	li	a2,-1
   15c1c:	fe07879b          	addiw	a5,a5,-32
   15c20:	01f00713          	li	a4,31
   15c24:	46f76c63          	bltu	a4,a5,1609c <printf_core+0x5d8>
   15c28:	00013537          	lui	a0,0x13
   15c2c:	8895051b          	addiw	a0,a0,-1911 # 12889 <alloc_slot+0x6c1>
   15c30:	00000b93          	li	s7,0
   15c34:	fe05871b          	addiw	a4,a1,-32
   15c38:	00100f13          	li	t5,1
   15c3c:	01f00813          	li	a6,31
   15c40:	01c0006f          	j	15c5c <printf_core+0x198>
   15c44:	00144583          	lbu	a1,1(s0)
   15c48:	00ef173b          	sllw	a4,t5,a4
   15c4c:	01776bb3          	or	s7,a4,s7
   15c50:	fe05871b          	addiw	a4,a1,-32
   15c54:	00140413          	addi	s0,s0,1
   15c58:	0ce86463          	bltu	a6,a4,15d20 <printf_core+0x25c>
   15c5c:	00e556bb          	srlw	a3,a0,a4
   15c60:	0016f693          	andi	a3,a3,1
   15c64:	fe0690e3          	bnez	a3,15c44 <printf_core+0x180>
   15c68:	02a00713          	li	a4,42
   15c6c:	0ae59a63          	bne	a1,a4,15d20 <printf_core+0x25c>
   15c70:	00144583          	lbu	a1,1(s0)
   15c74:	00900713          	li	a4,9
   15c78:	fd05869b          	addiw	a3,a1,-48
   15c7c:	28d77463          	bgeu	a4,a3,15f04 <printf_core+0x440>
   15c80:	00813783          	ld	a5,8(sp)
   15c84:	1c079c63          	bnez	a5,15e5c <printf_core+0x398>
   15c88:	00140413          	addi	s0,s0,1
   15c8c:	00000c13          	li	s8,0
   15c90:	020b0863          	beqz	s6,15cc0 <printf_core+0x1fc>
   15c94:	01013783          	ld	a5,16(sp)
   15c98:	00013423          	sd	zero,8(sp)
   15c9c:	0007b703          	ld	a4,0(a5)
   15ca0:	00870693          	addi	a3,a4,8
   15ca4:	00d7b023          	sd	a3,0(a5)
   15ca8:	00072c03          	lw	s8,0(a4)
   15cac:	00044583          	lbu	a1,0(s0)
   15cb0:	000c5863          	bgez	s8,15cc0 <printf_core+0x1fc>
   15cb4:	00002737          	lui	a4,0x2
   15cb8:	41800c3b          	negw	s8,s8
   15cbc:	00ebebb3          	or	s7,s7,a4
   15cc0:	02e00713          	li	a4,46
   15cc4:	14e59463          	bne	a1,a4,15e0c <printf_core+0x348>
   15cc8:	00144703          	lbu	a4,1(s0)
   15ccc:	02a00693          	li	a3,42
   15cd0:	28d71863          	bne	a4,a3,15f60 <printf_core+0x49c>
   15cd4:	00244703          	lbu	a4,2(s0)
   15cd8:	00900693          	li	a3,9
   15cdc:	fd07059b          	addiw	a1,a4,-48 # 1fd0 <exit-0xe188>
   15ce0:	00b6e863          	bltu	a3,a1,15cf0 <printf_core+0x22c>
   15ce4:	00344583          	lbu	a1,3(s0)
   15ce8:	02400693          	li	a3,36
   15cec:	36d58e63          	beq	a1,a3,16068 <printf_core+0x5a4>
   15cf0:	00813783          	ld	a5,8(sp)
   15cf4:	16079463          	bnez	a5,15e5c <printf_core+0x398>
   15cf8:	380b0a63          	beqz	s6,1608c <printf_core+0x5c8>
   15cfc:	01013783          	ld	a5,16(sp)
   15d00:	00240413          	addi	s0,s0,2
   15d04:	0007b703          	ld	a4,0(a5)
   15d08:	00870693          	addi	a3,a4,8
   15d0c:	00d7b023          	sd	a3,0(a5)
   15d10:	00072d83          	lw	s11,0(a4)
   15d14:	fffdc713          	not	a4,s11
   15d18:	01f7571b          	srliw	a4,a4,0x1f
   15d1c:	0f80006f          	j	15e14 <printf_core+0x350>
   15d20:	00044583          	lbu	a1,0(s0)
   15d24:	00900813          	li	a6,9
   15d28:	00000c13          	li	s8,0
   15d2c:	fd05869b          	addiw	a3,a1,-48
   15d30:	f8d868e3          	bltu	a6,a3,15cc0 <printf_core+0x1fc>
   15d34:	0cccdfb7          	lui	t6,0xcccd
   15d38:	80000537          	lui	a0,0x80000
   15d3c:	cccf8f93          	addi	t6,t6,-820 # ccccccc <__BSS_END__+0xccad06c>
   15d40:	fff5051b          	addiw	a0,a0,-1 # 7fffffff <__BSS_END__+0x7ffe039f>
   15d44:	038fc863          	blt	t6,s8,15d74 <printf_core+0x2b0>
   15d48:	002c171b          	slliw	a4,s8,0x2
   15d4c:	0187073b          	addw	a4,a4,s8
   15d50:	0017171b          	slliw	a4,a4,0x1
   15d54:	40e505bb          	subw	a1,a0,a4
   15d58:	00140413          	addi	s0,s0,1
   15d5c:	40e0073b          	negw	a4,a4
   15d60:	08d5da63          	bge	a1,a3,15df4 <printf_core+0x330>
   15d64:	00044783          	lbu	a5,0(s0)
   15d68:	00900713          	li	a4,9
   15d6c:	fd07879b          	addiw	a5,a5,-48
   15d70:	00f76c63          	bltu	a4,a5,15d88 <printf_core+0x2c4>
   15d74:	00900713          	li	a4,9
   15d78:	00144783          	lbu	a5,1(s0)
   15d7c:	00140413          	addi	s0,s0,1
   15d80:	fd07879b          	addiw	a5,a5,-48
   15d84:	fef77ae3          	bgeu	a4,a5,15d78 <printf_core+0x2b4>
   15d88:	948fb0ef          	jal	10ed0 <__errno_location>
   15d8c:	04b00793          	li	a5,75
   15d90:	00f52023          	sw	a5,0(a0)
   15d94:	fff00a93          	li	s5,-1
   15d98:	00009797          	auipc	a5,0x9
   15d9c:	1c87b783          	ld	a5,456(a5) # 1ef60 <_GLOBAL_OFFSET_TABLE_+0x8>
   15da0:	08813703          	ld	a4,136(sp)
   15da4:	0007b783          	ld	a5,0(a5)
   15da8:	00f747b3          	xor	a5,a4,a5
   15dac:	00000713          	li	a4,0
   15db0:	360792e3          	bnez	a5,16914 <printf_core+0xe50>
   15db4:	0f813083          	ld	ra,248(sp)
   15db8:	0f013403          	ld	s0,240(sp)
   15dbc:	0e813483          	ld	s1,232(sp)
   15dc0:	0e013903          	ld	s2,224(sp)
   15dc4:	0d813983          	ld	s3,216(sp)
   15dc8:	0d013a03          	ld	s4,208(sp)
   15dcc:	0c013b03          	ld	s6,192(sp)
   15dd0:	0b813b83          	ld	s7,184(sp)
   15dd4:	0b013c03          	ld	s8,176(sp)
   15dd8:	0a813c83          	ld	s9,168(sp)
   15ddc:	0a013d03          	ld	s10,160(sp)
   15de0:	09813d83          	ld	s11,152(sp)
   15de4:	000a8513          	mv	a0,s5
   15de8:	0c813a83          	ld	s5,200(sp)
   15dec:	10010113          	addi	sp,sp,256
   15df0:	00008067          	ret
   15df4:	00044583          	lbu	a1,0(s0)
   15df8:	40e68c3b          	subw	s8,a3,a4
   15dfc:	fd05869b          	addiw	a3,a1,-48
   15e00:	f4d872e3          	bgeu	a6,a3,15d44 <printf_core+0x280>
   15e04:	02e00713          	li	a4,46
   15e08:	ece580e3          	beq	a1,a4,15cc8 <printf_core+0x204>
   15e0c:	00000713          	li	a4,0
   15e10:	fff00d93          	li	s11,-1
   15e14:	00000693          	li	a3,0
   15e18:	03900513          	li	a0,57
   15e1c:	00700f93          	li	t6,7
   15e20:	0300006f          	j	15e50 <printf_core+0x38c>
   15e24:	02069813          	slli	a6,a3,0x20
   15e28:	02085813          	srli	a6,a6,0x20
   15e2c:	03980833          	mul	a6,a6,s9
   15e30:	00140413          	addi	s0,s0,1
   15e34:	010a0833          	add	a6,s4,a6
   15e38:	00b80833          	add	a6,a6,a1
   15e3c:	00084803          	lbu	a6,0(a6)
   15e40:	fff8029b          	addiw	t0,a6,-1
   15e44:	0008059b          	sext.w	a1,a6
   15e48:	025fe263          	bltu	t6,t0,15e6c <printf_core+0x3a8>
   15e4c:	00058693          	mv	a3,a1
   15e50:	00044583          	lbu	a1,0(s0)
   15e54:	fbf5859b          	addiw	a1,a1,-65
   15e58:	fcb576e3          	bgeu	a0,a1,15e24 <printf_core+0x360>
   15e5c:	874fb0ef          	jal	10ed0 <__errno_location>
   15e60:	01600793          	li	a5,22
   15e64:	00f52023          	sw	a5,0(a0)
   15e68:	f2dff06f          	j	15d94 <printf_core+0x2d0>
   15e6c:	fe0588e3          	beqz	a1,15e5c <printf_core+0x398>
   15e70:	01b00513          	li	a0,27
   15e74:	0ca58c63          	beq	a1,a0,15f4c <printf_core+0x488>
   15e78:	fff00513          	li	a0,-1
   15e7c:	18a60c63          	beq	a2,a0,16014 <printf_core+0x550>
   15e80:	160b0263          	beqz	s6,15fe4 <printf_core+0x520>
   15e84:	01813783          	ld	a5,24(sp)
   15e88:	00461613          	slli	a2,a2,0x4
   15e8c:	00c78633          	add	a2,a5,a2
   15e90:	00063583          	ld	a1,0(a2)
   15e94:	00863603          	ld	a2,8(a2)
   15e98:	04b13823          	sd	a1,80(sp)
   15e9c:	04c13c23          	sd	a2,88(sp)
   15ea0:	000b2603          	lw	a2,0(s6)
   15ea4:	02067613          	andi	a2,a2,32
   15ea8:	ee0616e3          	bnez	a2,15d94 <printf_core+0x2d0>
   15eac:	fff44603          	lbu	a2,-1(s0)
   15eb0:	0006081b          	sext.w	a6,a2
   15eb4:	00068863          	beqz	a3,15ec4 <printf_core+0x400>
   15eb8:	00f67613          	andi	a2,a2,15
   15ebc:	00300593          	li	a1,3
   15ec0:	10b60e63          	beq	a2,a1,15fdc <printf_core+0x518>
   15ec4:	032b9613          	slli	a2,s7,0x32
   15ec8:	00065863          	bgez	a2,15ed8 <printf_core+0x414>
   15ecc:	ffff0637          	lui	a2,0xffff0
   15ed0:	fff60613          	addi	a2,a2,-1 # fffffffffffeffff <__BSS_END__+0xfffffffffffd039f>
   15ed4:	00cbfbb3          	and	s7,s7,a2
   15ed8:	fbf8061b          	addiw	a2,a6,-65
   15edc:	03700593          	li	a1,55
   15ee0:	20c5ec63          	bltu	a1,a2,160f8 <printf_core+0x634>
   15ee4:	02061593          	slli	a1,a2,0x20
   15ee8:	01e5d613          	srli	a2,a1,0x1e
   15eec:	00007597          	auipc	a1,0x7
   15ef0:	88458593          	addi	a1,a1,-1916 # 1c770 <__malloc_size_classes+0xa8>
   15ef4:	00b60633          	add	a2,a2,a1
   15ef8:	00062603          	lw	a2,0(a2)
   15efc:	00b60633          	add	a2,a2,a1
   15f00:	00060067          	jr	a2
   15f04:	00244683          	lbu	a3,2(s0)
   15f08:	02400713          	li	a4,36
   15f0c:	12e68a63          	beq	a3,a4,16040 <printf_core+0x57c>
   15f10:	00813783          	ld	a5,8(sp)
   15f14:	f40794e3          	bnez	a5,15e5c <printf_core+0x398>
   15f18:	00140413          	addi	s0,s0,1
   15f1c:	d60b1ce3          	bnez	s6,15c94 <printf_core+0x1d0>
   15f20:	00000c13          	li	s8,0
   15f24:	00000713          	li	a4,0
   15f28:	fff00d93          	li	s11,-1
   15f2c:	ee9ff06f          	j	15e14 <printf_core+0x350>
   15f30:	fd05861b          	addiw	a2,a1,-48
   15f34:	00344583          	lbu	a1,3(s0)
   15f38:	00100793          	li	a5,1
   15f3c:	00f13423          	sd	a5,8(sp)
   15f40:	00340413          	addi	s0,s0,3
   15f44:	0005879b          	sext.w	a5,a1
   15f48:	cd5ff06f          	j	15c1c <printf_core+0x158>
   15f4c:	fff00593          	li	a1,-1
   15f50:	f0b616e3          	bne	a2,a1,15e5c <printf_core+0x398>
   15f54:	f40b16e3          	bnez	s6,15ea0 <printf_core+0x3dc>
   15f58:	00040d13          	mv	s10,s0
   15f5c:	bedff06f          	j	15b48 <printf_core+0x84>
   15f60:	fd07081b          	addiw	a6,a4,-48
   15f64:	00900693          	li	a3,9
   15f68:	00140413          	addi	s0,s0,1
   15f6c:	0906ece3          	bltu	a3,a6,16804 <printf_core+0xd40>
   15f70:	0cccd5b7          	lui	a1,0xcccd
   15f74:	80000537          	lui	a0,0x80000
   15f78:	ccc58593          	addi	a1,a1,-820 # ccccccc <__BSS_END__+0xccad06c>
   15f7c:	fff5051b          	addiw	a0,a0,-1 # 7fffffff <__BSS_END__+0x7ffe039f>
   15f80:	00000d93          	li	s11,0
   15f84:	03b5ee63          	bltu	a1,s11,15fc0 <printf_core+0x4fc>
   15f88:	002d971b          	slliw	a4,s11,0x2
   15f8c:	01b7073b          	addw	a4,a4,s11
   15f90:	0017171b          	slliw	a4,a4,0x1
   15f94:	40e50fbb          	subw	t6,a0,a4
   15f98:	40e0073b          	negw	a4,a4
   15f9c:	070fd863          	bge	t6,a6,1600c <printf_core+0x548>
   15fa0:	00144703          	lbu	a4,1(s0)
   15fa4:	00140813          	addi	a6,s0,1
   15fa8:	fd07071b          	addiw	a4,a4,-48
   15fac:	04e6e863          	bltu	a3,a4,15ffc <printf_core+0x538>
   15fb0:	00244703          	lbu	a4,2(s0)
   15fb4:	00240413          	addi	s0,s0,2
   15fb8:	fd07071b          	addiw	a4,a4,-48
   15fbc:	04e6e263          	bltu	a3,a4,16000 <printf_core+0x53c>
   15fc0:	fff00d93          	li	s11,-1
   15fc4:	00144703          	lbu	a4,1(s0)
   15fc8:	00140413          	addi	s0,s0,1
   15fcc:	fd07081b          	addiw	a6,a4,-48
   15fd0:	fb06fae3          	bgeu	a3,a6,15f84 <printf_core+0x4c0>
   15fd4:	00100713          	li	a4,1
   15fd8:	e3dff06f          	j	15e14 <printf_core+0x350>
   15fdc:	0df87813          	andi	a6,a6,223
   15fe0:	ee5ff06f          	j	15ec4 <printf_core+0x400>
   15fe4:	02013703          	ld	a4,32(sp)
   15fe8:	00261793          	slli	a5,a2,0x2
   15fec:	00040d13          	mv	s10,s0
   15ff0:	00f707b3          	add	a5,a4,a5
   15ff4:	0107a023          	sw	a6,0(a5)
   15ff8:	b51ff06f          	j	15b48 <printf_core+0x84>
   15ffc:	00080413          	mv	s0,a6
   16000:	00100713          	li	a4,1
   16004:	fff00d93          	li	s11,-1
   16008:	e0dff06f          	j	15e14 <printf_core+0x350>
   1600c:	40e80dbb          	subw	s11,a6,a4
   16010:	fb5ff06f          	j	15fc4 <printf_core+0x500>
   16014:	040b06e3          	beqz	s6,16860 <printf_core+0xd9c>
   16018:	01013603          	ld	a2,16(sp)
   1601c:	05010513          	addi	a0,sp,80
   16020:	03d13c23          	sd	t4,56(sp)
   16024:	02d13823          	sd	a3,48(sp)
   16028:	02e13423          	sd	a4,40(sp)
   1602c:	b40fe0ef          	jal	1436c <pop_arg>
   16030:	02813703          	ld	a4,40(sp)
   16034:	03013683          	ld	a3,48(sp)
   16038:	03813e83          	ld	t4,56(sp)
   1603c:	e65ff06f          	j	15ea0 <printf_core+0x3dc>
   16040:	00340693          	addi	a3,s0,3
   16044:	700b0e63          	beqz	s6,16760 <printf_core+0xc9c>
   16048:	01813783          	ld	a5,24(sp)
   1604c:	00459713          	slli	a4,a1,0x4
   16050:	00068413          	mv	s0,a3
   16054:	00e78733          	add	a4,a5,a4
   16058:	00100793          	li	a5,1
   1605c:	d0072c03          	lw	s8,-768(a4)
   16060:	00f13423          	sd	a5,8(sp)
   16064:	c49ff06f          	j	15cac <printf_core+0x1e8>
   16068:	720b0263          	beqz	s6,1678c <printf_core+0xcc8>
   1606c:	01813783          	ld	a5,24(sp)
   16070:	00471713          	slli	a4,a4,0x4
   16074:	00440413          	addi	s0,s0,4
   16078:	00e78733          	add	a4,a5,a4
   1607c:	d0072d83          	lw	s11,-768(a4)
   16080:	fffdc713          	not	a4,s11
   16084:	01f7571b          	srliw	a4,a4,0x1f
   16088:	d8dff06f          	j	15e14 <printf_core+0x350>
   1608c:	00000d93          	li	s11,0
   16090:	00100713          	li	a4,1
   16094:	00240413          	addi	s0,s0,2
   16098:	d7dff06f          	j	15e14 <printf_core+0x350>
   1609c:	00000c13          	li	s8,0
   160a0:	00000b93          	li	s7,0
   160a4:	c1dff06f          	j	15cc0 <printf_core+0x1fc>
   160a8:	ce0b18e3          	bnez	s6,15d98 <printf_core+0x2d4>
   160ac:	00813783          	ld	a5,8(sp)
   160b0:	7a078863          	beqz	a5,16860 <printf_core+0xd9c>
   160b4:	01813783          	ld	a5,24(sp)
   160b8:	00100413          	li	s0,1
   160bc:	00a00913          	li	s2,10
   160c0:	01078b13          	addi	s6,a5,16
   160c4:	02013783          	ld	a5,32(sp)
   160c8:	00478493          	addi	s1,a5,4
   160cc:	0004a583          	lw	a1,0(s1)
   160d0:	70058463          	beqz	a1,167d8 <printf_core+0xd14>
   160d4:	01013603          	ld	a2,16(sp)
   160d8:	000b0513          	mv	a0,s6
   160dc:	00140413          	addi	s0,s0,1
   160e0:	a8cfe0ef          	jal	1436c <pop_arg>
   160e4:	00448493          	addi	s1,s1,4
   160e8:	010b0b13          	addi	s6,s6,16
   160ec:	ff2410e3          	bne	s0,s2,160cc <printf_core+0x608>
   160f0:	00100a93          	li	s5,1
   160f4:	ca5ff06f          	j	15d98 <printf_core+0x2d4>
   160f8:	08810593          	addi	a1,sp,136
   160fc:	41a582b3          	sub	t0,a1,s10
   16100:	2c5dd663          	bge	s11,t0,163cc <printf_core+0x908>
   16104:	00028d9b          	sext.w	s11,t0
   16108:	000d8813          	mv	a6,s11
   1610c:	00000713          	li	a4,0
   16110:	00006f97          	auipc	t6,0x6
   16114:	cd0f8f93          	addi	t6,t6,-816 # 1bde0 <values.0+0x298>
   16118:	0008049b          	sext.w	s1,a6
   1611c:	01885463          	bge	a6,s8,16124 <printf_core+0x660>
   16120:	000c049b          	sext.w	s1,s8
   16124:	c69ec2e3          	blt	t4,s1,15d88 <printf_core+0x2c4>
   16128:	00dbd693          	srli	a3,s7,0xd
   1612c:	0096f693          	andi	a3,a3,9
   16130:	58069663          	bnez	a3,166bc <printf_core+0xbf8>
   16134:	55885863          	bge	a6,s8,16684 <printf_core+0xbc0>
   16138:	00080693          	mv	a3,a6
   1613c:	00048613          	mv	a2,s1
   16140:	02000593          	li	a1,32
   16144:	000b0513          	mv	a0,s6
   16148:	05f13023          	sd	t6,64(sp)
   1614c:	02e13c23          	sd	a4,56(sp)
   16150:	02513823          	sd	t0,48(sp)
   16154:	03013423          	sd	a6,40(sp)
   16158:	b50fe0ef          	jal	144a8 <pad.part.0>
   1615c:	000b2683          	lw	a3,0(s6)
   16160:	02813803          	ld	a6,40(sp)
   16164:	03013283          	ld	t0,48(sp)
   16168:	0206f693          	andi	a3,a3,32
   1616c:	03813703          	ld	a4,56(sp)
   16170:	04013f83          	ld	t6,64(sp)
   16174:	50068e63          	beqz	a3,16690 <printf_core+0xbcc>
   16178:	0002869b          	sext.w	a3,t0
   1617c:	a1b6dce3          	bge	a3,s11,15b94 <printf_core+0xd0>
   16180:	000d8613          	mv	a2,s11
   16184:	03000593          	li	a1,48
   16188:	000b0513          	mv	a0,s6
   1618c:	03013823          	sd	a6,48(sp)
   16190:	02513423          	sd	t0,40(sp)
   16194:	b14fe0ef          	jal	144a8 <pad.part.0>
   16198:	03013803          	ld	a6,48(sp)
   1619c:	02813283          	ld	t0,40(sp)
   161a0:	000b2703          	lw	a4,0(s6)
   161a4:	02077713          	andi	a4,a4,32
   161a8:	00071e63          	bnez	a4,161c4 <printf_core+0x700>
   161ac:	00028593          	mv	a1,t0
   161b0:	000d0513          	mv	a0,s10
   161b4:	000b0613          	mv	a2,s6
   161b8:	03013423          	sd	a6,40(sp)
   161bc:	ba5fd0ef          	jal	13d60 <__fwritex>
   161c0:	02813803          	ld	a6,40(sp)
   161c4:	00002737          	lui	a4,0x2
   161c8:	00ebc733          	xor	a4,s7,a4
   161cc:	00d75793          	srli	a5,a4,0xd
   161d0:	0097f793          	andi	a5,a5,9
   161d4:	9c0790e3          	bnez	a5,15b94 <printf_core+0xd0>
   161d8:	9b885ee3          	bge	a6,s8,15b94 <printf_core+0xd0>
   161dc:	00080693          	mv	a3,a6
   161e0:	00048613          	mv	a2,s1
   161e4:	02000593          	li	a1,32
   161e8:	000b0513          	mv	a0,s6
   161ec:	abcfe0ef          	jal	144a8 <pad.part.0>
   161f0:	00040d13          	mv	s10,s0
   161f4:	955ff06f          	j	15b48 <printf_core+0x84>
   161f8:	00070463          	beqz	a4,16200 <printf_core+0x73c>
   161fc:	b80dc6e3          	bltz	s11,15d88 <printf_core+0x2c4>
   16200:	05013583          	ld	a1,80(sp)
   16204:	05813603          	ld	a2,88(sp)
   16208:	000b8793          	mv	a5,s7
   1620c:	000d8713          	mv	a4,s11
   16210:	000c0693          	mv	a3,s8
   16214:	000b0513          	mv	a0,s6
   16218:	03d13423          	sd	t4,40(sp)
   1621c:	b84fe0ef          	jal	145a0 <fmt_fp>
   16220:	fff00793          	li	a5,-1
   16224:	02813e83          	ld	t4,40(sp)
   16228:	00050493          	mv	s1,a0
   1622c:	b4f50ee3          	beq	a0,a5,15d88 <printf_core+0x2c4>
   16230:	969ed2e3          	bge	t4,s1,15b94 <printf_core+0xd0>
   16234:	b55ff06f          	j	15d88 <printf_core+0x2c4>
   16238:	05013383          	ld	t2,80(sp)
   1623c:	5e03ce63          	bltz	t2,16838 <printf_core+0xd74>
   16240:	034b9693          	slli	a3,s7,0x34
   16244:	6006c663          	bltz	a3,16850 <printf_core+0xd8c>
   16248:	001bf693          	andi	a3,s7,1
   1624c:	00006f97          	auipc	t6,0x6
   16250:	b94f8f93          	addi	t6,t6,-1132 # 1bde0 <values.0+0x298>
   16254:	00068863          	beqz	a3,16264 <printf_core+0x7a0>
   16258:	00100493          	li	s1,1
   1625c:	00006f97          	auipc	t6,0x6
   16260:	b86f8f93          	addi	t6,t6,-1146 # 1bde2 <values.0+0x29a>
   16264:	4a038663          	beqz	t2,16710 <printf_core+0xc4c>
   16268:	ccccd6b7          	lui	a3,0xccccd
   1626c:	ccd68693          	addi	a3,a3,-819 # ffffffffcccccccd <__BSS_END__+0xffffffffcccad06d>
   16270:	02069813          	slli	a6,a3,0x20
   16274:	08810593          	addi	a1,sp,136
   16278:	00d80833          	add	a6,a6,a3
   1627c:	00058d13          	mv	s10,a1
   16280:	00900293          	li	t0,9
   16284:	0303b633          	mulhu	a2,t2,a6
   16288:	fffd0d13          	addi	s10,s10,-1
   1628c:	00038513          	mv	a0,t2
   16290:	00365613          	srli	a2,a2,0x3
   16294:	00261693          	slli	a3,a2,0x2
   16298:	00c686b3          	add	a3,a3,a2
   1629c:	00169693          	slli	a3,a3,0x1
   162a0:	40d386b3          	sub	a3,t2,a3
   162a4:	0306869b          	addiw	a3,a3,48
   162a8:	00dd0023          	sb	a3,0(s10)
   162ac:	00060393          	mv	t2,a2
   162b0:	fca2eae3          	bltu	t0,a0,16284 <printf_core+0x7c0>
   162b4:	46071463          	bnez	a4,1671c <printf_core+0xc58>
   162b8:	05013383          	ld	t2,80(sp)
   162bc:	00048713          	mv	a4,s1
   162c0:	41a582b3          	sub	t0,a1,s10
   162c4:	0013b393          	seqz	t2,t2
   162c8:	005386b3          	add	a3,t2,t0
   162cc:	01b6d463          	bge	a3,s11,162d4 <printf_core+0x810>
   162d0:	000d8693          	mv	a3,s11
   162d4:	00068d9b          	sext.w	s11,a3
   162d8:	005dd463          	bge	s11,t0,162e0 <printf_core+0x81c>
   162dc:	00028d9b          	sext.w	s11,t0
   162e0:	800006b7          	lui	a3,0x80000
   162e4:	fff6869b          	addiw	a3,a3,-1 # 7fffffff <__BSS_END__+0x7ffe039f>
   162e8:	409686bb          	subw	a3,a3,s1
   162ec:	a9b6cee3          	blt	a3,s11,15d88 <printf_core+0x2c4>
   162f0:	00ed883b          	addw	a6,s11,a4
   162f4:	e25ff06f          	j	16118 <printf_core+0x654>
   162f8:	05013383          	ld	t2,80(sp)
   162fc:	02087513          	andi	a0,a6,32
   16300:	00038693          	mv	a3,t2
   16304:	40038263          	beqz	t2,16708 <printf_core+0xc44>
   16308:	0ff57513          	zext.b	a0,a0
   1630c:	008bf293          	andi	t0,s7,8
   16310:	08810593          	addi	a1,sp,136
   16314:	00058d13          	mv	s10,a1
   16318:	00006f97          	auipc	t6,0x6
   1631c:	558f8f93          	addi	t6,t6,1368 # 1c870 <xdigits>
   16320:	00f6f613          	andi	a2,a3,15
   16324:	00cf8633          	add	a2,t6,a2
   16328:	00064603          	lbu	a2,0(a2)
   1632c:	fffd0d13          	addi	s10,s10,-1
   16330:	0046d693          	srli	a3,a3,0x4
   16334:	00c56633          	or	a2,a0,a2
   16338:	00cd0023          	sb	a2,0(s10)
   1633c:	fe0692e3          	bnez	a3,16320 <printf_core+0x85c>
   16340:	00006f97          	auipc	t6,0x6
   16344:	aa0f8f93          	addi	t6,t6,-1376 # 1bde0 <values.0+0x298>
   16348:	02029263          	bnez	t0,1636c <printf_core+0x8a8>
   1634c:	3c071863          	bnez	a4,1671c <printf_core+0xc58>
   16350:	00048713          	mv	a4,s1
   16354:	f60396e3          	bnez	t2,162c0 <printf_core+0x7fc>
   16358:	f60d94e3          	bnez	s11,162c0 <printf_core+0x7fc>
   1635c:	00048813          	mv	a6,s1
   16360:	00058d13          	mv	s10,a1
   16364:	00000293          	li	t0,0
   16368:	db1ff06f          	j	16118 <printf_core+0x654>
   1636c:	4048581b          	sraiw	a6,a6,0x4
   16370:	010f8fb3          	add	t6,t6,a6
   16374:	00200493          	li	s1,2
   16378:	fd5ff06f          	j	1634c <printf_core+0x888>
   1637c:	03d13423          	sd	t4,40(sp)
   16380:	b51fa0ef          	jal	10ed0 <__errno_location>
   16384:	00052503          	lw	a0,0(a0)
   16388:	b95fa0ef          	jal	10f1c <strerror>
   1638c:	02813e83          	ld	t4,40(sp)
   16390:	00050d13          	mv	s10,a0
   16394:	03d13423          	sd	t4,40(sp)
   16398:	400dcc63          	bltz	s11,167b0 <printf_core+0xcec>
   1639c:	000d8593          	mv	a1,s11
   163a0:	000d0513          	mv	a0,s10
   163a4:	5e9000ef          	jal	1718c <strnlen>
   163a8:	02813e83          	ld	t4,40(sp)
   163ac:	00050d93          	mv	s11,a0
   163b0:	00ad05b3          	add	a1,s10,a0
   163b4:	ffff0737          	lui	a4,0xffff0
   163b8:	fff70713          	addi	a4,a4,-1 # fffffffffffeffff <__BSS_END__+0xfffffffffffd039f>
   163bc:	000d8d9b          	sext.w	s11,s11
   163c0:	41a582b3          	sub	t0,a1,s10
   163c4:	00ebfbb3          	and	s7,s7,a4
   163c8:	d25dcee3          	blt	s11,t0,16104 <printf_core+0x640>
   163cc:	000d8813          	mv	a6,s11
   163d0:	00000713          	li	a4,0
   163d4:	00006f97          	auipc	t6,0x6
   163d8:	a0cf8f93          	addi	t6,t6,-1524 # 1bde0 <values.0+0x298>
   163dc:	d3dff06f          	j	16118 <printf_core+0x654>
   163e0:	00700793          	li	a5,7
   163e4:	fad7e863          	bltu	a5,a3,15b94 <printf_core+0xd0>
   163e8:	00006717          	auipc	a4,0x6
   163ec:	46870713          	addi	a4,a4,1128 # 1c850 <__malloc_size_classes+0x188>
   163f0:	00269793          	slli	a5,a3,0x2
   163f4:	00e787b3          	add	a5,a5,a4
   163f8:	0007a783          	lw	a5,0(a5)
   163fc:	00e787b3          	add	a5,a5,a4
   16400:	00078067          	jr	a5
   16404:	05013783          	ld	a5,80(sp)
   16408:	00040d13          	mv	s10,s0
   1640c:	0157b023          	sd	s5,0(a5)
   16410:	f38ff06f          	j	15b48 <printf_core+0x84>
   16414:	05013383          	ld	t2,80(sp)
   16418:	08810593          	addi	a1,sp,136
   1641c:	00058d13          	mv	s10,a1
   16420:	00038693          	mv	a3,t2
   16424:	00038e63          	beqz	t2,16440 <printf_core+0x97c>
   16428:	0076f613          	andi	a2,a3,7
   1642c:	fffd0d13          	addi	s10,s10,-1
   16430:	0306061b          	addiw	a2,a2,48
   16434:	00cd0023          	sb	a2,0(s10)
   16438:	0036d693          	srli	a3,a3,0x3
   1643c:	fe0696e3          	bnez	a3,16428 <printf_core+0x964>
   16440:	008bf693          	andi	a3,s7,8
   16444:	00006f97          	auipc	t6,0x6
   16448:	99cf8f93          	addi	t6,t6,-1636 # 1bde0 <values.0+0x298>
   1644c:	f00680e3          	beqz	a3,1634c <printf_core+0x888>
   16450:	41a586b3          	sub	a3,a1,s10
   16454:	efb6cce3          	blt	a3,s11,1634c <printf_core+0x888>
   16458:	00168d9b          	addiw	s11,a3,1
   1645c:	ef1ff06f          	j	1634c <printf_core+0x888>
   16460:	01000613          	li	a2,16
   16464:	000d8693          	mv	a3,s11
   16468:	00cdf463          	bgeu	s11,a2,16470 <printf_core+0x9ac>
   1646c:	00060693          	mv	a3,a2
   16470:	05013383          	ld	t2,80(sp)
   16474:	00068d9b          	sext.w	s11,a3
   16478:	000b8613          	mv	a2,s7
   1647c:	00038693          	mv	a3,t2
   16480:	008be793          	ori	a5,s7,8
   16484:	3e038c63          	beqz	t2,1687c <printf_core+0xdb8>
   16488:	00078b93          	mv	s7,a5
   1648c:	02000513          	li	a0,32
   16490:	00800293          	li	t0,8
   16494:	07800813          	li	a6,120
   16498:	e79ff06f          	j	16310 <printf_core+0x84c>
   1649c:	05013d03          	ld	s10,80(sp)
   164a0:	ee0d1ae3          	bnez	s10,16394 <printf_core+0x8d0>
   164a4:	00006d17          	auipc	s10,0x6
   164a8:	94cd0d13          	addi	s10,s10,-1716 # 1bdf0 <values.0+0x2a8>
   164ac:	ee9ff06f          	j	16394 <printf_core+0x8d0>
   164b0:	05013d03          	ld	s10,80(sp)
   164b4:	000d8693          	mv	a3,s11
   164b8:	3e0d8e63          	beqz	s11,168b4 <printf_core+0xdf0>
   164bc:	06810793          	addi	a5,sp,104
   164c0:	000d0613          	mv	a2,s10
   164c4:	00000493          	li	s1,0
   164c8:	04f13023          	sd	a5,64(sp)
   164cc:	0400006f          	j	1650c <printf_core+0xa48>
   164d0:	04013503          	ld	a0,64(sp)
   164d4:	00460613          	addi	a2,a2,4
   164d8:	03d13823          	sd	t4,48(sp)
   164dc:	02c13423          	sd	a2,40(sp)
   164e0:	04c13423          	sd	a2,72(sp)
   164e4:	3ac010ef          	jal	17890 <wctomb>
   164e8:	8a0546e3          	bltz	a0,15d94 <printf_core+0x2d0>
   164ec:	03813683          	ld	a3,56(sp)
   164f0:	02813603          	ld	a2,40(sp)
   164f4:	03013e83          	ld	t4,48(sp)
   164f8:	409686b3          	sub	a3,a3,s1
   164fc:	00a6ee63          	bltu	a3,a0,16518 <printf_core+0xa54>
   16500:	00a484b3          	add	s1,s1,a0
   16504:	000d8693          	mv	a3,s11
   16508:	01b4f863          	bgeu	s1,s11,16518 <printf_core+0xa54>
   1650c:	00062583          	lw	a1,0(a2)
   16510:	02d13c23          	sd	a3,56(sp)
   16514:	fa059ee3          	bnez	a1,164d0 <printf_core+0xa0c>
   16518:	800006b7          	lui	a3,0x80000
   1651c:	fff6c693          	not	a3,a3
   16520:	8696e4e3          	bltu	a3,s1,15d88 <printf_core+0x2c4>
   16524:	0004879b          	sext.w	a5,s1
   16528:	00dbd693          	srli	a3,s7,0xd
   1652c:	02f13c23          	sd	a5,56(sp)
   16530:	0096f693          	andi	a3,a3,9
   16534:	2c069e63          	bnez	a3,16810 <printf_core+0xd4c>
   16538:	0387d063          	bge	a5,s8,16558 <printf_core+0xa94>
   1653c:	03813683          	ld	a3,56(sp)
   16540:	000c0613          	mv	a2,s8
   16544:	02000593          	li	a1,32
   16548:	000b0513          	mv	a0,s6
   1654c:	03d13423          	sd	t4,40(sp)
   16550:	f59fd0ef          	jal	144a8 <pad.part.0>
   16554:	02813e83          	ld	t4,40(sp)
   16558:	38048463          	beqz	s1,168e0 <printf_core+0xe1c>
   1655c:	06810793          	addi	a5,sp,104
   16560:	00000d93          	li	s11,0
   16564:	02f13823          	sd	a5,48(sp)
   16568:	000d2583          	lw	a1,0(s10)
   1656c:	02058863          	beqz	a1,1659c <printf_core+0xad8>
   16570:	03013503          	ld	a0,48(sp)
   16574:	03d13423          	sd	t4,40(sp)
   16578:	004d0d13          	addi	s10,s10,4
   1657c:	314010ef          	jal	17890 <wctomb>
   16580:	00ad8db3          	add	s11,s11,a0
   16584:	02813e83          	ld	t4,40(sp)
   16588:	01b4ea63          	bltu	s1,s11,1659c <printf_core+0xad8>
   1658c:	000b2603          	lw	a2,0(s6)
   16590:	02067613          	andi	a2,a2,32
   16594:	04060a63          	beqz	a2,165e8 <printf_core+0xb24>
   16598:	fc9de8e3          	bltu	s11,s1,16568 <printf_core+0xaa4>
   1659c:	00002737          	lui	a4,0x2
   165a0:	00ebc733          	xor	a4,s7,a4
   165a4:	00d75793          	srli	a5,a4,0xd
   165a8:	0097f793          	andi	a5,a5,9
   165ac:	02079263          	bnez	a5,165d0 <printf_core+0xb0c>
   165b0:	03813683          	ld	a3,56(sp)
   165b4:	0186de63          	bge	a3,s8,165d0 <printf_core+0xb0c>
   165b8:	000c0613          	mv	a2,s8
   165bc:	02000593          	li	a1,32
   165c0:	000b0513          	mv	a0,s6
   165c4:	03d13423          	sd	t4,40(sp)
   165c8:	ee1fd0ef          	jal	144a8 <pad.part.0>
   165cc:	02813e83          	ld	t4,40(sp)
   165d0:	03813783          	ld	a5,56(sp)
   165d4:	0007849b          	sext.w	s1,a5
   165d8:	db87dc63          	bge	a5,s8,15b90 <printf_core+0xcc>
   165dc:	000c049b          	sext.w	s1,s8
   165e0:	da9eda63          	bge	t4,s1,15b94 <printf_core+0xd0>
   165e4:	fa4ff06f          	j	15d88 <printf_core+0x2c4>
   165e8:	00050593          	mv	a1,a0
   165ec:	03013503          	ld	a0,48(sp)
   165f0:	000b0613          	mv	a2,s6
   165f4:	03d13423          	sd	t4,40(sp)
   165f8:	f68fd0ef          	jal	13d60 <__fwritex>
   165fc:	02813e83          	ld	t4,40(sp)
   16600:	f99ff06f          	j	16598 <printf_core+0xad4>
   16604:	05013383          	ld	t2,80(sp)
   16608:	20039a63          	bnez	t2,1681c <printf_core+0xd58>
   1660c:	ffff0737          	lui	a4,0xffff0
   16610:	fff70713          	addi	a4,a4,-1 # fffffffffffeffff <__BSS_END__+0xfffffffffffd039f>
   16614:	00100813          	li	a6,1
   16618:	00ebfbb3          	and	s7,s7,a4
   1661c:	087103a3          	sb	t2,135(sp)
   16620:	00080d93          	mv	s11,a6
   16624:	00080293          	mv	t0,a6
   16628:	00000713          	li	a4,0
   1662c:	00005f97          	auipc	t6,0x5
   16630:	7b4f8f93          	addi	t6,t6,1972 # 1bde0 <values.0+0x298>
   16634:	08710d13          	addi	s10,sp,135
   16638:	ae1ff06f          	j	16118 <printf_core+0x654>
   1663c:	05013383          	ld	t2,80(sp)
   16640:	00005f97          	auipc	t6,0x5
   16644:	7a0f8f93          	addi	t6,t6,1952 # 1bde0 <values.0+0x298>
   16648:	c1dff06f          	j	16264 <printf_core+0x7a0>
   1664c:	05013383          	ld	t2,80(sp)
   16650:	fbdff06f          	j	1660c <printf_core+0xb48>
   16654:	05013783          	ld	a5,80(sp)
   16658:	00040d13          	mv	s10,s0
   1665c:	0157a023          	sw	s5,0(a5)
   16660:	ce8ff06f          	j	15b48 <printf_core+0x84>
   16664:	05013783          	ld	a5,80(sp)
   16668:	00040d13          	mv	s10,s0
   1666c:	01579023          	sh	s5,0(a5)
   16670:	cd8ff06f          	j	15b48 <printf_core+0x84>
   16674:	05013783          	ld	a5,80(sp)
   16678:	00040d13          	mv	s10,s0
   1667c:	01578023          	sb	s5,0(a5)
   16680:	cc8ff06f          	j	15b48 <printf_core+0x84>
   16684:	000b2683          	lw	a3,0(s6)
   16688:	0206f693          	andi	a3,a3,32
   1668c:	ae0696e3          	bnez	a3,16178 <printf_core+0x6b4>
   16690:	00070593          	mv	a1,a4
   16694:	000f8513          	mv	a0,t6
   16698:	000b0613          	mv	a2,s6
   1669c:	03013823          	sd	a6,48(sp)
   166a0:	02513423          	sd	t0,40(sp)
   166a4:	ebcfd0ef          	jal	13d60 <__fwritex>
   166a8:	02813283          	ld	t0,40(sp)
   166ac:	03013803          	ld	a6,48(sp)
   166b0:	0002869b          	sext.w	a3,t0
   166b4:	afb6d6e3          	bge	a3,s11,161a0 <printf_core+0x6dc>
   166b8:	ac9ff06f          	j	16180 <printf_core+0x6bc>
   166bc:	000b2683          	lw	a3,0(s6)
   166c0:	0206f693          	andi	a3,a3,32
   166c4:	06068c63          	beqz	a3,1673c <printf_core+0xc78>
   166c8:	00010737          	lui	a4,0x10
   166cc:	00ebc733          	xor	a4,s7,a4
   166d0:	00d75693          	srli	a3,a4,0xd
   166d4:	0096f693          	andi	a3,a3,9
   166d8:	fc069ce3          	bnez	a3,166b0 <printf_core+0xbec>
   166dc:	fd885ae3          	bge	a6,s8,166b0 <printf_core+0xbec>
   166e0:	00080693          	mv	a3,a6
   166e4:	00048613          	mv	a2,s1
   166e8:	03000593          	li	a1,48
   166ec:	000b0513          	mv	a0,s6
   166f0:	02513823          	sd	t0,48(sp)
   166f4:	03013423          	sd	a6,40(sp)
   166f8:	db1fd0ef          	jal	144a8 <pad.part.0>
   166fc:	02813803          	ld	a6,40(sp)
   16700:	03013283          	ld	t0,48(sp)
   16704:	fadff06f          	j	166b0 <printf_core+0xbec>
   16708:	00005f97          	auipc	t6,0x5
   1670c:	6d8f8f93          	addi	t6,t6,1752 # 1bde0 <values.0+0x298>
   16710:	14070c63          	beqz	a4,16868 <printf_core+0xda4>
   16714:	08810593          	addi	a1,sp,136
   16718:	00058d13          	mv	s10,a1
   1671c:	e60dc663          	bltz	s11,15d88 <printf_core+0x2c4>
   16720:	05013383          	ld	t2,80(sp)
   16724:	ffff0737          	lui	a4,0xffff0
   16728:	fff70713          	addi	a4,a4,-1 # fffffffffffeffff <__BSS_END__+0xfffffffffffd039f>
   1672c:	00ebfbb3          	and	s7,s7,a4
   16730:	00048713          	mv	a4,s1
   16734:	c20382e3          	beqz	t2,16358 <printf_core+0x894>
   16738:	b89ff06f          	j	162c0 <printf_core+0x7fc>
   1673c:	00070593          	mv	a1,a4
   16740:	000f8513          	mv	a0,t6
   16744:	000b0613          	mv	a2,s6
   16748:	03013823          	sd	a6,48(sp)
   1674c:	02513423          	sd	t0,40(sp)
   16750:	e10fd0ef          	jal	13d60 <__fwritex>
   16754:	02813283          	ld	t0,40(sp)
   16758:	03013803          	ld	a6,48(sp)
   1675c:	f6dff06f          	j	166c8 <printf_core+0xc04>
   16760:	02013783          	ld	a5,32(sp)
   16764:	00259713          	slli	a4,a1,0x2
   16768:	00a00593          	li	a1,10
   1676c:	00e78733          	add	a4,a5,a4
   16770:	f4b72023          	sw	a1,-192(a4)
   16774:	00100793          	li	a5,1
   16778:	00344583          	lbu	a1,3(s0)
   1677c:	00000c13          	li	s8,0
   16780:	00068413          	mv	s0,a3
   16784:	00f13423          	sd	a5,8(sp)
   16788:	d38ff06f          	j	15cc0 <printf_core+0x1fc>
   1678c:	02013783          	ld	a5,32(sp)
   16790:	00271713          	slli	a4,a4,0x2
   16794:	00a00693          	li	a3,10
   16798:	00e78733          	add	a4,a5,a4
   1679c:	f4d72023          	sw	a3,-192(a4)
   167a0:	00000d93          	li	s11,0
   167a4:	00100713          	li	a4,1
   167a8:	00440413          	addi	s0,s0,4
   167ac:	e68ff06f          	j	15e14 <printf_core+0x350>
   167b0:	800005b7          	lui	a1,0x80000
   167b4:	fff5c593          	not	a1,a1
   167b8:	000d0513          	mv	a0,s10
   167bc:	1d1000ef          	jal	1718c <strnlen>
   167c0:	00ad05b3          	add	a1,s10,a0
   167c4:	0005c703          	lbu	a4,0(a1) # ffffffff80000000 <__BSS_END__+0xffffffff7ffe03a0>
   167c8:	02813e83          	ld	t4,40(sp)
   167cc:	00050d93          	mv	s11,a0
   167d0:	be0702e3          	beqz	a4,163b4 <printf_core+0x8f0>
   167d4:	db4ff06f          	j	15d88 <printf_core+0x2c4>
   167d8:	02013703          	ld	a4,32(sp)
   167dc:	00241793          	slli	a5,s0,0x2
   167e0:	00f70ab3          	add	s5,a4,a5
   167e4:	00a00713          	li	a4,10
   167e8:	0100006f          	j	167f8 <printf_core+0xd34>
   167ec:	00140413          	addi	s0,s0,1
   167f0:	004a8a93          	addi	s5,s5,4
   167f4:	8ee40ee3          	beq	s0,a4,160f0 <printf_core+0x62c>
   167f8:	000aa783          	lw	a5,0(s5)
   167fc:	fe0788e3          	beqz	a5,167ec <printf_core+0xd28>
   16800:	e5cff06f          	j	15e5c <printf_core+0x398>
   16804:	00000d93          	li	s11,0
   16808:	00100713          	li	a4,1
   1680c:	e08ff06f          	j	15e14 <printf_core+0x350>
   16810:	d40496e3          	bnez	s1,1655c <printf_core+0xa98>
   16814:	02013c23          	sd	zero,56(sp)
   16818:	d85ff06f          	j	1659c <printf_core+0xad8>
   1681c:	fff00693          	li	a3,-1
   16820:	06010d13          	addi	s10,sp,96
   16824:	06712023          	sw	t2,96(sp)
   16828:	06012223          	sw	zero,100(sp)
   1682c:	05a13823          	sd	s10,80(sp)
   16830:	00068d93          	mv	s11,a3
   16834:	c89ff06f          	j	164bc <printf_core+0x9f8>
   16838:	407003b3          	neg	t2,t2
   1683c:	04713823          	sd	t2,80(sp)
   16840:	00100493          	li	s1,1
   16844:	00005f97          	auipc	t6,0x5
   16848:	59cf8f93          	addi	t6,t6,1436 # 1bde0 <values.0+0x298>
   1684c:	a1dff06f          	j	16268 <printf_core+0x7a4>
   16850:	00100493          	li	s1,1
   16854:	00005f97          	auipc	t6,0x5
   16858:	58df8f93          	addi	t6,t6,1421 # 1bde1 <values.0+0x299>
   1685c:	a09ff06f          	j	16264 <printf_core+0x7a0>
   16860:	00000a93          	li	s5,0
   16864:	d34ff06f          	j	15d98 <printf_core+0x2d4>
   16868:	08810593          	addi	a1,sp,136
   1686c:	00058d13          	mv	s10,a1
   16870:	00000393          	li	t2,0
   16874:	00048713          	mv	a4,s1
   16878:	ae1ff06f          	j	16358 <printf_core+0x894>
   1687c:	06070663          	beqz	a4,168e8 <printf_core+0xe24>
   16880:	d00dc463          	bltz	s11,15d88 <printf_core+0x2c4>
   16884:	ffff07b7          	lui	a5,0xffff0
   16888:	fff78793          	addi	a5,a5,-1 # fffffffffffeffff <__BSS_END__+0xfffffffffffd039f>
   1688c:	00f677b3          	and	a5,a2,a5
   16890:	0007879b          	sext.w	a5,a5
   16894:	08810593          	addi	a1,sp,136
   16898:	0087eb93          	ori	s7,a5,8
   1689c:	00058d13          	mv	s10,a1
   168a0:	00000393          	li	t2,0
   168a4:	00000713          	li	a4,0
   168a8:	00005f97          	auipc	t6,0x5
   168ac:	538f8f93          	addi	t6,t6,1336 # 1bde0 <values.0+0x298>
   168b0:	a11ff06f          	j	162c0 <printf_core+0x7fc>
   168b4:	00dbd713          	srli	a4,s7,0xd
   168b8:	00977713          	andi	a4,a4,9
   168bc:	f4071ce3          	bnez	a4,16814 <printf_core+0xd50>
   168c0:	ac0c0a63          	beqz	s8,15b94 <printf_core+0xd0>
   168c4:	00000693          	li	a3,0
   168c8:	000c0613          	mv	a2,s8
   168cc:	02000593          	li	a1,32
   168d0:	000b0513          	mv	a0,s6
   168d4:	03d13423          	sd	t4,40(sp)
   168d8:	bd1fd0ef          	jal	144a8 <pad.part.0>
   168dc:	02813e83          	ld	t4,40(sp)
   168e0:	02013c23          	sd	zero,56(sp)
   168e4:	cedff06f          	j	165d0 <printf_core+0xb0c>
   168e8:	000d8693          	mv	a3,s11
   168ec:	01b04463          	bgtz	s11,168f4 <printf_core+0xe30>
   168f0:	00100693          	li	a3,1
   168f4:	00068d9b          	sext.w	s11,a3
   168f8:	00078b93          	mv	s7,a5
   168fc:	00005f97          	auipc	t6,0x5
   16900:	4e4f8f93          	addi	t6,t6,1252 # 1bde0 <values.0+0x298>
   16904:	08810d13          	addi	s10,sp,136
   16908:	00000293          	li	t0,0
   1690c:	00ed883b          	addw	a6,s11,a4
   16910:	809ff06f          	j	16118 <printf_core+0x654>
   16914:	db0fa0ef          	jal	10ec4 <__stack_chk_fail>

0000000000016918 <vfprintf>:
   16918:	e7010113          	addi	sp,sp,-400
   1691c:	18813023          	sd	s0,384(sp)
   16920:	17213823          	sd	s2,368(sp)
   16924:	15513c23          	sd	s5,344(sp)
   16928:	15613823          	sd	s6,336(sp)
   1692c:	15813023          	sd	s8,320(sp)
   16930:	00060793          	mv	a5,a2
   16934:	18113423          	sd	ra,392(sp)
   16938:	16913c23          	sd	s1,376(sp)
   1693c:	00810b13          	addi	s6,sp,8
   16940:	03010a93          	addi	s5,sp,48
   16944:	00008917          	auipc	s2,0x8
   16948:	61c93903          	ld	s2,1564(s2) # 1ef60 <_GLOBAL_OFFSET_TABLE_+0x8>
   1694c:	00050413          	mv	s0,a0
   16950:	00f13023          	sd	a5,0(sp)
   16954:	000b0713          	mv	a4,s6
   16958:	000a8693          	mv	a3,s5
   1695c:	00010613          	mv	a2,sp
   16960:	00000513          	li	a0,0
   16964:	00093783          	ld	a5,0(s2)
   16968:	12f13423          	sd	a5,296(sp)
   1696c:	00000793          	li	a5,0
   16970:	00013423          	sd	zero,8(sp)
   16974:	00013823          	sd	zero,16(sp)
   16978:	00013c23          	sd	zero,24(sp)
   1697c:	02013023          	sd	zero,32(sp)
   16980:	02013423          	sd	zero,40(sp)
   16984:	00058c13          	mv	s8,a1
   16988:	93cff0ef          	jal	15ac4 <printf_core>
   1698c:	18054663          	bltz	a0,16b18 <vfprintf+0x200>
   16990:	17313423          	sd	s3,360(sp)
   16994:	17413023          	sd	s4,352(sp)
   16998:	15713423          	sd	s7,328(sp)
   1699c:	08c42783          	lw	a5,140(s0)
   169a0:	00010a13          	mv	s4,sp
   169a4:	00000993          	li	s3,0
   169a8:	0007c863          	bltz	a5,169b8 <vfprintf+0xa0>
   169ac:	00040513          	mv	a0,s0
   169b0:	9a4fd0ef          	jal	13b54 <__lockfile>
   169b4:	00050993          	mv	s3,a0
   169b8:	00042783          	lw	a5,0(s0)
   169bc:	06043703          	ld	a4,96(s0)
   169c0:	fdf7f693          	andi	a3,a5,-33
   169c4:	00d42023          	sw	a3,0(s0)
   169c8:	0207fb93          	andi	s7,a5,32
   169cc:	0a070863          	beqz	a4,16a7c <vfprintf+0x164>
   169d0:	02043783          	ld	a5,32(s0)
   169d4:	16078063          	beqz	a5,16b34 <vfprintf+0x21c>
   169d8:	000b0713          	mv	a4,s6
   169dc:	000a8693          	mv	a3,s5
   169e0:	000a0613          	mv	a2,s4
   169e4:	000c0593          	mv	a1,s8
   169e8:	00040513          	mv	a0,s0
   169ec:	8d8ff0ef          	jal	15ac4 <printf_core>
   169f0:	00050493          	mv	s1,a0
   169f4:	00042783          	lw	a5,0(s0)
   169f8:	0207f713          	andi	a4,a5,32
   169fc:	04071c63          	bnez	a4,16a54 <vfprintf+0x13c>
   16a00:	0177e7b3          	or	a5,a5,s7
   16a04:	00f42023          	sw	a5,0(s0)
   16a08:	04099e63          	bnez	s3,16a64 <vfprintf+0x14c>
   16a0c:	16813983          	ld	s3,360(sp)
   16a10:	16013a03          	ld	s4,352(sp)
   16a14:	14813b83          	ld	s7,328(sp)
   16a18:	12813703          	ld	a4,296(sp)
   16a1c:	00093783          	ld	a5,0(s2)
   16a20:	00f747b3          	xor	a5,a4,a5
   16a24:	00000713          	li	a4,0
   16a28:	0e079c63          	bnez	a5,16b20 <vfprintf+0x208>
   16a2c:	18813083          	ld	ra,392(sp)
   16a30:	18013403          	ld	s0,384(sp)
   16a34:	17013903          	ld	s2,368(sp)
   16a38:	15813a83          	ld	s5,344(sp)
   16a3c:	15013b03          	ld	s6,336(sp)
   16a40:	14013c03          	ld	s8,320(sp)
   16a44:	00048513          	mv	a0,s1
   16a48:	17813483          	ld	s1,376(sp)
   16a4c:	19010113          	addi	sp,sp,400
   16a50:	00008067          	ret
   16a54:	0177e7b3          	or	a5,a5,s7
   16a58:	00f42023          	sw	a5,0(s0)
   16a5c:	fff00493          	li	s1,-1
   16a60:	fa0986e3          	beqz	s3,16a0c <vfprintf+0xf4>
   16a64:	00040513          	mv	a0,s0
   16a68:	9ccfd0ef          	jal	13c34 <__unlockfile>
   16a6c:	16813983          	ld	s3,360(sp)
   16a70:	16013a03          	ld	s4,352(sp)
   16a74:	14813b83          	ld	s7,328(sp)
   16a78:	fa1ff06f          	j	16a18 <vfprintf+0x100>
   16a7c:	13913c23          	sd	s9,312(sp)
   16a80:	05000793          	li	a5,80
   16a84:	06f43023          	sd	a5,96(s0)
   16a88:	0d810793          	addi	a5,sp,216
   16a8c:	05843c83          	ld	s9,88(s0)
   16a90:	02043023          	sd	zero,32(s0)
   16a94:	02043c23          	sd	zero,56(s0)
   16a98:	02043423          	sd	zero,40(s0)
   16a9c:	04f43c23          	sd	a5,88(s0)
   16aa0:	00040513          	mv	a0,s0
   16aa4:	0f4010ef          	jal	17b98 <__towrite>
   16aa8:	fff00493          	li	s1,-1
   16aac:	02051063          	bnez	a0,16acc <vfprintf+0x1b4>
   16ab0:	000b0713          	mv	a4,s6
   16ab4:	000a8693          	mv	a3,s5
   16ab8:	000a0613          	mv	a2,s4
   16abc:	000c0593          	mv	a1,s8
   16ac0:	00040513          	mv	a0,s0
   16ac4:	800ff0ef          	jal	15ac4 <printf_core>
   16ac8:	00050493          	mv	s1,a0
   16acc:	040c8263          	beqz	s9,16b10 <vfprintf+0x1f8>
   16ad0:	04843783          	ld	a5,72(s0)
   16ad4:	00000613          	li	a2,0
   16ad8:	00000593          	li	a1,0
   16adc:	00040513          	mv	a0,s0
   16ae0:	000780e7          	jalr	a5
   16ae4:	02843783          	ld	a5,40(s0)
   16ae8:	02078063          	beqz	a5,16b08 <vfprintf+0x1f0>
   16aec:	05943c23          	sd	s9,88(s0)
   16af0:	06043023          	sd	zero,96(s0)
   16af4:	02043023          	sd	zero,32(s0)
   16af8:	02043c23          	sd	zero,56(s0)
   16afc:	02043423          	sd	zero,40(s0)
   16b00:	13813c83          	ld	s9,312(sp)
   16b04:	ef1ff06f          	j	169f4 <vfprintf+0xdc>
   16b08:	fff00493          	li	s1,-1
   16b0c:	fe1ff06f          	j	16aec <vfprintf+0x1d4>
   16b10:	13813c83          	ld	s9,312(sp)
   16b14:	ee1ff06f          	j	169f4 <vfprintf+0xdc>
   16b18:	fff00493          	li	s1,-1
   16b1c:	efdff06f          	j	16a18 <vfprintf+0x100>
   16b20:	17313423          	sd	s3,360(sp)
   16b24:	17413023          	sd	s4,352(sp)
   16b28:	15713423          	sd	s7,328(sp)
   16b2c:	13913c23          	sd	s9,312(sp)
   16b30:	b94fa0ef          	jal	10ec4 <__stack_chk_fail>
   16b34:	00040513          	mv	a0,s0
   16b38:	060010ef          	jal	17b98 <__towrite>
   16b3c:	fff00493          	li	s1,-1
   16b40:	ea051ae3          	bnez	a0,169f4 <vfprintf+0xdc>
   16b44:	e95ff06f          	j	169d8 <vfprintf+0xc0>

0000000000016b48 <memcpy>:
   16b48:	0035f713          	andi	a4,a1,3
   16b4c:	00050793          	mv	a5,a0
   16b50:	02070263          	beqz	a4,16b74 <memcpy+0x2c>
   16b54:	30060a63          	beqz	a2,16e68 <memcpy+0x320>
   16b58:	0005c683          	lbu	a3,0(a1)
   16b5c:	00158593          	addi	a1,a1,1
   16b60:	0035f713          	andi	a4,a1,3
   16b64:	00d78023          	sb	a3,0(a5)
   16b68:	00178793          	addi	a5,a5,1
   16b6c:	fff60613          	addi	a2,a2,-1
   16b70:	fe0712e3          	bnez	a4,16b54 <memcpy+0xc>
   16b74:	0037f693          	andi	a3,a5,3
   16b78:	00078f13          	mv	t5,a5
   16b7c:	0c069863          	bnez	a3,16c4c <memcpy+0x104>
   16b80:	00f00713          	li	a4,15
   16b84:	42c77c63          	bgeu	a4,a2,16fbc <memcpy+0x474>
   16b88:	ff060e93          	addi	t4,a2,-16
   16b8c:	ff0efe13          	andi	t3,t4,-16
   16b90:	010e0e13          	addi	t3,t3,16
   16b94:	01c78e33          	add	t3,a5,t3
   16b98:	00058713          	mv	a4,a1
   16b9c:	00072303          	lw	t1,0(a4)
   16ba0:	00472883          	lw	a7,4(a4)
   16ba4:	00872803          	lw	a6,8(a4)
   16ba8:	00c72683          	lw	a3,12(a4)
   16bac:	0067a023          	sw	t1,0(a5)
   16bb0:	0117a223          	sw	a7,4(a5)
   16bb4:	0107a423          	sw	a6,8(a5)
   16bb8:	00d7a623          	sw	a3,12(a5)
   16bbc:	01078793          	addi	a5,a5,16
   16bc0:	01070713          	addi	a4,a4,16
   16bc4:	fcfe1ce3          	bne	t3,a5,16b9c <memcpy+0x54>
   16bc8:	ff0ef713          	andi	a4,t4,-16
   16bcc:	010f0f13          	addi	t5,t5,16
   16bd0:	01058593          	addi	a1,a1,16
   16bd4:	00ef07b3          	add	a5,t5,a4
   16bd8:	00e585b3          	add	a1,a1,a4
   16bdc:	00f67713          	andi	a4,a2,15
   16be0:	00877693          	andi	a3,a4,8
   16be4:	00068e63          	beqz	a3,16c00 <memcpy+0xb8>
   16be8:	0005a603          	lw	a2,0(a1)
   16bec:	0045a683          	lw	a3,4(a1)
   16bf0:	00878793          	addi	a5,a5,8
   16bf4:	fec7ac23          	sw	a2,-8(a5)
   16bf8:	fed7ae23          	sw	a3,-4(a5)
   16bfc:	00858593          	addi	a1,a1,8
   16c00:	00477693          	andi	a3,a4,4
   16c04:	00068a63          	beqz	a3,16c18 <memcpy+0xd0>
   16c08:	0005a683          	lw	a3,0(a1)
   16c0c:	00478793          	addi	a5,a5,4
   16c10:	00458593          	addi	a1,a1,4
   16c14:	fed7ae23          	sw	a3,-4(a5)
   16c18:	00277693          	andi	a3,a4,2
   16c1c:	00068e63          	beqz	a3,16c38 <memcpy+0xf0>
   16c20:	0005c603          	lbu	a2,0(a1)
   16c24:	0015c683          	lbu	a3,1(a1)
   16c28:	00278793          	addi	a5,a5,2
   16c2c:	fec78f23          	sb	a2,-2(a5)
   16c30:	fed78fa3          	sb	a3,-1(a5)
   16c34:	00258593          	addi	a1,a1,2
   16c38:	00177713          	andi	a4,a4,1
   16c3c:	00070663          	beqz	a4,16c48 <memcpy+0x100>
   16c40:	0005c703          	lbu	a4,0(a1)
   16c44:	00e78023          	sb	a4,0(a5)
   16c48:	00008067          	ret
   16c4c:	ff010113          	addi	sp,sp,-16
   16c50:	00813423          	sd	s0,8(sp)
   16c54:	01f00713          	li	a4,31
   16c58:	0cc77263          	bgeu	a4,a2,16d1c <memcpy+0x1d4>
   16c5c:	00200813          	li	a6,2
   16c60:	0005c883          	lbu	a7,0(a1)
   16c64:	0005a703          	lw	a4,0(a1)
   16c68:	2d068063          	beq	a3,a6,16f28 <memcpy+0x3e0>
   16c6c:	00300813          	li	a6,3
   16c70:	fec60293          	addi	t0,a2,-20
   16c74:	23068863          	beq	a3,a6,16ea4 <memcpy+0x35c>
   16c78:	0015c803          	lbu	a6,1(a1)
   16c7c:	0025c683          	lbu	a3,2(a1)
   16c80:	ff02f293          	andi	t0,t0,-16
   16c84:	01328f93          	addi	t6,t0,19
   16c88:	00358593          	addi	a1,a1,3
   16c8c:	00378393          	addi	t2,a5,3
   16c90:	01178023          	sb	a7,0(a5)
   16c94:	01f78fb3          	add	t6,a5,t6
   16c98:	010780a3          	sb	a6,1(a5)
   16c9c:	00d78123          	sb	a3,2(a5)
   16ca0:	00058313          	mv	t1,a1
   16ca4:	00038793          	mv	a5,t2
   16ca8:	00132883          	lw	a7,1(t1)
   16cac:	00532803          	lw	a6,5(t1)
   16cb0:	00932683          	lw	a3,9(t1)
   16cb4:	01875e1b          	srliw	t3,a4,0x18
   16cb8:	00d32703          	lw	a4,13(t1)
   16cbc:	00889f1b          	slliw	t5,a7,0x8
   16cc0:	00881e9b          	slliw	t4,a6,0x8
   16cc4:	0188d89b          	srliw	a7,a7,0x18
   16cc8:	01ee6e33          	or	t3,t3,t5
   16ccc:	01d8e8b3          	or	a7,a7,t4
   16cd0:	00869f1b          	slliw	t5,a3,0x8
   16cd4:	0188581b          	srliw	a6,a6,0x18
   16cd8:	0186d69b          	srliw	a3,a3,0x18
   16cdc:	00871e9b          	slliw	t4,a4,0x8
   16ce0:	01e86833          	or	a6,a6,t5
   16ce4:	01d6e6b3          	or	a3,a3,t4
   16ce8:	01c7a023          	sw	t3,0(a5)
   16cec:	0117a223          	sw	a7,4(a5)
   16cf0:	0107a423          	sw	a6,8(a5)
   16cf4:	00d7a623          	sw	a3,12(a5)
   16cf8:	01078793          	addi	a5,a5,16
   16cfc:	01030313          	addi	t1,t1,16
   16d00:	faff94e3          	bne	t6,a5,16ca8 <memcpy+0x160>
   16d04:	fed60613          	addi	a2,a2,-19
   16d08:	01038393          	addi	t2,t2,16
   16d0c:	01058593          	addi	a1,a1,16
   16d10:	40560633          	sub	a2,a2,t0
   16d14:	005387b3          	add	a5,t2,t0
   16d18:	005585b3          	add	a1,a1,t0
   16d1c:	01067713          	andi	a4,a2,16
   16d20:	08070663          	beqz	a4,16dac <memcpy+0x264>
   16d24:	0005c883          	lbu	a7,0(a1)
   16d28:	0015c803          	lbu	a6,1(a1)
   16d2c:	0025c683          	lbu	a3,2(a1)
   16d30:	0035c703          	lbu	a4,3(a1)
   16d34:	0045c403          	lbu	s0,4(a1)
   16d38:	0055c383          	lbu	t2,5(a1)
   16d3c:	0065c283          	lbu	t0,6(a1)
   16d40:	0075cf83          	lbu	t6,7(a1)
   16d44:	0085cf03          	lbu	t5,8(a1)
   16d48:	0095ce83          	lbu	t4,9(a1)
   16d4c:	00a5ce03          	lbu	t3,10(a1)
   16d50:	00b5c303          	lbu	t1,11(a1)
   16d54:	01178023          	sb	a7,0(a5)
   16d58:	010780a3          	sb	a6,1(a5)
   16d5c:	00c5c883          	lbu	a7,12(a1)
   16d60:	00d5c803          	lbu	a6,13(a1)
   16d64:	00d78123          	sb	a3,2(a5)
   16d68:	00e781a3          	sb	a4,3(a5)
   16d6c:	00e5c683          	lbu	a3,14(a1)
   16d70:	00f5c703          	lbu	a4,15(a1)
   16d74:	00878223          	sb	s0,4(a5)
   16d78:	007782a3          	sb	t2,5(a5)
   16d7c:	00578323          	sb	t0,6(a5)
   16d80:	01f783a3          	sb	t6,7(a5)
   16d84:	01e78423          	sb	t5,8(a5)
   16d88:	01d784a3          	sb	t4,9(a5)
   16d8c:	01c78523          	sb	t3,10(a5)
   16d90:	006785a3          	sb	t1,11(a5)
   16d94:	01178623          	sb	a7,12(a5)
   16d98:	010786a3          	sb	a6,13(a5)
   16d9c:	00d78723          	sb	a3,14(a5)
   16da0:	00e787a3          	sb	a4,15(a5)
   16da4:	01058593          	addi	a1,a1,16
   16da8:	01078793          	addi	a5,a5,16
   16dac:	00867713          	andi	a4,a2,8
   16db0:	04070663          	beqz	a4,16dfc <memcpy+0x2b4>
   16db4:	0005cf03          	lbu	t5,0(a1)
   16db8:	0015ce83          	lbu	t4,1(a1)
   16dbc:	0025ce03          	lbu	t3,2(a1)
   16dc0:	0035c303          	lbu	t1,3(a1)
   16dc4:	0045c883          	lbu	a7,4(a1)
   16dc8:	0055c803          	lbu	a6,5(a1)
   16dcc:	0065c683          	lbu	a3,6(a1)
   16dd0:	0075c703          	lbu	a4,7(a1)
   16dd4:	01e78023          	sb	t5,0(a5)
   16dd8:	01d780a3          	sb	t4,1(a5)
   16ddc:	01c78123          	sb	t3,2(a5)
   16de0:	006781a3          	sb	t1,3(a5)
   16de4:	01178223          	sb	a7,4(a5)
   16de8:	010782a3          	sb	a6,5(a5)
   16dec:	00d78323          	sb	a3,6(a5)
   16df0:	00e783a3          	sb	a4,7(a5)
   16df4:	00858593          	addi	a1,a1,8
   16df8:	00878793          	addi	a5,a5,8
   16dfc:	00467713          	andi	a4,a2,4
   16e00:	02070663          	beqz	a4,16e2c <memcpy+0x2e4>
   16e04:	0005c883          	lbu	a7,0(a1)
   16e08:	0015c803          	lbu	a6,1(a1)
   16e0c:	0025c683          	lbu	a3,2(a1)
   16e10:	0035c703          	lbu	a4,3(a1)
   16e14:	01178023          	sb	a7,0(a5)
   16e18:	010780a3          	sb	a6,1(a5)
   16e1c:	00d78123          	sb	a3,2(a5)
   16e20:	00e781a3          	sb	a4,3(a5)
   16e24:	00458593          	addi	a1,a1,4
   16e28:	00478793          	addi	a5,a5,4
   16e2c:	00267713          	andi	a4,a2,2
   16e30:	00070e63          	beqz	a4,16e4c <memcpy+0x304>
   16e34:	0005c683          	lbu	a3,0(a1)
   16e38:	0015c703          	lbu	a4,1(a1)
   16e3c:	00278793          	addi	a5,a5,2
   16e40:	fed78f23          	sb	a3,-2(a5)
   16e44:	fee78fa3          	sb	a4,-1(a5)
   16e48:	00258593          	addi	a1,a1,2
   16e4c:	00167613          	andi	a2,a2,1
   16e50:	00060663          	beqz	a2,16e5c <memcpy+0x314>
   16e54:	0005c703          	lbu	a4,0(a1)
   16e58:	00e78023          	sb	a4,0(a5)
   16e5c:	00813403          	ld	s0,8(sp)
   16e60:	01010113          	addi	sp,sp,16
   16e64:	00008067          	ret
   16e68:	0037f713          	andi	a4,a5,3
   16e6c:	14070663          	beqz	a4,16fb8 <memcpy+0x470>
   16e70:	00267713          	andi	a4,a2,2
   16e74:	00070e63          	beqz	a4,16e90 <memcpy+0x348>
   16e78:	0005c683          	lbu	a3,0(a1)
   16e7c:	0015c703          	lbu	a4,1(a1)
   16e80:	00278793          	addi	a5,a5,2
   16e84:	fed78f23          	sb	a3,-2(a5)
   16e88:	fee78fa3          	sb	a4,-1(a5)
   16e8c:	00258593          	addi	a1,a1,2
   16e90:	00167613          	andi	a2,a2,1
   16e94:	da060ae3          	beqz	a2,16c48 <memcpy+0x100>
   16e98:	0005c703          	lbu	a4,0(a1)
   16e9c:	00e78023          	sb	a4,0(a5)
   16ea0:	00008067          	ret
   16ea4:	ff02f293          	andi	t0,t0,-16
   16ea8:	00158593          	addi	a1,a1,1
   16eac:	01128f93          	addi	t6,t0,17
   16eb0:	00178393          	addi	t2,a5,1
   16eb4:	01178023          	sb	a7,0(a5)
   16eb8:	01f78fb3          	add	t6,a5,t6
   16ebc:	00058313          	mv	t1,a1
   16ec0:	00038793          	mv	a5,t2
   16ec4:	00332883          	lw	a7,3(t1)
   16ec8:	00732803          	lw	a6,7(t1)
   16ecc:	00b32683          	lw	a3,11(t1)
   16ed0:	00875e1b          	srliw	t3,a4,0x8
   16ed4:	00f32703          	lw	a4,15(t1)
   16ed8:	01889f1b          	slliw	t5,a7,0x18
   16edc:	01881e9b          	slliw	t4,a6,0x18
   16ee0:	0088d89b          	srliw	a7,a7,0x8
   16ee4:	01ee6e33          	or	t3,t3,t5
   16ee8:	01d8e8b3          	or	a7,a7,t4
   16eec:	01869f1b          	slliw	t5,a3,0x18
   16ef0:	0088581b          	srliw	a6,a6,0x8
   16ef4:	0086d69b          	srliw	a3,a3,0x8
   16ef8:	01871e9b          	slliw	t4,a4,0x18
   16efc:	01e86833          	or	a6,a6,t5
   16f00:	01d6e6b3          	or	a3,a3,t4
   16f04:	01c7a023          	sw	t3,0(a5)
   16f08:	0117a223          	sw	a7,4(a5)
   16f0c:	0107a423          	sw	a6,8(a5)
   16f10:	00d7a623          	sw	a3,12(a5)
   16f14:	01078793          	addi	a5,a5,16
   16f18:	01030313          	addi	t1,t1,16
   16f1c:	faff94e3          	bne	t6,a5,16ec4 <memcpy+0x37c>
   16f20:	fef60613          	addi	a2,a2,-17
   16f24:	de5ff06f          	j	16d08 <memcpy+0x1c0>
   16f28:	0015c683          	lbu	a3,1(a1)
   16f2c:	fec60293          	addi	t0,a2,-20
   16f30:	ff02f293          	andi	t0,t0,-16
   16f34:	01228f93          	addi	t6,t0,18
   16f38:	00258593          	addi	a1,a1,2
   16f3c:	00278393          	addi	t2,a5,2
   16f40:	01178023          	sb	a7,0(a5)
   16f44:	01f78fb3          	add	t6,a5,t6
   16f48:	00d780a3          	sb	a3,1(a5)
   16f4c:	00058313          	mv	t1,a1
   16f50:	00038793          	mv	a5,t2
   16f54:	00232883          	lw	a7,2(t1)
   16f58:	00632803          	lw	a6,6(t1)
   16f5c:	00a32683          	lw	a3,10(t1)
   16f60:	01075e1b          	srliw	t3,a4,0x10
   16f64:	00e32703          	lw	a4,14(t1)
   16f68:	01089f1b          	slliw	t5,a7,0x10
   16f6c:	01081e9b          	slliw	t4,a6,0x10
   16f70:	0108d89b          	srliw	a7,a7,0x10
   16f74:	01ee6e33          	or	t3,t3,t5
   16f78:	01d8e8b3          	or	a7,a7,t4
   16f7c:	01069f1b          	slliw	t5,a3,0x10
   16f80:	0108581b          	srliw	a6,a6,0x10
   16f84:	0106d69b          	srliw	a3,a3,0x10
   16f88:	01071e9b          	slliw	t4,a4,0x10
   16f8c:	01e86833          	or	a6,a6,t5
   16f90:	01d6e6b3          	or	a3,a3,t4
   16f94:	01c7a023          	sw	t3,0(a5)
   16f98:	0117a223          	sw	a7,4(a5)
   16f9c:	0107a423          	sw	a6,8(a5)
   16fa0:	00d7a623          	sw	a3,12(a5)
   16fa4:	01078793          	addi	a5,a5,16
   16fa8:	01030313          	addi	t1,t1,16
   16fac:	fbf794e3          	bne	a5,t6,16f54 <memcpy+0x40c>
   16fb0:	fee60613          	addi	a2,a2,-18
   16fb4:	d55ff06f          	j	16d08 <memcpy+0x1c0>
   16fb8:	00008067          	ret
   16fbc:	00060713          	mv	a4,a2
   16fc0:	c21ff06f          	j	16be0 <memcpy+0x98>

0000000000016fc4 <memset>:
   16fc4:	10060263          	beqz	a2,170c8 <memset+0x104>
   16fc8:	0ff5f793          	zext.b	a5,a1
   16fcc:	00f50023          	sb	a5,0(a0)
   16fd0:	00c50733          	add	a4,a0,a2
   16fd4:	fef70fa3          	sb	a5,-1(a4)
   16fd8:	00200693          	li	a3,2
   16fdc:	0ec6f663          	bgeu	a3,a2,170c8 <memset+0x104>
   16fe0:	00f500a3          	sb	a5,1(a0)
   16fe4:	00f50123          	sb	a5,2(a0)
   16fe8:	fef70f23          	sb	a5,-2(a4)
   16fec:	fef70ea3          	sb	a5,-3(a4)
   16ff0:	00600693          	li	a3,6
   16ff4:	0cc6fa63          	bgeu	a3,a2,170c8 <memset+0x104>
   16ff8:	00f501a3          	sb	a5,3(a0)
   16ffc:	fef70e23          	sb	a5,-4(a4)
   17000:	00800813          	li	a6,8
   17004:	0cc87263          	bgeu	a6,a2,170c8 <memset+0x104>
   17008:	0ff5f593          	zext.b	a1,a1
   1700c:	0085979b          	slliw	a5,a1,0x8
   17010:	40a00733          	neg	a4,a0
   17014:	00b787bb          	addw	a5,a5,a1
   17018:	00377713          	andi	a4,a4,3
   1701c:	0107969b          	slliw	a3,a5,0x10
   17020:	40e60633          	sub	a2,a2,a4
   17024:	00f686bb          	addw	a3,a3,a5
   17028:	00e50733          	add	a4,a0,a4
   1702c:	ffc67613          	andi	a2,a2,-4
   17030:	00d72023          	sw	a3,0(a4)
   17034:	00c707b3          	add	a5,a4,a2
   17038:	fed7ae23          	sw	a3,-4(a5)
   1703c:	08c87663          	bgeu	a6,a2,170c8 <memset+0x104>
   17040:	00d72223          	sw	a3,4(a4)
   17044:	00d72423          	sw	a3,8(a4)
   17048:	fed7aa23          	sw	a3,-12(a5)
   1704c:	fed7ac23          	sw	a3,-8(a5)
   17050:	01800593          	li	a1,24
   17054:	06c5fa63          	bgeu	a1,a2,170c8 <memset+0x104>
   17058:	00477593          	andi	a1,a4,4
   1705c:	00d72623          	sw	a3,12(a4)
   17060:	00d72823          	sw	a3,16(a4)
   17064:	00d72a23          	sw	a3,20(a4)
   17068:	00d72c23          	sw	a3,24(a4)
   1706c:	02069813          	slli	a6,a3,0x20
   17070:	01858593          	addi	a1,a1,24
   17074:	fed7a223          	sw	a3,-28(a5)
   17078:	fed7a423          	sw	a3,-24(a5)
   1707c:	fed7a623          	sw	a3,-20(a5)
   17080:	fed7a823          	sw	a3,-16(a5)
   17084:	02085813          	srli	a6,a6,0x20
   17088:	02069693          	slli	a3,a3,0x20
   1708c:	40b60633          	sub	a2,a2,a1
   17090:	01f00793          	li	a5,31
   17094:	00b70733          	add	a4,a4,a1
   17098:	010686b3          	add	a3,a3,a6
   1709c:	02c7f663          	bgeu	a5,a2,170c8 <memset+0x104>
   170a0:	fe060613          	addi	a2,a2,-32
   170a4:	fe067793          	andi	a5,a2,-32
   170a8:	02078793          	addi	a5,a5,32
   170ac:	00f707b3          	add	a5,a4,a5
   170b0:	00d73023          	sd	a3,0(a4)
   170b4:	00d73423          	sd	a3,8(a4)
   170b8:	00d73823          	sd	a3,16(a4)
   170bc:	00d73c23          	sd	a3,24(a4)
   170c0:	02070713          	addi	a4,a4,32
   170c4:	fef716e3          	bne	a4,a5,170b0 <memset+0xec>
   170c8:	00008067          	ret

00000000000170cc <strlen>:
   170cc:	00757793          	andi	a5,a0,7
   170d0:	02078463          	beqz	a5,170f8 <strlen+0x2c>
   170d4:	00050793          	mv	a5,a0
   170d8:	0100006f          	j	170e8 <strlen+0x1c>
   170dc:	00178793          	addi	a5,a5,1
   170e0:	0077f713          	andi	a4,a5,7
   170e4:	00070c63          	beqz	a4,170fc <strlen+0x30>
   170e8:	0007c703          	lbu	a4,0(a5)
   170ec:	fe0718e3          	bnez	a4,170dc <strlen+0x10>
   170f0:	40a78533          	sub	a0,a5,a0
   170f4:	00008067          	ret
   170f8:	00050793          	mv	a5,a0
   170fc:	feff0737          	lui	a4,0xfeff0
   17100:	eff70713          	addi	a4,a4,-257 # fffffffffefefeff <__BSS_END__+0xfffffffffefd029f>
   17104:	0007b683          	ld	a3,0(a5)
   17108:	02071593          	slli	a1,a4,0x20
   1710c:	80808637          	lui	a2,0x80808
   17110:	00e585b3          	add	a1,a1,a4
   17114:	08160613          	addi	a2,a2,129 # ffffffff80808081 <__BSS_END__+0xffffffff807e8421>
   17118:	80808837          	lui	a6,0x80808
   1711c:	00b68733          	add	a4,a3,a1
   17120:	02061613          	slli	a2,a2,0x20
   17124:	fff6c693          	not	a3,a3
   17128:	08080813          	addi	a6,a6,128 # ffffffff80808080 <__BSS_END__+0xffffffff807e8420>
   1712c:	00d77733          	and	a4,a4,a3
   17130:	01060633          	add	a2,a2,a6
   17134:	00c77733          	and	a4,a4,a2
   17138:	04071263          	bnez	a4,1717c <strlen+0xb0>
   1713c:	0087b683          	ld	a3,8(a5)
   17140:	00878793          	addi	a5,a5,8
   17144:	00b68733          	add	a4,a3,a1
   17148:	fff6c693          	not	a3,a3
   1714c:	00d77733          	and	a4,a4,a3
   17150:	00c77733          	and	a4,a4,a2
   17154:	02071463          	bnez	a4,1717c <strlen+0xb0>
   17158:	0087b683          	ld	a3,8(a5)
   1715c:	00878793          	addi	a5,a5,8
   17160:	00b68733          	add	a4,a3,a1
   17164:	fff6c693          	not	a3,a3
   17168:	00d77733          	and	a4,a4,a3
   1716c:	00c77733          	and	a4,a4,a2
   17170:	fc0706e3          	beqz	a4,1713c <strlen+0x70>
   17174:	0080006f          	j	1717c <strlen+0xb0>
   17178:	00178793          	addi	a5,a5,1
   1717c:	0007c703          	lbu	a4,0(a5)
   17180:	fe071ce3          	bnez	a4,17178 <strlen+0xac>
   17184:	40a78533          	sub	a0,a5,a0
   17188:	00008067          	ret

000000000001718c <strnlen>:
   1718c:	fe010113          	addi	sp,sp,-32
   17190:	00813823          	sd	s0,16(sp)
   17194:	00058613          	mv	a2,a1
   17198:	00058413          	mv	s0,a1
   1719c:	00000593          	li	a1,0
   171a0:	00913423          	sd	s1,8(sp)
   171a4:	00113c23          	sd	ra,24(sp)
   171a8:	00050493          	mv	s1,a0
   171ac:	3c1000ef          	jal	17d6c <memchr>
   171b0:	00050e63          	beqz	a0,171cc <strnlen+0x40>
   171b4:	01813083          	ld	ra,24(sp)
   171b8:	01013403          	ld	s0,16(sp)
   171bc:	40950533          	sub	a0,a0,s1
   171c0:	00813483          	ld	s1,8(sp)
   171c4:	02010113          	addi	sp,sp,32
   171c8:	00008067          	ret
   171cc:	01813083          	ld	ra,24(sp)
   171d0:	00040513          	mv	a0,s0
   171d4:	01013403          	ld	s0,16(sp)
   171d8:	00813483          	ld	s1,8(sp)
   171dc:	02010113          	addi	sp,sp,32
   171e0:	00008067          	ret

00000000000171e4 <__lock>:
   171e4:	a5b18603          	lb	a2,-1445(gp) # 1f25b <__libc+0x3>
   171e8:	00050713          	mv	a4,a0
   171ec:	0e060463          	beqz	a2,172d4 <__lock+0xf0>
   171f0:	800006b7          	lui	a3,0x80000
   171f4:	00168693          	addi	a3,a3,1 # ffffffff80000001 <__BSS_END__+0xffffffff7ffe03a1>
   171f8:	00000593          	li	a1,0
   171fc:	160727af          	lr.w.aqrl	a5,(a4)
   17200:	00b79663          	bne	a5,a1,1720c <__lock+0x28>
   17204:	1ed7252f          	sc.w.aqrl	a0,a3,(a4)
   17208:	fe051ae3          	bnez	a0,171fc <__lock+0x18>
   1720c:	0007879b          	sext.w	a5,a5
   17210:	0c064463          	bltz	a2,172d8 <__lock+0xf4>
   17214:	0c078063          	beqz	a5,172d4 <__lock+0xf0>
   17218:	800008b7          	lui	a7,0x80000
   1721c:	00088513          	mv	a0,a7
   17220:	0015051b          	addiw	a0,a0,1
   17224:	fff8889b          	addiw	a7,a7,-1 # 7fffffff <__BSS_END__+0x7ffe039f>
   17228:	00a00613          	li	a2,10
   1722c:	0c07c663          	bltz	a5,172f8 <__lock+0x114>
   17230:	00a785bb          	addw	a1,a5,a0
   17234:	00078693          	mv	a3,a5
   17238:	160727af          	lr.w.aqrl	a5,(a4)
   1723c:	00d79663          	bne	a5,a3,17248 <__lock+0x64>
   17240:	1eb7282f          	sc.w.aqrl	a6,a1,(a4)
   17244:	fe081ae3          	bnez	a6,17238 <__lock+0x54>
   17248:	0007879b          	sext.w	a5,a5
   1724c:	fff6061b          	addiw	a2,a2,-1
   17250:	08f68263          	beq	a3,a5,172d4 <__lock+0xf0>
   17254:	fc061ce3          	bnez	a2,1722c <__lock+0x48>
   17258:	00072783          	lw	a5,0(a4)
   1725c:	0007861b          	sext.w	a2,a5
   17260:	0017879b          	addiw	a5,a5,1
   17264:	160726af          	lr.w.aqrl	a3,(a4)
   17268:	00c69663          	bne	a3,a2,17274 <__lock+0x90>
   1726c:	1ef725af          	sc.w.aqrl	a1,a5,(a4)
   17270:	fe059ae3          	bnez	a1,17264 <__lock+0x80>
   17274:	0006869b          	sext.w	a3,a3
   17278:	fed610e3          	bne	a2,a3,17258 <__lock+0x74>
   1727c:	80000837          	lui	a6,0x80000
   17280:	fff80e1b          	addiw	t3,a6,-1 # 7fffffff <__BSS_END__+0x7ffe039f>
   17284:	fda00313          	li	t1,-38
   17288:	0200006f          	j	172a8 <__lock+0xc4>
   1728c:	0106863b          	addw	a2,a3,a6
   17290:	160727af          	lr.w.aqrl	a5,(a4)
   17294:	00d79663          	bne	a5,a3,172a0 <__lock+0xbc>
   17298:	1ec725af          	sc.w.aqrl	a1,a2,(a4)
   1729c:	fe059ae3          	bnez	a1,17290 <__lock+0xac>
   172a0:	0007879b          	sext.w	a5,a5
   172a4:	02f68863          	beq	a3,a5,172d4 <__lock+0xf0>
   172a8:	00078693          	mv	a3,a5
   172ac:	fe07d0e3          	bgez	a5,1728c <__lock+0xa8>
   172b0:	06200893          	li	a7,98
   172b4:	00070513          	mv	a0,a4
   172b8:	08000593          	li	a1,128
   172bc:	00078613          	mv	a2,a5
   172c0:	00000693          	li	a3,0
   172c4:	00000073          	ecall
   172c8:	00650e63          	beq	a0,t1,172e4 <__lock+0x100>
   172cc:	01c786bb          	addw	a3,a5,t3
   172d0:	fbdff06f          	j	1728c <__lock+0xa8>
   172d4:	00008067          	ret
   172d8:	a4018da3          	sb	zero,-1445(gp) # 1f25b <__libc+0x3>
   172dc:	f2079ee3          	bnez	a5,17218 <__lock+0x34>
   172e0:	00008067          	ret
   172e4:	00070513          	mv	a0,a4
   172e8:	00000593          	li	a1,0
   172ec:	00000073          	ecall
   172f0:	01c786bb          	addw	a3,a5,t3
   172f4:	f99ff06f          	j	1728c <__lock+0xa8>
   172f8:	011786bb          	addw	a3,a5,a7
   172fc:	00078593          	mv	a1,a5
   17300:	f39ff06f          	j	17238 <__lock+0x54>

0000000000017304 <__unlock>:
   17304:	00052783          	lw	a5,0(a0)
   17308:	00050713          	mv	a4,a0
   1730c:	0007c463          	bltz	a5,17314 <__unlock+0x10>
   17310:	00008067          	ret
   17314:	800005b7          	lui	a1,0x80000
   17318:	fff5859b          	addiw	a1,a1,-1 # 7fffffff <__BSS_END__+0x7ffe039f>
   1731c:	00072783          	lw	a5,0(a4)
   17320:	0007869b          	sext.w	a3,a5
   17324:	00f587bb          	addw	a5,a1,a5
   17328:	1607262f          	lr.w.aqrl	a2,(a4)
   1732c:	00d61663          	bne	a2,a3,17338 <__unlock+0x34>
   17330:	1ef7252f          	sc.w.aqrl	a0,a5,(a4)
   17334:	fe051ae3          	bnez	a0,17328 <__unlock+0x24>
   17338:	0006079b          	sext.w	a5,a2
   1733c:	fef690e3          	bne	a3,a5,1731c <__unlock+0x18>
   17340:	800007b7          	lui	a5,0x80000
   17344:	00178793          	addi	a5,a5,1 # ffffffff80000001 <__BSS_END__+0xffffffff7ffe03a1>
   17348:	fcf684e3          	beq	a3,a5,17310 <__unlock+0xc>
   1734c:	06200893          	li	a7,98
   17350:	00070513          	mv	a0,a4
   17354:	08100593          	li	a1,129
   17358:	00100613          	li	a2,1
   1735c:	00000073          	ecall
   17360:	fda00793          	li	a5,-38
   17364:	faf516e3          	bne	a0,a5,17310 <__unlock+0xc>
   17368:	00070513          	mv	a0,a4
   1736c:	00060593          	mv	a1,a2
   17370:	00000073          	ecall
   17374:	00008067          	ret

0000000000017378 <__syscall_cp_c>:
   17378:	00050893          	mv	a7,a0
   1737c:	00058513          	mv	a0,a1
   17380:	00060593          	mv	a1,a2
   17384:	00068613          	mv	a2,a3
   17388:	00070693          	mv	a3,a4
   1738c:	00078713          	mv	a4,a5
   17390:	00080793          	mv	a5,a6
   17394:	00000073          	ecall
   17398:	00008067          	ret

000000000001739c <__syscall_cp>:
   1739c:	fddff06f          	j	17378 <__syscall_cp_c>

00000000000173a0 <__aio_close>:
   173a0:	00008067          	ret

00000000000173a4 <close>:
   173a4:	ff010113          	addi	sp,sp,-16
   173a8:	00113423          	sd	ra,8(sp)
   173ac:	ff5ff0ef          	jal	173a0 <__aio_close>
   173b0:	00050593          	mv	a1,a0
   173b4:	00000793          	li	a5,0
   173b8:	00000813          	li	a6,0
   173bc:	00000713          	li	a4,0
   173c0:	00000693          	li	a3,0
   173c4:	00000613          	li	a2,0
   173c8:	03900513          	li	a0,57
   173cc:	fd1ff0ef          	jal	1739c <__syscall_cp>
   173d0:	0005051b          	sext.w	a0,a0
   173d4:	ffc00793          	li	a5,-4
   173d8:	00f51463          	bne	a0,a5,173e0 <close+0x3c>
   173dc:	00000513          	li	a0,0
   173e0:	c81f90ef          	jal	11060 <__syscall_ret>
   173e4:	00813083          	ld	ra,8(sp)
   173e8:	0005051b          	sext.w	a0,a0
   173ec:	01010113          	addi	sp,sp,16
   173f0:	00008067          	ret

00000000000173f4 <pread>:
   173f4:	00058813          	mv	a6,a1
   173f8:	00060793          	mv	a5,a2
   173fc:	ff010113          	addi	sp,sp,-16
   17400:	00068713          	mv	a4,a3
   17404:	00050593          	mv	a1,a0
   17408:	00080613          	mv	a2,a6
   1740c:	00078693          	mv	a3,a5
   17410:	00000813          	li	a6,0
   17414:	00000793          	li	a5,0
   17418:	04300513          	li	a0,67
   1741c:	00113423          	sd	ra,8(sp)
   17420:	f7dff0ef          	jal	1739c <__syscall_cp>
   17424:	00813083          	ld	ra,8(sp)
   17428:	01010113          	addi	sp,sp,16
   1742c:	c35f906f          	j	11060 <__syscall_ret>

0000000000017430 <__init_tp>:
   17430:	ff010113          	addi	sp,sp,-16
   17434:	00813023          	sd	s0,0(sp)
   17438:	00113423          	sd	ra,8(sp)
   1743c:	00050413          	mv	s0,a0
   17440:	00a53023          	sd	a0,0(a0)
   17444:	0c850513          	addi	a0,a0,200
   17448:	1fd000ef          	jal	17e44 <__set_thread_area>
   1744c:	06054063          	bltz	a0,174ac <__init_tp+0x7c>
   17450:	04050863          	beqz	a0,174a0 <__init_tp+0x70>
   17454:	00200793          	li	a5,2
   17458:	02f42423          	sw	a5,40(s0)
   1745c:	06000893          	li	a7,96
   17460:	44018513          	addi	a0,gp,1088 # 1fc40 <__thread_list_lock>
   17464:	00000073          	ecall
   17468:	a381b783          	ld	a5,-1480(gp) # 1f238 <__sysinfo>
   1746c:	a9018693          	addi	a3,gp,-1392 # 1f290 <__libc+0x38>
   17470:	07840713          	addi	a4,s0,120
   17474:	02a42023          	sw	a0,32(s0)
   17478:	00843423          	sd	s0,8(s0)
   1747c:	00843823          	sd	s0,16(s0)
   17480:	08d43c23          	sd	a3,152(s0)
   17484:	06e43c23          	sd	a4,120(s0)
   17488:	00f43c23          	sd	a5,24(s0)
   1748c:	00000513          	li	a0,0
   17490:	00813083          	ld	ra,8(sp)
   17494:	00013403          	ld	s0,0(sp)
   17498:	01010113          	addi	sp,sp,16
   1749c:	00008067          	ret
   174a0:	00100793          	li	a5,1
   174a4:	a4f18c23          	sb	a5,-1448(gp) # 1f258 <__libc>
   174a8:	fadff06f          	j	17454 <__init_tp+0x24>
   174ac:	fff00513          	li	a0,-1
   174b0:	fe1ff06f          	j	17490 <__init_tp+0x60>

00000000000174b4 <__copy_tls>:
   174b4:	fc010113          	addi	sp,sp,-64
   174b8:	01513423          	sd	s5,8(sp)
   174bc:	01613023          	sd	s6,0(sp)
   174c0:	02113c23          	sd	ra,56(sp)
   174c4:	02813823          	sd	s0,48(sp)
   174c8:	01413823          	sd	s4,16(sp)
   174cc:	a5818a93          	addi	s5,gp,-1448 # 1f258 <__libc>
   174d0:	020aba03          	ld	s4,32(s5)
   174d4:	028ab683          	ld	a3,40(s5)
   174d8:	018ab783          	ld	a5,24(s5)
   174dc:	f3800713          	li	a4,-200
   174e0:	40a70733          	sub	a4,a4,a0
   174e4:	fffa0a13          	addi	s4,s4,-1
   174e8:	010ab403          	ld	s0,16(s5)
   174ec:	00ea7a33          	and	s4,s4,a4
   174f0:	ff878793          	addi	a5,a5,-8
   174f4:	00369713          	slli	a4,a3,0x3
   174f8:	40e787b3          	sub	a5,a5,a4
   174fc:	01450a33          	add	s4,a0,s4
   17500:	00f50b33          	add	s6,a0,a5
   17504:	06040063          	beqz	s0,17564 <__copy_tls+0xb0>
   17508:	01313c23          	sd	s3,24(sp)
   1750c:	000019b7          	lui	s3,0x1
   17510:	02913423          	sd	s1,40(sp)
   17514:	03213023          	sd	s2,32(sp)
   17518:	80098993          	addi	s3,s3,-2048 # 800 <exit-0xf958>
   1751c:	0c8a0913          	addi	s2,s4,200
   17520:	008b0493          	addi	s1,s6,8
   17524:	02843783          	ld	a5,40(s0)
   17528:	00848493          	addi	s1,s1,8
   1752c:	00f907b3          	add	a5,s2,a5
   17530:	013787b3          	add	a5,a5,s3
   17534:	fef4bc23          	sd	a5,-8(s1)
   17538:	02843503          	ld	a0,40(s0)
   1753c:	01043603          	ld	a2,16(s0)
   17540:	00843583          	ld	a1,8(s0)
   17544:	00a90533          	add	a0,s2,a0
   17548:	e00ff0ef          	jal	16b48 <memcpy>
   1754c:	00043403          	ld	s0,0(s0)
   17550:	fc041ae3          	bnez	s0,17524 <__copy_tls+0x70>
   17554:	028ab683          	ld	a3,40(s5)
   17558:	02813483          	ld	s1,40(sp)
   1755c:	02013903          	ld	s2,32(sp)
   17560:	01813983          	ld	s3,24(sp)
   17564:	00db3023          	sd	a3,0(s6)
   17568:	0d6a3023          	sd	s6,192(s4)
   1756c:	03813083          	ld	ra,56(sp)
   17570:	03013403          	ld	s0,48(sp)
   17574:	00813a83          	ld	s5,8(sp)
   17578:	00013b03          	ld	s6,0(sp)
   1757c:	000a0513          	mv	a0,s4
   17580:	01013a03          	ld	s4,16(sp)
   17584:	04010113          	addi	sp,sp,64
   17588:	00008067          	ret

000000000001758c <__init_tls>:
   1758c:	ff010113          	addi	sp,sp,-16
   17590:	00113423          	sd	ra,8(sp)
   17594:	02853683          	ld	a3,40(a0)
   17598:	01853f03          	ld	t5,24(a0)
   1759c:	16068a63          	beqz	a3,17710 <__init_tls+0x184>
   175a0:	6474eeb7          	lui	t4,0x6474e
   175a4:	02053503          	ld	a0,32(a0)
   175a8:	000f0793          	mv	a5,t5
   175ac:	551e8e93          	addi	t4,t4,1361 # 6474e551 <__BSS_END__+0x6472e8f1>
   175b0:	00000613          	li	a2,0
   175b4:	00000813          	li	a6,0
   175b8:	00600593          	li	a1,6
   175bc:	00200893          	li	a7,2
   175c0:	00700f93          	li	t6,7
   175c4:	9ec18393          	addi	t2,gp,-1556 # 1f1ec <__default_stacksize>
   175c8:	008002b7          	lui	t0,0x800
   175cc:	00008317          	auipc	t1,0x8
   175d0:	99c33303          	ld	t1,-1636(t1) # 1ef68 <_GLOBAL_OFFSET_TABLE_+0x10>
   175d4:	0200006f          	j	175f4 <__init_tls+0x68>
   175d8:	0f171a63          	bne	a4,a7,176cc <__init_tls+0x140>
   175dc:	00030663          	beqz	t1,175e8 <__init_tls+0x5c>
   175e0:	0107b603          	ld	a2,16(a5)
   175e4:	40c30633          	sub	a2,t1,a2
   175e8:	fff68693          	addi	a3,a3,-1
   175ec:	00a787b3          	add	a5,a5,a0
   175f0:	02068063          	beqz	a3,17610 <__init_tls+0x84>
   175f4:	0007a703          	lw	a4,0(a5)
   175f8:	feb710e3          	bne	a4,a1,175d8 <__init_tls+0x4c>
   175fc:	0107b603          	ld	a2,16(a5)
   17600:	fff68693          	addi	a3,a3,-1
   17604:	00a787b3          	add	a5,a5,a0
   17608:	40cf0633          	sub	a2,t5,a2
   1760c:	fe0694e3          	bnez	a3,175f4 <__init_tls+0x68>
   17610:	10080063          	beqz	a6,17710 <__init_tls+0x184>
   17614:	01083703          	ld	a4,16(a6)
   17618:	02083583          	ld	a1,32(a6)
   1761c:	03083783          	ld	a5,48(a6)
   17620:	00e60633          	add	a2,a2,a4
   17624:	a5818513          	addi	a0,gp,-1448 # 1f258 <__libc>
   17628:	2c018713          	addi	a4,gp,704 # 1fac0 <main_tls>
   1762c:	00100693          	li	a3,1
   17630:	02883803          	ld	a6,40(a6)
   17634:	00c73423          	sd	a2,8(a4)
   17638:	00b73823          	sd	a1,16(a4)
   1763c:	02f73023          	sd	a5,32(a4)
   17640:	00e53823          	sd	a4,16(a0)
   17644:	02d53423          	sd	a3,40(a0)
   17648:	00c805b3          	add	a1,a6,a2
   1764c:	fff78693          	addi	a3,a5,-1
   17650:	40b005b3          	neg	a1,a1
   17654:	00d5f5b3          	and	a1,a1,a3
   17658:	010585b3          	add	a1,a1,a6
   1765c:	00c6f6b3          	and	a3,a3,a2
   17660:	00b73c23          	sd	a1,24(a4)
   17664:	02d73423          	sd	a3,40(a4)
   17668:	00700613          	li	a2,7
   1766c:	08f67663          	bgeu	a2,a5,176f8 <__init_tls+0x16c>
   17670:	0df78713          	addi	a4,a5,223
   17674:	00d585b3          	add	a1,a1,a3
   17678:	00e585b3          	add	a1,a1,a4
   1767c:	ff85f593          	andi	a1,a1,-8
   17680:	02f53023          	sd	a5,32(a0)
   17684:	00b53c23          	sd	a1,24(a0)
   17688:	15000793          	li	a5,336
   1768c:	2f018513          	addi	a0,gp,752 # 1faf0 <builtin_tls>
   17690:	02b7f063          	bgeu	a5,a1,176b0 <__init_tls+0x124>
   17694:	0de00893          	li	a7,222
   17698:	00000513          	li	a0,0
   1769c:	00300613          	li	a2,3
   176a0:	02200693          	li	a3,34
   176a4:	fff00713          	li	a4,-1
   176a8:	00000793          	li	a5,0
   176ac:	00000073          	ecall
   176b0:	e05ff0ef          	jal	174b4 <__copy_tls>
   176b4:	d7dff0ef          	jal	17430 <__init_tp>
   176b8:	fff00793          	li	a5,-1
   176bc:	04f50663          	beq	a0,a5,17708 <__init_tls+0x17c>
   176c0:	00813083          	ld	ra,8(sp)
   176c4:	01010113          	addi	sp,sp,16
   176c8:	00008067          	ret
   176cc:	01f71663          	bne	a4,t6,176d8 <__init_tls+0x14c>
   176d0:	00078813          	mv	a6,a5
   176d4:	f15ff06f          	j	175e8 <__init_tls+0x5c>
   176d8:	f1d718e3          	bne	a4,t4,175e8 <__init_tls+0x5c>
   176dc:	0287b703          	ld	a4,40(a5)
   176e0:	9ec1ee03          	lwu	t3,-1556(gp) # 1f1ec <__default_stacksize>
   176e4:	f0ee72e3          	bgeu	t3,a4,175e8 <__init_tls+0x5c>
   176e8:	00e2f463          	bgeu	t0,a4,176f0 <__init_tls+0x164>
   176ec:	00800737          	lui	a4,0x800
   176f0:	00e3a023          	sw	a4,0(t2)
   176f4:	ef5ff06f          	j	175e8 <__init_tls+0x5c>
   176f8:	00800793          	li	a5,8
   176fc:	02f73023          	sd	a5,32(a4) # 800020 <__BSS_END__+0x7e03c0>
   17700:	0e700713          	li	a4,231
   17704:	f71ff06f          	j	17674 <__init_tls+0xe8>
   17708:	00000023          	sb	zero,0(zero) # 0 <exit-0x10158>
   1770c:	00100073          	ebreak
   17710:	2c018713          	addi	a4,gp,704 # 1fac0 <main_tls>
   17714:	01873803          	ld	a6,24(a4)
   17718:	00873603          	ld	a2,8(a4)
   1771c:	02073783          	ld	a5,32(a4)
   17720:	a5818513          	addi	a0,gp,-1448 # 1f258 <__libc>
   17724:	f25ff06f          	j	17648 <__init_tls+0xbc>

0000000000017728 <_Exit>:
   17728:	00050793          	mv	a5,a0
   1772c:	05e00893          	li	a7,94
   17730:	00000073          	ecall
   17734:	05d00893          	li	a7,93
   17738:	00078513          	mv	a0,a5
   1773c:	00000073          	ecall
   17740:	ff5ff06f          	j	17734 <_Exit+0xc>

0000000000017744 <__fpclassifyl>:
   17744:	000087b7          	lui	a5,0x8
   17748:	0305d713          	srli	a4,a1,0x30
   1774c:	fff78793          	addi	a5,a5,-1 # 7fff <exit-0x8159>
   17750:	01059593          	slli	a1,a1,0x10
   17754:	00f77733          	and	a4,a4,a5
   17758:	00050693          	mv	a3,a0
   1775c:	0105d593          	srli	a1,a1,0x10
   17760:	00070e63          	beqz	a4,1777c <__fpclassifyl+0x38>
   17764:	00400513          	li	a0,4
   17768:	00f70463          	beq	a4,a5,17770 <__fpclassifyl+0x2c>
   1776c:	00008067          	ret
   17770:	00d5e5b3          	or	a1,a1,a3
   17774:	0015b513          	seqz	a0,a1
   17778:	00008067          	ret
   1777c:	00a5e5b3          	or	a1,a1,a0
   17780:	00b03533          	snez	a0,a1
   17784:	00250513          	addi	a0,a0,2
   17788:	00008067          	ret

000000000001778c <__signbitl>:
   1778c:	0005a513          	slti	a0,a1,0
   17790:	00008067          	ret

0000000000017794 <frexpl>:
   17794:	00008737          	lui	a4,0x8
   17798:	fe010113          	addi	sp,sp,-32
   1779c:	0305d793          	srli	a5,a1,0x30
   177a0:	fff70713          	addi	a4,a4,-1 # 7fff <exit-0x8159>
   177a4:	00813823          	sd	s0,16(sp)
   177a8:	00913423          	sd	s1,8(sp)
   177ac:	01213023          	sd	s2,0(sp)
   177b0:	00113c23          	sd	ra,24(sp)
   177b4:	00e7f6b3          	and	a3,a5,a4
   177b8:	00058413          	mv	s0,a1
   177bc:	00060913          	mv	s2,a2
   177c0:	00050493          	mv	s1,a0
   177c4:	04068a63          	beqz	a3,17818 <frexpl+0x84>
   177c8:	06e68063          	beq	a3,a4,17828 <frexpl+0x94>
   177cc:	ffff8737          	lui	a4,0xffff8
   177d0:	00e7f7b3          	and	a5,a5,a4
   177d4:	ffffc737          	lui	a4,0xffffc
   177d8:	0027071b          	addiw	a4,a4,2 # ffffffffffffc002 <__BSS_END__+0xfffffffffffdc3a2>
   177dc:	00e686bb          	addw	a3,a3,a4
   177e0:	00d92023          	sw	a3,0(s2)
   177e4:	00004637          	lui	a2,0x4
   177e8:	01813083          	ld	ra,24(sp)
   177ec:	01013403          	ld	s0,16(sp)
   177f0:	ffe60613          	addi	a2,a2,-2 # 3ffe <exit-0xc15a>
   177f4:	01059593          	slli	a1,a1,0x10
   177f8:	00c7e7b3          	or	a5,a5,a2
   177fc:	0105d593          	srli	a1,a1,0x10
   17800:	03079793          	slli	a5,a5,0x30
   17804:	00813483          	ld	s1,8(sp)
   17808:	00013903          	ld	s2,0(sp)
   1780c:	00f5e5b3          	or	a1,a1,a5
   17810:	02010113          	addi	sp,sp,32
   17814:	00008067          	ret
   17818:	00000613          	li	a2,0
   1781c:	115010ef          	jal	19130 <__eqtf2>
   17820:	02051463          	bnez	a0,17848 <frexpl+0xb4>
   17824:	00092023          	sw	zero,0(s2)
   17828:	01813083          	ld	ra,24(sp)
   1782c:	00040593          	mv	a1,s0
   17830:	01013403          	ld	s0,16(sp)
   17834:	00013903          	ld	s2,0(sp)
   17838:	00048513          	mv	a0,s1
   1783c:	00813483          	ld	s1,8(sp)
   17840:	02010113          	addi	sp,sp,32
   17844:	00008067          	ret
   17848:	00005797          	auipc	a5,0x5
   1784c:	28878793          	addi	a5,a5,648 # 1cad0 <states+0x250>
   17850:	0007b603          	ld	a2,0(a5)
   17854:	0087b683          	ld	a3,8(a5)
   17858:	00048513          	mv	a0,s1
   1785c:	00040593          	mv	a1,s0
   17860:	1a5010ef          	jal	19204 <__multf3>
   17864:	00090613          	mv	a2,s2
   17868:	f2dff0ef          	jal	17794 <frexpl>
   1786c:	00092783          	lw	a5,0(s2)
   17870:	f887879b          	addiw	a5,a5,-120
   17874:	00f92023          	sw	a5,0(s2)
   17878:	01813083          	ld	ra,24(sp)
   1787c:	01013403          	ld	s0,16(sp)
   17880:	00813483          	ld	s1,8(sp)
   17884:	00013903          	ld	s2,0(sp)
   17888:	02010113          	addi	sp,sp,32
   1788c:	00008067          	ret

0000000000017890 <wctomb>:
   17890:	02050263          	beqz	a0,178b4 <wctomb+0x24>
   17894:	ff010113          	addi	sp,sp,-16
   17898:	00000613          	li	a2,0
   1789c:	00113423          	sd	ra,8(sp)
   178a0:	5bc000ef          	jal	17e5c <wcrtomb>
   178a4:	00813083          	ld	ra,8(sp)
   178a8:	0005051b          	sext.w	a0,a0
   178ac:	01010113          	addi	sp,sp,16
   178b0:	00008067          	ret
   178b4:	00000513          	li	a0,0
   178b8:	00008067          	ret

00000000000178bc <__overflow>:
   178bc:	fd010113          	addi	sp,sp,-48
   178c0:	02813023          	sd	s0,32(sp)
   178c4:	00913c23          	sd	s1,24(sp)
   178c8:	02113423          	sd	ra,40(sp)
   178cc:	02053783          	ld	a5,32(a0)
   178d0:	00007497          	auipc	s1,0x7
   178d4:	6904b483          	ld	s1,1680(s1) # 1ef60 <_GLOBAL_OFFSET_TABLE_+0x8>
   178d8:	00b103a3          	sb	a1,7(sp)
   178dc:	0004b703          	ld	a4,0(s1)
   178e0:	00e13423          	sd	a4,8(sp)
   178e4:	00000713          	li	a4,0
   178e8:	00050413          	mv	s0,a0
   178ec:	06078a63          	beqz	a5,17960 <__overflow+0xa4>
   178f0:	02843703          	ld	a4,40(s0)
   178f4:	00f70a63          	beq	a4,a5,17908 <__overflow+0x4c>
   178f8:	00714783          	lbu	a5,7(sp)
   178fc:	09042683          	lw	a3,144(s0)
   17900:	0007851b          	sext.w	a0,a5
   17904:	04f69663          	bne	a3,a5,17950 <__overflow+0x94>
   17908:	04843783          	ld	a5,72(s0)
   1790c:	00040513          	mv	a0,s0
   17910:	00100613          	li	a2,1
   17914:	00710593          	addi	a1,sp,7
   17918:	000780e7          	jalr	a5
   1791c:	00100793          	li	a5,1
   17920:	04f51863          	bne	a0,a5,17970 <__overflow+0xb4>
   17924:	00714503          	lbu	a0,7(sp)
   17928:	00813703          	ld	a4,8(sp)
   1792c:	0004b783          	ld	a5,0(s1)
   17930:	00f747b3          	xor	a5,a4,a5
   17934:	00000713          	li	a4,0
   17938:	04079063          	bnez	a5,17978 <__overflow+0xbc>
   1793c:	02813083          	ld	ra,40(sp)
   17940:	02013403          	ld	s0,32(sp)
   17944:	01813483          	ld	s1,24(sp)
   17948:	03010113          	addi	sp,sp,48
   1794c:	00008067          	ret
   17950:	00170693          	addi	a3,a4,1
   17954:	02d43423          	sd	a3,40(s0)
   17958:	00f70023          	sb	a5,0(a4)
   1795c:	fcdff06f          	j	17928 <__overflow+0x6c>
   17960:	238000ef          	jal	17b98 <__towrite>
   17964:	00051663          	bnez	a0,17970 <__overflow+0xb4>
   17968:	02043783          	ld	a5,32(s0)
   1796c:	f85ff06f          	j	178f0 <__overflow+0x34>
   17970:	fff00513          	li	a0,-1
   17974:	fb5ff06f          	j	17928 <__overflow+0x6c>
   17978:	d4cf90ef          	jal	10ec4 <__stack_chk_fail>

000000000001797c <dummy>:
   1797c:	00008067          	ret

0000000000017980 <__stdio_close>:
   17980:	ff010113          	addi	sp,sp,-16
   17984:	00113423          	sd	ra,8(sp)
   17988:	07852503          	lw	a0,120(a0)
   1798c:	a15ff0ef          	jal	173a0 <__aio_close>
   17990:	03900893          	li	a7,57
   17994:	00000073          	ecall
   17998:	ec8f90ef          	jal	11060 <__syscall_ret>
   1799c:	00813083          	ld	ra,8(sp)
   179a0:	0005051b          	sext.w	a0,a0
   179a4:	01010113          	addi	sp,sp,16
   179a8:	00008067          	ret

00000000000179ac <__stdio_seek>:
   179ac:	07852503          	lw	a0,120(a0)
   179b0:	4a00006f          	j	17e50 <__lseek>

00000000000179b4 <__stdio_write>:
   179b4:	f9010113          	addi	sp,sp,-112
   179b8:	06813023          	sd	s0,96(sp)
   179bc:	05213823          	sd	s2,80(sp)
   179c0:	05313423          	sd	s3,72(sp)
   179c4:	05413023          	sd	s4,64(sp)
   179c8:	03513c23          	sd	s5,56(sp)
   179cc:	06113423          	sd	ra,104(sp)
   179d0:	04913c23          	sd	s1,88(sp)
   179d4:	03853783          	ld	a5,56(a0)
   179d8:	02853483          	ld	s1,40(a0)
   179dc:	00007997          	auipc	s3,0x7
   179e0:	5849b983          	ld	s3,1412(s3) # 1ef60 <_GLOBAL_OFFSET_TABLE_+0x8>
   179e4:	00f13423          	sd	a5,8(sp)
   179e8:	40f484b3          	sub	s1,s1,a5
   179ec:	00913823          	sd	s1,16(sp)
   179f0:	00050a13          	mv	s4,a0
   179f4:	00060913          	mv	s2,a2
   179f8:	02c13023          	sd	a2,32(sp)
   179fc:	00b13c23          	sd	a1,24(sp)
   17a00:	00c484b3          	add	s1,s1,a2
   17a04:	0009b783          	ld	a5,0(s3)
   17a08:	02f13423          	sd	a5,40(sp)
   17a0c:	00000793          	li	a5,0
   17a10:	00200a93          	li	s5,2
   17a14:	00810413          	addi	s0,sp,8
   17a18:	0380006f          	j	17a50 <__stdio_write+0x9c>
   17a1c:	0a054263          	bltz	a0,17ac0 <__stdio_write+0x10c>
   17a20:	00843783          	ld	a5,8(s0)
   17a24:	40a484b3          	sub	s1,s1,a0
   17a28:	00a7fa63          	bgeu	a5,a0,17a3c <__stdio_write+0x88>
   17a2c:	40f50533          	sub	a0,a0,a5
   17a30:	fffa8a9b          	addiw	s5,s5,-1
   17a34:	01843783          	ld	a5,24(s0)
   17a38:	01040413          	addi	s0,s0,16
   17a3c:	00043703          	ld	a4,0(s0)
   17a40:	40a787b3          	sub	a5,a5,a0
   17a44:	00f43423          	sd	a5,8(s0)
   17a48:	00a707b3          	add	a5,a4,a0
   17a4c:	00f43023          	sd	a5,0(s0)
   17a50:	078a2503          	lw	a0,120(s4)
   17a54:	04200893          	li	a7,66
   17a58:	00040593          	mv	a1,s0
   17a5c:	000a8613          	mv	a2,s5
   17a60:	00000073          	ecall
   17a64:	dfcf90ef          	jal	11060 <__syscall_ret>
   17a68:	faa49ae3          	bne	s1,a0,17a1c <__stdio_write+0x68>
   17a6c:	058a3703          	ld	a4,88(s4)
   17a70:	060a3783          	ld	a5,96(s4)
   17a74:	00090513          	mv	a0,s2
   17a78:	02ea3c23          	sd	a4,56(s4)
   17a7c:	00f707b3          	add	a5,a4,a5
   17a80:	02ea3423          	sd	a4,40(s4)
   17a84:	02fa3023          	sd	a5,32(s4)
   17a88:	02813703          	ld	a4,40(sp)
   17a8c:	0009b783          	ld	a5,0(s3)
   17a90:	00f747b3          	xor	a5,a4,a5
   17a94:	00000713          	li	a4,0
   17a98:	04079c63          	bnez	a5,17af0 <__stdio_write+0x13c>
   17a9c:	06813083          	ld	ra,104(sp)
   17aa0:	06013403          	ld	s0,96(sp)
   17aa4:	05813483          	ld	s1,88(sp)
   17aa8:	05013903          	ld	s2,80(sp)
   17aac:	04813983          	ld	s3,72(sp)
   17ab0:	04013a03          	ld	s4,64(sp)
   17ab4:	03813a83          	ld	s5,56(sp)
   17ab8:	07010113          	addi	sp,sp,112
   17abc:	00008067          	ret
   17ac0:	000a2783          	lw	a5,0(s4)
   17ac4:	020a3023          	sd	zero,32(s4)
   17ac8:	020a3c23          	sd	zero,56(s4)
   17acc:	0207e793          	ori	a5,a5,32
   17ad0:	00fa2023          	sw	a5,0(s4)
   17ad4:	020a3423          	sd	zero,40(s4)
   17ad8:	00200793          	li	a5,2
   17adc:	00000513          	li	a0,0
   17ae0:	fafa84e3          	beq	s5,a5,17a88 <__stdio_write+0xd4>
   17ae4:	00843503          	ld	a0,8(s0)
   17ae8:	40a90533          	sub	a0,s2,a0
   17aec:	f9dff06f          	j	17a88 <__stdio_write+0xd4>
   17af0:	bd4f90ef          	jal	10ec4 <__stack_chk_fail>

0000000000017af4 <__stdout_write>:
   17af4:	fe010113          	addi	sp,sp,-32
   17af8:	00813823          	sd	s0,16(sp)
   17afc:	00113c23          	sd	ra,24(sp)
   17b00:	00052703          	lw	a4,0(a0)
   17b04:	00000697          	auipc	a3,0x0
   17b08:	eb068693          	addi	a3,a3,-336 # 179b4 <__stdio_write>
   17b0c:	00007417          	auipc	s0,0x7
   17b10:	45443403          	ld	s0,1108(s0) # 1ef60 <_GLOBAL_OFFSET_TABLE_+0x8>
   17b14:	04d53423          	sd	a3,72(a0)
   17b18:	00050793          	mv	a5,a0
   17b1c:	04077513          	andi	a0,a4,64
   17b20:	00043703          	ld	a4,0(s0)
   17b24:	00e13423          	sd	a4,8(sp)
   17b28:	00000713          	li	a4,0
   17b2c:	00058713          	mv	a4,a1
   17b30:	00060693          	mv	a3,a2
   17b34:	02051063          	bnez	a0,17b54 <__stdout_write+0x60>
   17b38:	000055b7          	lui	a1,0x5
   17b3c:	0787a503          	lw	a0,120(a5)
   17b40:	41358593          	addi	a1,a1,1043 # 5413 <exit-0xad45>
   17b44:	01d00893          	li	a7,29
   17b48:	00010613          	mv	a2,sp
   17b4c:	00000073          	ecall
   17b50:	02051c63          	bnez	a0,17b88 <__stdout_write+0x94>
   17b54:	00070593          	mv	a1,a4
   17b58:	00078513          	mv	a0,a5
   17b5c:	00068613          	mv	a2,a3
   17b60:	e55ff0ef          	jal	179b4 <__stdio_write>
   17b64:	00813703          	ld	a4,8(sp)
   17b68:	00043783          	ld	a5,0(s0)
   17b6c:	00f747b3          	xor	a5,a4,a5
   17b70:	00000713          	li	a4,0
   17b74:	02079063          	bnez	a5,17b94 <__stdout_write+0xa0>
   17b78:	01813083          	ld	ra,24(sp)
   17b7c:	01013403          	ld	s0,16(sp)
   17b80:	02010113          	addi	sp,sp,32
   17b84:	00008067          	ret
   17b88:	fff00613          	li	a2,-1
   17b8c:	08c7a823          	sw	a2,144(a5)
   17b90:	fc5ff06f          	j	17b54 <__stdout_write+0x60>
   17b94:	b30f90ef          	jal	10ec4 <__stack_chk_fail>

0000000000017b98 <__towrite>:
   17b98:	08852783          	lw	a5,136(a0)
   17b9c:	00052703          	lw	a4,0(a0)
   17ba0:	fff7869b          	addiw	a3,a5,-1
   17ba4:	00d7e7b3          	or	a5,a5,a3
   17ba8:	08f52423          	sw	a5,136(a0)
   17bac:	00877793          	andi	a5,a4,8
   17bb0:	02079663          	bnez	a5,17bdc <__towrite+0x44>
   17bb4:	05853703          	ld	a4,88(a0)
   17bb8:	06053783          	ld	a5,96(a0)
   17bbc:	00053823          	sd	zero,16(a0)
   17bc0:	00053423          	sd	zero,8(a0)
   17bc4:	00f707b3          	add	a5,a4,a5
   17bc8:	02e53c23          	sd	a4,56(a0)
   17bcc:	02e53423          	sd	a4,40(a0)
   17bd0:	02f53023          	sd	a5,32(a0)
   17bd4:	00000513          	li	a0,0
   17bd8:	00008067          	ret
   17bdc:	02076713          	ori	a4,a4,32
   17be0:	00e52023          	sw	a4,0(a0)
   17be4:	fff00513          	li	a0,-1
   17be8:	00008067          	ret

0000000000017bec <__towrite_needs_stdio_exit>:
   17bec:	4300006f          	j	1801c <__stdio_exit_needed>

0000000000017bf0 <locking_putc>:
   17bf0:	fe010113          	addi	sp,sp,-32
   17bf4:	400007b7          	lui	a5,0x40000
   17bf8:	00813823          	sd	s0,16(sp)
   17bfc:	00913423          	sd	s1,8(sp)
   17c00:	01213023          	sd	s2,0(sp)
   17c04:	00113c23          	sd	ra,24(sp)
   17c08:	00058493          	mv	s1,a1
   17c0c:	00050913          	mv	s2,a0
   17c10:	08c58413          	addi	s0,a1,140
   17c14:	fff78793          	addi	a5,a5,-1 # 3fffffff <__BSS_END__+0x3ffe039f>
   17c18:	00000693          	li	a3,0
   17c1c:	1604272f          	lr.w.aqrl	a4,(s0)
   17c20:	00d71663          	bne	a4,a3,17c2c <locking_putc+0x3c>
   17c24:	1ef4262f          	sc.w.aqrl	a2,a5,(s0)
   17c28:	fe061ae3          	bnez	a2,17c1c <locking_putc+0x2c>
   17c2c:	0007079b          	sext.w	a5,a4
   17c30:	08079263          	bnez	a5,17cb4 <locking_putc+0xc4>
   17c34:	0904a783          	lw	a5,144(s1)
   17c38:	0ff97813          	zext.b	a6,s2
   17c3c:	07078263          	beq	a5,a6,17ca0 <locking_putc+0xb0>
   17c40:	0284b783          	ld	a5,40(s1)
   17c44:	0204b703          	ld	a4,32(s1)
   17c48:	04e78c63          	beq	a5,a4,17ca0 <locking_putc+0xb0>
   17c4c:	00178713          	addi	a4,a5,1
   17c50:	02e4b423          	sd	a4,40(s1)
   17c54:	01278023          	sb	s2,0(a5)
   17c58:	08c4a783          	lw	a5,140(s1)
   17c5c:	00000693          	li	a3,0
   17c60:	0007879b          	sext.w	a5,a5
   17c64:	1604272f          	lr.w.aqrl	a4,(s0)
   17c68:	00f71663          	bne	a4,a5,17c74 <locking_putc+0x84>
   17c6c:	1ed4262f          	sc.w.aqrl	a2,a3,(s0)
   17c70:	fe061ae3          	bnez	a2,17c64 <locking_putc+0x74>
   17c74:	0007071b          	sext.w	a4,a4
   17c78:	fee790e3          	bne	a5,a4,17c58 <locking_putc+0x68>
   17c7c:	02179713          	slli	a4,a5,0x21
   17c80:	04074063          	bltz	a4,17cc0 <locking_putc+0xd0>
   17c84:	01813083          	ld	ra,24(sp)
   17c88:	01013403          	ld	s0,16(sp)
   17c8c:	00813483          	ld	s1,8(sp)
   17c90:	00013903          	ld	s2,0(sp)
   17c94:	00080513          	mv	a0,a6
   17c98:	02010113          	addi	sp,sp,32
   17c9c:	00008067          	ret
   17ca0:	00080593          	mv	a1,a6
   17ca4:	00048513          	mv	a0,s1
   17ca8:	c15ff0ef          	jal	178bc <__overflow>
   17cac:	00050813          	mv	a6,a0
   17cb0:	fa9ff06f          	j	17c58 <locking_putc+0x68>
   17cb4:	00058513          	mv	a0,a1
   17cb8:	e9dfb0ef          	jal	13b54 <__lockfile>
   17cbc:	f79ff06f          	j	17c34 <locking_putc+0x44>
   17cc0:	06200893          	li	a7,98
   17cc4:	00040513          	mv	a0,s0
   17cc8:	08100593          	li	a1,129
   17ccc:	00100613          	li	a2,1
   17cd0:	00000073          	ecall
   17cd4:	fda00793          	li	a5,-38
   17cd8:	faf516e3          	bne	a0,a5,17c84 <locking_putc+0x94>
   17cdc:	00040513          	mv	a0,s0
   17ce0:	00060593          	mv	a1,a2
   17ce4:	00000073          	ecall
   17ce8:	01813083          	ld	ra,24(sp)
   17cec:	01013403          	ld	s0,16(sp)
   17cf0:	00813483          	ld	s1,8(sp)
   17cf4:	00013903          	ld	s2,0(sp)
   17cf8:	00080513          	mv	a0,a6
   17cfc:	02010113          	addi	sp,sp,32
   17d00:	00008067          	ret

0000000000017d04 <fputc>:
   17d04:	08c5a683          	lw	a3,140(a1)
   17d08:	00058793          	mv	a5,a1
   17d0c:	0006871b          	sext.w	a4,a3
   17d10:	0206c463          	bltz	a3,17d38 <fputc+0x34>
   17d14:	00070e63          	beqz	a4,17d30 <fputc+0x2c>
   17d18:	00020613          	mv	a2,tp
   17d1c:	c00006b7          	lui	a3,0xc0000
   17d20:	f5862603          	lw	a2,-168(a2)
   17d24:	fff68693          	addi	a3,a3,-1 # ffffffffbfffffff <__BSS_END__+0xffffffffbffe039f>
   17d28:	00d77733          	and	a4,a4,a3
   17d2c:	00e60663          	beq	a2,a4,17d38 <fputc+0x34>
   17d30:	00078593          	mv	a1,a5
   17d34:	ebdff06f          	j	17bf0 <locking_putc>
   17d38:	0907a703          	lw	a4,144(a5)
   17d3c:	0ff57593          	zext.b	a1,a0
   17d40:	02b70263          	beq	a4,a1,17d64 <fputc+0x60>
   17d44:	0287b703          	ld	a4,40(a5)
   17d48:	0207b683          	ld	a3,32(a5)
   17d4c:	00d70c63          	beq	a4,a3,17d64 <fputc+0x60>
   17d50:	00170693          	addi	a3,a4,1
   17d54:	02d7b423          	sd	a3,40(a5)
   17d58:	00a70023          	sb	a0,0(a4)
   17d5c:	00058513          	mv	a0,a1
   17d60:	00008067          	ret
   17d64:	00078513          	mv	a0,a5
   17d68:	b55ff06f          	j	178bc <__overflow>

0000000000017d6c <memchr>:
   17d6c:	00757793          	andi	a5,a0,7
   17d70:	00050e13          	mv	t3,a0
   17d74:	0ff5f593          	zext.b	a1,a1
   17d78:	02078063          	beqz	a5,17d98 <memchr+0x2c>
   17d7c:	0c060063          	beqz	a2,17e3c <memchr+0xd0>
   17d80:	000e4783          	lbu	a5,0(t3)
   17d84:	00b78e63          	beq	a5,a1,17da0 <memchr+0x34>
   17d88:	001e0e13          	addi	t3,t3,1
   17d8c:	007e7793          	andi	a5,t3,7
   17d90:	fff60613          	addi	a2,a2,-1
   17d94:	fe0794e3          	bnez	a5,17d7c <memchr+0x10>
   17d98:	00000513          	li	a0,0
   17d9c:	0a060263          	beqz	a2,17e40 <memchr+0xd4>
   17da0:	000e4783          	lbu	a5,0(t3)
   17da4:	06b78a63          	beq	a5,a1,17e18 <memchr+0xac>
   17da8:	010107b7          	lui	a5,0x1010
   17dac:	10178793          	addi	a5,a5,257 # 1010101 <__BSS_END__+0xff04a1>
   17db0:	02079813          	slli	a6,a5,0x20
   17db4:	00f80833          	add	a6,a6,a5
   17db8:	00700893          	li	a7,7
   17dbc:	03058833          	mul	a6,a1,a6
   17dc0:	04c8fc63          	bgeu	a7,a2,17e18 <memchr+0xac>
   17dc4:	feff07b7          	lui	a5,0xfeff0
   17dc8:	808086b7          	lui	a3,0x80808
   17dcc:	eff78793          	addi	a5,a5,-257 # fffffffffefefeff <__BSS_END__+0xfffffffffefd029f>
   17dd0:	08168693          	addi	a3,a3,129 # ffffffff80808081 <__BSS_END__+0xffffffff807e8421>
   17dd4:	80808737          	lui	a4,0x80808
   17dd8:	02079313          	slli	t1,a5,0x20
   17ddc:	02069693          	slli	a3,a3,0x20
   17de0:	08070713          	addi	a4,a4,128 # ffffffff80808080 <__BSS_END__+0xffffffff807e8420>
   17de4:	00f30333          	add	t1,t1,a5
   17de8:	00e686b3          	add	a3,a3,a4
   17dec:	0100006f          	j	17dfc <memchr+0x90>
   17df0:	ff860613          	addi	a2,a2,-8
   17df4:	008e0e13          	addi	t3,t3,8
   17df8:	04c8f063          	bgeu	a7,a2,17e38 <memchr+0xcc>
   17dfc:	000e3783          	ld	a5,0(t3)
   17e00:	00f847b3          	xor	a5,a6,a5
   17e04:	00678733          	add	a4,a5,t1
   17e08:	fff7c793          	not	a5,a5
   17e0c:	00f777b3          	and	a5,a4,a5
   17e10:	00d7f7b3          	and	a5,a5,a3
   17e14:	fc078ee3          	beqz	a5,17df0 <memchr+0x84>
   17e18:	000e0513          	mv	a0,t3
   17e1c:	00c0006f          	j	17e28 <memchr+0xbc>
   17e20:	00150513          	addi	a0,a0,1
   17e24:	00060c63          	beqz	a2,17e3c <memchr+0xd0>
   17e28:	00054783          	lbu	a5,0(a0)
   17e2c:	fff60613          	addi	a2,a2,-1
   17e30:	feb798e3          	bne	a5,a1,17e20 <memchr+0xb4>
   17e34:	00008067          	ret
   17e38:	fe0610e3          	bnez	a2,17e18 <memchr+0xac>
   17e3c:	00000513          	li	a0,0
   17e40:	00008067          	ret

0000000000017e44 <__set_thread_area>:
   17e44:	00050213          	mv	tp,a0
   17e48:	00000513          	li	a0,0
   17e4c:	00008067          	ret

0000000000017e50 <__lseek>:
   17e50:	03e00893          	li	a7,62
   17e54:	00000073          	ecall
   17e58:	a08f906f          	j	11060 <__syscall_ret>

0000000000017e5c <wcrtomb>:
   17e5c:	0c050a63          	beqz	a0,17f30 <wcrtomb+0xd4>
   17e60:	07f00793          	li	a5,127
   17e64:	0cb7f463          	bgeu	a5,a1,17f2c <wcrtomb+0xd0>
   17e68:	ff010113          	addi	sp,sp,-16
   17e6c:	00113423          	sd	ra,8(sp)
   17e70:	00020713          	mv	a4,tp
   17e74:	fd073703          	ld	a4,-48(a4)
   17e78:	00073703          	ld	a4,0(a4)
   17e7c:	04070a63          	beqz	a4,17ed0 <wcrtomb+0x74>
   17e80:	7ff00793          	li	a5,2047
   17e84:	0ab7fa63          	bgeu	a5,a1,17f38 <wcrtomb+0xdc>
   17e88:	0000d7b7          	lui	a5,0xd
   17e8c:	7ff78793          	addi	a5,a5,2047 # d7ff <exit-0x2959>
   17e90:	06b7f263          	bgeu	a5,a1,17ef4 <wcrtomb+0x98>
   17e94:	ffff27b7          	lui	a5,0xffff2
   17e98:	00f587bb          	addw	a5,a1,a5
   17e9c:	00002737          	lui	a4,0x2
   17ea0:	04e7ea63          	bltu	a5,a4,17ef4 <wcrtomb+0x98>
   17ea4:	ffff07b7          	lui	a5,0xffff0
   17ea8:	00f587bb          	addw	a5,a1,a5
   17eac:	00100737          	lui	a4,0x100
   17eb0:	0ae7e463          	bltu	a5,a4,17f58 <wcrtomb+0xfc>
   17eb4:	81cf90ef          	jal	10ed0 <__errno_location>
   17eb8:	05400793          	li	a5,84
   17ebc:	00f52023          	sw	a5,0(a0)
   17ec0:	fff00513          	li	a0,-1
   17ec4:	00813083          	ld	ra,8(sp)
   17ec8:	01010113          	addi	sp,sp,16
   17ecc:	00008067          	ret
   17ed0:	ffff2737          	lui	a4,0xffff2
   17ed4:	0807071b          	addiw	a4,a4,128 # ffffffffffff2080 <__BSS_END__+0xfffffffffffd2420>
   17ed8:	00e5873b          	addw	a4,a1,a4
   17edc:	fce7ece3          	bltu	a5,a4,17eb4 <wcrtomb+0x58>
   17ee0:	00b50023          	sb	a1,0(a0)
   17ee4:	00813083          	ld	ra,8(sp)
   17ee8:	00100513          	li	a0,1
   17eec:	01010113          	addi	sp,sp,16
   17ef0:	00008067          	ret
   17ef4:	4065d79b          	sraiw	a5,a1,0x6
   17ef8:	40c5d71b          	sraiw	a4,a1,0xc
   17efc:	03f7f793          	andi	a5,a5,63
   17f00:	03f5f593          	andi	a1,a1,63
   17f04:	f807e793          	ori	a5,a5,-128
   17f08:	fe076713          	ori	a4,a4,-32
   17f0c:	f805e593          	ori	a1,a1,-128
   17f10:	00f500a3          	sb	a5,1(a0)
   17f14:	00e50023          	sb	a4,0(a0)
   17f18:	00b50123          	sb	a1,2(a0)
   17f1c:	00813083          	ld	ra,8(sp)
   17f20:	00300513          	li	a0,3
   17f24:	01010113          	addi	sp,sp,16
   17f28:	00008067          	ret
   17f2c:	00b50023          	sb	a1,0(a0)
   17f30:	00100513          	li	a0,1
   17f34:	00008067          	ret
   17f38:	4065d79b          	sraiw	a5,a1,0x6
   17f3c:	03f5f593          	andi	a1,a1,63
   17f40:	fc07e793          	ori	a5,a5,-64
   17f44:	f805e593          	ori	a1,a1,-128
   17f48:	00f50023          	sb	a5,0(a0)
   17f4c:	00b500a3          	sb	a1,1(a0)
   17f50:	00200513          	li	a0,2
   17f54:	f71ff06f          	j	17ec4 <wcrtomb+0x68>
   17f58:	40c5d71b          	sraiw	a4,a1,0xc
   17f5c:	4065d79b          	sraiw	a5,a1,0x6
   17f60:	4125d69b          	sraiw	a3,a1,0x12
   17f64:	03f77713          	andi	a4,a4,63
   17f68:	03f7f793          	andi	a5,a5,63
   17f6c:	03f5f593          	andi	a1,a1,63
   17f70:	f8076713          	ori	a4,a4,-128
   17f74:	f807e793          	ori	a5,a5,-128
   17f78:	ff06e693          	ori	a3,a3,-16
   17f7c:	f805e593          	ori	a1,a1,-128
   17f80:	00e500a3          	sb	a4,1(a0)
   17f84:	00f50123          	sb	a5,2(a0)
   17f88:	00d50023          	sb	a3,0(a0)
   17f8c:	00b501a3          	sb	a1,3(a0)
   17f90:	00400513          	li	a0,4
   17f94:	f31ff06f          	j	17ec4 <wcrtomb+0x68>

0000000000017f98 <close_file>:
   17f98:	08050063          	beqz	a0,18018 <close_file+0x80>
   17f9c:	ff010113          	addi	sp,sp,-16
   17fa0:	00813023          	sd	s0,0(sp)
   17fa4:	00113423          	sd	ra,8(sp)
   17fa8:	08c52783          	lw	a5,140(a0)
   17fac:	00050413          	mv	s0,a0
   17fb0:	0407d863          	bgez	a5,18000 <close_file+0x68>
   17fb4:	02843703          	ld	a4,40(s0)
   17fb8:	03843783          	ld	a5,56(s0)
   17fbc:	00f70c63          	beq	a4,a5,17fd4 <close_file+0x3c>
   17fc0:	04843783          	ld	a5,72(s0)
   17fc4:	00000613          	li	a2,0
   17fc8:	00000593          	li	a1,0
   17fcc:	00040513          	mv	a0,s0
   17fd0:	000780e7          	jalr	a5 # ffffffffffff0000 <__BSS_END__+0xfffffffffffd03a0>
   17fd4:	00843583          	ld	a1,8(s0)
   17fd8:	01043783          	ld	a5,16(s0)
   17fdc:	02f58663          	beq	a1,a5,18008 <close_file+0x70>
   17fe0:	05043703          	ld	a4,80(s0)
   17fe4:	00040513          	mv	a0,s0
   17fe8:	00013403          	ld	s0,0(sp)
   17fec:	00813083          	ld	ra,8(sp)
   17ff0:	40f585b3          	sub	a1,a1,a5
   17ff4:	00100613          	li	a2,1
   17ff8:	01010113          	addi	sp,sp,16
   17ffc:	00070067          	jr	a4
   18000:	b55fb0ef          	jal	13b54 <__lockfile>
   18004:	fb1ff06f          	j	17fb4 <close_file+0x1c>
   18008:	00813083          	ld	ra,8(sp)
   1800c:	00013403          	ld	s0,0(sp)
   18010:	01010113          	addi	sp,sp,16
   18014:	00008067          	ret
   18018:	00008067          	ret

000000000001801c <__stdio_exit_needed>:
   1801c:	ff010113          	addi	sp,sp,-16
   18020:	00813023          	sd	s0,0(sp)
   18024:	00113423          	sd	ra,8(sp)
   18028:	044000ef          	jal	1806c <__ofl_lock>
   1802c:	00053403          	ld	s0,0(a0)
   18030:	00040a63          	beqz	s0,18044 <__stdio_exit_needed+0x28>
   18034:	00040513          	mv	a0,s0
   18038:	f61ff0ef          	jal	17f98 <close_file>
   1803c:	07043403          	ld	s0,112(s0)
   18040:	fe041ae3          	bnez	s0,18034 <__stdio_exit_needed+0x18>
   18044:	4481b503          	ld	a0,1096(gp) # 1fc48 <__stdin_used>
   18048:	f51ff0ef          	jal	17f98 <close_file>
   1804c:	8f81b503          	ld	a0,-1800(gp) # 1f0f8 <__stdout_used>
   18050:	f49ff0ef          	jal	17f98 <close_file>
   18054:	00013403          	ld	s0,0(sp)
   18058:	00813083          	ld	ra,8(sp)
   1805c:	00007517          	auipc	a0,0x7
   18060:	fac53503          	ld	a0,-84(a0) # 1f008 <__stderr_used>
   18064:	01010113          	addi	sp,sp,16
   18068:	f31ff06f          	j	17f98 <close_file>

000000000001806c <__ofl_lock>:
   1806c:	ff010113          	addi	sp,sp,-16
   18070:	45018513          	addi	a0,gp,1104 # 1fc50 <ofl_lock>
   18074:	00113423          	sd	ra,8(sp)
   18078:	96cff0ef          	jal	171e4 <__lock>
   1807c:	00813083          	ld	ra,8(sp)
   18080:	45818513          	addi	a0,gp,1112 # 1fc58 <ofl_head>
   18084:	01010113          	addi	sp,sp,16
   18088:	00008067          	ret

000000000001808c <__ofl_unlock>:
   1808c:	45018513          	addi	a0,gp,1104 # 1fc50 <ofl_lock>
   18090:	a74ff06f          	j	17304 <__unlock>

0000000000018094 <__addtf3>:
   18094:	fd010113          	addi	sp,sp,-48
   18098:	02113423          	sd	ra,40(sp)
   1809c:	02813023          	sd	s0,32(sp)
   180a0:	00913c23          	sd	s1,24(sp)
   180a4:	01213823          	sd	s2,16(sp)
   180a8:	01313423          	sd	s3,8(sp)
   180ac:	01413023          	sd	s4,0(sp)
   180b0:	00202a73          	frrm	s4
   180b4:	fff00f13          	li	t5,-1
   180b8:	010f5e93          	srli	t4,t5,0x10
   180bc:	00008837          	lui	a6,0x8
   180c0:	0305d913          	srli	s2,a1,0x30
   180c4:	01e80833          	add	a6,a6,t5
   180c8:	0306d893          	srli	a7,a3,0x30
   180cc:	01d5f333          	and	t1,a1,t4
   180d0:	01d6f7b3          	and	a5,a3,t4
   180d4:	00331313          	slli	t1,t1,0x3
   180d8:	00379793          	slli	a5,a5,0x3
   180dc:	01097933          	and	s2,s2,a6
   180e0:	0108f8b3          	and	a7,a7,a6
   180e4:	03f5d413          	srli	s0,a1,0x3f
   180e8:	03d55e13          	srli	t3,a0,0x3d
   180ec:	03d65593          	srli	a1,a2,0x3d
   180f0:	03f6d693          	srli	a3,a3,0x3f
   180f4:	006e6e33          	or	t3,t3,t1
   180f8:	00f5e5b3          	or	a1,a1,a5
   180fc:	000a0a1b          	sext.w	s4,s4
   18100:	4119073b          	subw	a4,s2,a7
   18104:	00351313          	slli	t1,a0,0x3
   18108:	00361793          	slli	a5,a2,0x3
   1810c:	18d40063          	beq	s0,a3,1828c <__addtf3+0x1f8>
   18110:	12e05c63          	blez	a4,18248 <__addtf3+0x1b4>
   18114:	22088663          	beqz	a7,18340 <__addtf3+0x2ac>
   18118:	2b090ee3          	beq	s2,a6,18bd4 <__addtf3+0xb40>
   1811c:	07400693          	li	a3,116
   18120:	22e6ce63          	blt	a3,a4,1835c <__addtf3+0x2c8>
   18124:	00100693          	li	a3,1
   18128:	03369693          	slli	a3,a3,0x33
   1812c:	00d5e5b3          	or	a1,a1,a3
   18130:	03f00693          	li	a3,63
   18134:	02e6cae3          	blt	a3,a4,18968 <__addtf3+0x8d4>
   18138:	04000693          	li	a3,64
   1813c:	40e686bb          	subw	a3,a3,a4
   18140:	00d594b3          	sll	s1,a1,a3
   18144:	00d796b3          	sll	a3,a5,a3
   18148:	00e7d7b3          	srl	a5,a5,a4
   1814c:	00d036b3          	snez	a3,a3
   18150:	00f4e4b3          	or	s1,s1,a5
   18154:	00e5d5b3          	srl	a1,a1,a4
   18158:	00d4e4b3          	or	s1,s1,a3
   1815c:	40be0e33          	sub	t3,t3,a1
   18160:	409304b3          	sub	s1,t1,s1
   18164:	009337b3          	sltu	a5,t1,s1
   18168:	40fe09b3          	sub	s3,t3,a5
   1816c:	00c99793          	slli	a5,s3,0xc
   18170:	2007c463          	bltz	a5,18378 <__addtf3+0x2e4>
   18174:	0074f793          	andi	a5,s1,7
   18178:	1c078063          	beqz	a5,18338 <__addtf3+0x2a4>
   1817c:	00200793          	li	a5,2
   18180:	3cfa0663          	beq	s4,a5,1854c <__addtf3+0x4b8>
   18184:	00300793          	li	a5,3
   18188:	56fa0a63          	beq	s4,a5,186fc <__addtf3+0x668>
   1818c:	3c0a1463          	bnez	s4,18554 <__addtf3+0x4c0>
   18190:	00000713          	li	a4,0
   18194:	00f4f793          	andi	a5,s1,15
   18198:	00400693          	li	a3,4
   1819c:	36d78263          	beq	a5,a3,18500 <__addtf3+0x46c>
   181a0:	00d487b3          	add	a5,s1,a3
   181a4:	0097b4b3          	sltu	s1,a5,s1
   181a8:	00100613          	li	a2,1
   181ac:	009989b3          	add	s3,s3,s1
   181b0:	03361613          	slli	a2,a2,0x33
   181b4:	00078493          	mv	s1,a5
   181b8:	00c9f633          	and	a2,s3,a2
   181bc:	34070a63          	beqz	a4,18510 <__addtf3+0x47c>
   181c0:	00300713          	li	a4,3
   181c4:	38060a63          	beqz	a2,18558 <__addtf3+0x4c4>
   181c8:	000087b7          	lui	a5,0x8
   181cc:	00190693          	addi	a3,s2,1
   181d0:	fff78793          	addi	a5,a5,-1 # 7fff <exit-0x8159>
   181d4:	4af68863          	beq	a3,a5,18684 <__addtf3+0x5f0>
   181d8:	fff00793          	li	a5,-1
   181dc:	03379793          	slli	a5,a5,0x33
   181e0:	fff78793          	addi	a5,a5,-1
   181e4:	00f9f7b3          	and	a5,s3,a5
   181e8:	03d79613          	slli	a2,a5,0x3d
   181ec:	00d79593          	slli	a1,a5,0xd
   181f0:	0034d493          	srli	s1,s1,0x3
   181f4:	03169693          	slli	a3,a3,0x31
   181f8:	0316d793          	srli	a5,a3,0x31
   181fc:	00147413          	andi	s0,s0,1
   18200:	009664b3          	or	s1,a2,s1
   18204:	0105d593          	srli	a1,a1,0x10
   18208:	00f4141b          	slliw	s0,s0,0xf
   1820c:	0087e7b3          	or	a5,a5,s0
   18210:	01059593          	slli	a1,a1,0x10
   18214:	03079793          	slli	a5,a5,0x30
   18218:	0105d593          	srli	a1,a1,0x10
   1821c:	00f5e5b3          	or	a1,a1,a5
   18220:	00048513          	mv	a0,s1
   18224:	46071e63          	bnez	a4,186a0 <__addtf3+0x60c>
   18228:	02813083          	ld	ra,40(sp)
   1822c:	02013403          	ld	s0,32(sp)
   18230:	01813483          	ld	s1,24(sp)
   18234:	01013903          	ld	s2,16(sp)
   18238:	00813983          	ld	s3,8(sp)
   1823c:	00013a03          	ld	s4,0(sp)
   18240:	03010113          	addi	sp,sp,48
   18244:	00008067          	ret
   18248:	22070663          	beqz	a4,18474 <__addtf3+0x3e0>
   1824c:	62091063          	bnez	s2,1886c <__addtf3+0x7d8>
   18250:	006e6533          	or	a0,t3,t1
   18254:	08050ce3          	beqz	a0,18aec <__addtf3+0xa58>
   18258:	fff74713          	not	a4,a4
   1825c:	30070ee3          	beqz	a4,18d78 <__addtf3+0xce4>
   18260:	1b088ee3          	beq	a7,a6,18c1c <__addtf3+0xb88>
   18264:	07400613          	li	a2,116
   18268:	62e65063          	bge	a2,a4,18888 <__addtf3+0x7f4>
   1826c:	fff78493          	addi	s1,a5,-1
   18270:	0097b7b3          	sltu	a5,a5,s1
   18274:	40f589b3          	sub	s3,a1,a5
   18278:	00c99793          	slli	a5,s3,0xc
   1827c:	2807c0e3          	bltz	a5,18cfc <__addtf3+0xc68>
   18280:	00068413          	mv	s0,a3
   18284:	00088913          	mv	s2,a7
   18288:	ef5ff06f          	j	1817c <__addtf3+0xe8>
   1828c:	34e05863          	blez	a4,185dc <__addtf3+0x548>
   18290:	24089a63          	bnez	a7,184e4 <__addtf3+0x450>
   18294:	00f5e6b3          	or	a3,a1,a5
   18298:	160686e3          	beqz	a3,18c04 <__addtf3+0xb70>
   1829c:	fff7071b          	addiw	a4,a4,-1
   182a0:	0a0706e3          	beqz	a4,18b4c <__addtf3+0xab8>
   182a4:	43090263          	beq	s2,a6,186c8 <__addtf3+0x634>
   182a8:	07400613          	li	a2,116
   182ac:	28e64063          	blt	a2,a4,1852c <__addtf3+0x498>
   182b0:	03f00693          	li	a3,63
   182b4:	1ee6c4e3          	blt	a3,a4,18c9c <__addtf3+0xc08>
   182b8:	04000693          	li	a3,64
   182bc:	40e686bb          	subw	a3,a3,a4
   182c0:	00d599b3          	sll	s3,a1,a3
   182c4:	00d796b3          	sll	a3,a5,a3
   182c8:	00e7d7b3          	srl	a5,a5,a4
   182cc:	00d036b3          	snez	a3,a3
   182d0:	00f9e9b3          	or	s3,s3,a5
   182d4:	00e5d5b3          	srl	a1,a1,a4
   182d8:	00d9e9b3          	or	s3,s3,a3
   182dc:	00be0e33          	add	t3,t3,a1
   182e0:	006987b3          	add	a5,s3,t1
   182e4:	0137b9b3          	sltu	s3,a5,s3
   182e8:	01c989b3          	add	s3,s3,t3
   182ec:	00078493          	mv	s1,a5
   182f0:	00c99793          	slli	a5,s3,0xc
   182f4:	e807d0e3          	bgez	a5,18174 <__addtf3+0xe0>
   182f8:	000087b7          	lui	a5,0x8
   182fc:	00190913          	addi	s2,s2,1
   18300:	fff78793          	addi	a5,a5,-1 # 7fff <exit-0x8159>
   18304:	16f908e3          	beq	s2,a5,18c74 <__addtf3+0xbe0>
   18308:	fff00793          	li	a5,-1
   1830c:	03379793          	slli	a5,a5,0x33
   18310:	0014d713          	srli	a4,s1,0x1
   18314:	fff78793          	addi	a5,a5,-1
   18318:	0014f493          	andi	s1,s1,1
   1831c:	00976733          	or	a4,a4,s1
   18320:	00f9f7b3          	and	a5,s3,a5
   18324:	03f79493          	slli	s1,a5,0x3f
   18328:	00777693          	andi	a3,a4,7
   1832c:	0017d993          	srli	s3,a5,0x1
   18330:	00e4e4b3          	or	s1,s1,a4
   18334:	e40694e3          	bnez	a3,1817c <__addtf3+0xe8>
   18338:	00000713          	li	a4,0
   1833c:	21c0006f          	j	18558 <__addtf3+0x4c4>
   18340:	00f5e6b3          	or	a3,a1,a5
   18344:	38068063          	beqz	a3,186c4 <__addtf3+0x630>
   18348:	fff7071b          	addiw	a4,a4,-1
   1834c:	060704e3          	beqz	a4,18bb4 <__addtf3+0xb20>
   18350:	37090c63          	beq	s2,a6,186c8 <__addtf3+0x634>
   18354:	07400613          	li	a2,116
   18358:	dce65ce3          	bge	a2,a4,18130 <__addtf3+0x9c>
   1835c:	fff30493          	addi	s1,t1,-1
   18360:	009337b3          	sltu	a5,t1,s1
   18364:	40fe09b3          	sub	s3,t3,a5
   18368:	00c99793          	slli	a5,s3,0xc
   1836c:	e007d8e3          	bgez	a5,1817c <__addtf3+0xe8>
   18370:	000f0993          	mv	s3,t5
   18374:	000f0493          	mv	s1,t5
   18378:	00d99993          	slli	s3,s3,0xd
   1837c:	00d9d993          	srli	s3,s3,0xd
   18380:	2a098263          	beqz	s3,18624 <__addtf3+0x590>
   18384:	00098513          	mv	a0,s3
   18388:	1d0030ef          	jal	1b558 <__clzdi2>
   1838c:	ff45071b          	addiw	a4,a0,-12
   18390:	04000693          	li	a3,64
   18394:	40e687bb          	subw	a5,a3,a4
   18398:	00f4d7b3          	srl	a5,s1,a5
   1839c:	00e999b3          	sll	s3,s3,a4
   183a0:	0137e7b3          	or	a5,a5,s3
   183a4:	00e494b3          	sll	s1,s1,a4
   183a8:	53274463          	blt	a4,s2,188d0 <__addtf3+0x83c>
   183ac:	4127073b          	subw	a4,a4,s2
   183b0:	0017071b          	addiw	a4,a4,1
   183b4:	40e686bb          	subw	a3,a3,a4
   183b8:	00d49633          	sll	a2,s1,a3
   183bc:	00c03633          	snez	a2,a2
   183c0:	00e4d9b3          	srl	s3,s1,a4
   183c4:	00d796b3          	sll	a3,a5,a3
   183c8:	01366633          	or	a2,a2,s3
   183cc:	00c6e4b3          	or	s1,a3,a2
   183d0:	00e7d9b3          	srl	s3,a5,a4
   183d4:	0134e7b3          	or	a5,s1,s3
   183d8:	50078e63          	beqz	a5,188f4 <__addtf3+0x860>
   183dc:	00149713          	slli	a4,s1,0x1
   183e0:	00199793          	slli	a5,s3,0x1
   183e4:	03f4d613          	srli	a2,s1,0x3f
   183e8:	00777693          	andi	a3,a4,7
   183ec:	00c787b3          	add	a5,a5,a2
   183f0:	18068e63          	beqz	a3,1858c <__addtf3+0x4f8>
   183f4:	00200693          	li	a3,2
   183f8:	1eda00e3          	beq	s4,a3,18dd8 <__addtf3+0xd44>
   183fc:	00300693          	li	a3,3
   18400:	1ada0ee3          	beq	s4,a3,18dbc <__addtf3+0xd28>
   18404:	180a1ee3          	bnez	s4,18da0 <__addtf3+0xd0c>
   18408:	00f77693          	andi	a3,a4,15
   1840c:	00400613          	li	a2,4
   18410:	68c68863          	beq	a3,a2,18aa0 <__addtf3+0xa0c>
   18414:	ffc73713          	sltiu	a4,a4,-4
   18418:	00174713          	xori	a4,a4,1
   1841c:	00f707b3          	add	a5,a4,a5
   18420:	0347d793          	srli	a5,a5,0x34
   18424:	0017f793          	andi	a5,a5,1
   18428:	0074f693          	andi	a3,s1,7
   1842c:	0017c713          	xori	a4,a5,1
   18430:	00000913          	li	s2,0
   18434:	d60690e3          	bnez	a3,18194 <__addtf3+0x100>
   18438:	00100613          	li	a2,1
   1843c:	03361613          	slli	a2,a2,0x33
   18440:	00c9f633          	and	a2,s3,a2
   18444:	00000913          	li	s2,0
   18448:	d6071ce3          	bnez	a4,181c0 <__addtf3+0x12c>
   1844c:	00040693          	mv	a3,s0
   18450:	00098593          	mv	a1,s3
   18454:	00048793          	mv	a5,s1
   18458:	00100713          	li	a4,1
   1845c:	480600e3          	beqz	a2,190dc <__addtf3+0x1048>
   18460:	00068413          	mv	s0,a3
   18464:	00058993          	mv	s3,a1
   18468:	00078493          	mv	s1,a5
   1846c:	00100693          	li	a3,1
   18470:	d69ff06f          	j	181d8 <__addtf3+0x144>
   18474:	00190e93          	addi	t4,s2,1
   18478:	031e9f13          	slli	t5,t4,0x31
   1847c:	032f5f13          	srli	t5,t5,0x32
   18480:	3a0f1a63          	bnez	t5,18834 <__addtf3+0x7a0>
   18484:	006e64b3          	or	s1,t3,t1
   18488:	00f5eeb3          	or	t4,a1,a5
   1848c:	68091a63          	bnez	s2,18b20 <__addtf3+0xa8c>
   18490:	7c048063          	beqz	s1,18c50 <__addtf3+0xbbc>
   18494:	7c0e8663          	beqz	t4,18c60 <__addtf3+0xbcc>
   18498:	40f30633          	sub	a2,t1,a5
   1849c:	00c33533          	sltu	a0,t1,a2
   184a0:	40be0733          	sub	a4,t3,a1
   184a4:	40a70733          	sub	a4,a4,a0
   184a8:	00c71513          	slli	a0,a4,0xc
   184ac:	22055ee3          	bgez	a0,18ee8 <__addtf3+0xe54>
   184b0:	40678333          	sub	t1,a5,t1
   184b4:	0067b733          	sltu	a4,a5,t1
   184b8:	41c585b3          	sub	a1,a1,t3
   184bc:	00030793          	mv	a5,t1
   184c0:	40e585b3          	sub	a1,a1,a4
   184c4:	00f5e733          	or	a4,a1,a5
   184c8:	00068413          	mv	s0,a3
   184cc:	42070463          	beqz	a4,188f4 <__addtf3+0x860>
   184d0:	00100613          	li	a2,1
   184d4:	03361613          	slli	a2,a2,0x33
   184d8:	00c5f633          	and	a2,a1,a2
   184dc:	00000713          	li	a4,0
   184e0:	f7dff06f          	j	1845c <__addtf3+0x3c8>
   184e4:	1f090263          	beq	s2,a6,186c8 <__addtf3+0x634>
   184e8:	07400693          	li	a3,116
   184ec:	04e6c063          	blt	a3,a4,1852c <__addtf3+0x498>
   184f0:	00100693          	li	a3,1
   184f4:	03369693          	slli	a3,a3,0x33
   184f8:	00d5e5b3          	or	a1,a1,a3
   184fc:	db5ff06f          	j	182b0 <__addtf3+0x21c>
   18500:	00100613          	li	a2,1
   18504:	03361613          	slli	a2,a2,0x33
   18508:	00c9f633          	and	a2,s3,a2
   1850c:	ca071ae3          	bnez	a4,181c0 <__addtf3+0x12c>
   18510:	04060263          	beqz	a2,18554 <__addtf3+0x4c0>
   18514:	000087b7          	lui	a5,0x8
   18518:	00190693          	addi	a3,s2,1
   1851c:	fff78793          	addi	a5,a5,-1 # 7fff <exit-0x8159>
   18520:	64f68663          	beq	a3,a5,18b6c <__addtf3+0xad8>
   18524:	00100713          	li	a4,1
   18528:	cb1ff06f          	j	181d8 <__addtf3+0x144>
   1852c:	00100993          	li	s3,1
   18530:	00ce1793          	slli	a5,t3,0xc
   18534:	03399993          	slli	s3,s3,0x33
   18538:	00000493          	li	s1,0
   1853c:	da07cee3          	bltz	a5,182f8 <__addtf3+0x264>
   18540:	00130493          	addi	s1,t1,1
   18544:	000e0993          	mv	s3,t3
   18548:	c35ff06f          	j	1817c <__addtf3+0xe8>
   1854c:	00000713          	li	a4,0
   18550:	22041263          	bnez	s0,18774 <__addtf3+0x6e0>
   18554:	00100713          	li	a4,1
   18558:	000086b7          	lui	a3,0x8
   1855c:	03d99793          	slli	a5,s3,0x3d
   18560:	0034d493          	srli	s1,s1,0x3
   18564:	fff68693          	addi	a3,a3,-1 # 7fff <exit-0x8159>
   18568:	0097e4b3          	or	s1,a5,s1
   1856c:	0039d793          	srli	a5,s3,0x3
   18570:	3ad90ce3          	beq	s2,a3,19128 <__addtf3+0x1094>
   18574:	01079793          	slli	a5,a5,0x10
   18578:	03191693          	slli	a3,s2,0x31
   1857c:	0107d593          	srli	a1,a5,0x10
   18580:	00147413          	andi	s0,s0,1
   18584:	0316d793          	srli	a5,a3,0x31
   18588:	c81ff06f          	j	18208 <__addtf3+0x174>
   1858c:	00100713          	li	a4,1
   18590:	03471713          	slli	a4,a4,0x34
   18594:	00e7f7b3          	and	a5,a5,a4
   18598:	0074f693          	andi	a3,s1,7
   1859c:	0017b713          	seqz	a4,a5
   185a0:	360684e3          	beqz	a3,19108 <__addtf3+0x1074>
   185a4:	00200693          	li	a3,2
   185a8:	72da0463          	beq	s4,a3,18cd0 <__addtf3+0xc3c>
   185ac:	00300793          	li	a5,3
   185b0:	50fa0663          	beq	s4,a5,18abc <__addtf3+0xa28>
   185b4:	500a0063          	beqz	s4,18ab4 <__addtf3+0xa20>
   185b8:	00100613          	li	a2,1
   185bc:	03361613          	slli	a2,a2,0x33
   185c0:	00c9f633          	and	a2,s3,a2
   185c4:	00000913          	li	s2,0
   185c8:	be071ce3          	bnez	a4,181c0 <__addtf3+0x12c>
   185cc:	f80604e3          	beqz	a2,18554 <__addtf3+0x4c0>
   185d0:	00100713          	li	a4,1
   185d4:	00070693          	mv	a3,a4
   185d8:	c01ff06f          	j	181d8 <__addtf3+0x144>
   185dc:	1c070e63          	beqz	a4,187b8 <__addtf3+0x724>
   185e0:	40091463          	bnez	s2,189e8 <__addtf3+0x954>
   185e4:	006e66b3          	or	a3,t3,t1
   185e8:	74068a63          	beqz	a3,18d3c <__addtf3+0xca8>
   185ec:	fff74713          	not	a4,a4
   185f0:	0a0706e3          	beqz	a4,18e9c <__addtf3+0xe08>
   185f4:	75088663          	beq	a7,a6,18d40 <__addtf3+0xcac>
   185f8:	07400693          	li	a3,116
   185fc:	40e6d463          	bge	a3,a4,18a04 <__addtf3+0x970>
   18600:	00100713          	li	a4,1
   18604:	03371993          	slli	s3,a4,0x33
   18608:	00c59713          	slli	a4,a1,0xc
   1860c:	00088913          	mv	s2,a7
   18610:	00000493          	li	s1,0
   18614:	ce0742e3          	bltz	a4,182f8 <__addtf3+0x264>
   18618:	00178493          	addi	s1,a5,1
   1861c:	00058993          	mv	s3,a1
   18620:	b5dff06f          	j	1817c <__addtf3+0xe8>
   18624:	00048513          	mv	a0,s1
   18628:	731020ef          	jal	1b558 <__clzdi2>
   1862c:	0345069b          	addiw	a3,a0,52
   18630:	03f00613          	li	a2,63
   18634:	00068713          	mv	a4,a3
   18638:	d4d65ce3          	bge	a2,a3,18390 <__addtf3+0x2fc>
   1863c:	ff45051b          	addiw	a0,a0,-12
   18640:	00a497b3          	sll	a5,s1,a0
   18644:	3726cc63          	blt	a3,s2,189bc <__addtf3+0x928>
   18648:	412686bb          	subw	a3,a3,s2
   1864c:	0016871b          	addiw	a4,a3,1
   18650:	00070593          	mv	a1,a4
   18654:	02e65ce3          	bge	a2,a4,18e8c <__addtf3+0xdf8>
   18658:	fc16869b          	addiw	a3,a3,-63
   1865c:	04000713          	li	a4,64
   18660:	00d7d4b3          	srl	s1,a5,a3
   18664:	00e58c63          	beq	a1,a4,1867c <__addtf3+0x5e8>
   18668:	08000713          	li	a4,128
   1866c:	40b7073b          	subw	a4,a4,a1
   18670:	00e797b3          	sll	a5,a5,a4
   18674:	00f037b3          	snez	a5,a5
   18678:	00f4e4b3          	or	s1,s1,a5
   1867c:	00048793          	mv	a5,s1
   18680:	d59ff06f          	j	183d8 <__addtf3+0x344>
   18684:	00576713          	ori	a4,a4,5
   18688:	0a0a1c63          	bnez	s4,18740 <__addtf3+0x6ac>
   1868c:	07fff7b7          	lui	a5,0x7fff
   18690:	03f41593          	slli	a1,s0,0x3f
   18694:	02479793          	slli	a5,a5,0x24
   18698:	00f5e5b3          	or	a1,a1,a5
   1869c:	00000513          	li	a0,0
   186a0:	00172073          	csrs	fflags,a4
   186a4:	02813083          	ld	ra,40(sp)
   186a8:	02013403          	ld	s0,32(sp)
   186ac:	01813483          	ld	s1,24(sp)
   186b0:	01013903          	ld	s2,16(sp)
   186b4:	00813983          	ld	s3,8(sp)
   186b8:	00013a03          	ld	s4,0(sp)
   186bc:	03010113          	addi	sp,sp,48
   186c0:	00008067          	ret
   186c4:	23091e63          	bne	s2,a6,18900 <__addtf3+0x86c>
   186c8:	006e67b3          	or	a5,t3,t1
   186cc:	2c079463          	bnez	a5,18994 <__addtf3+0x900>
   186d0:	00000e93          	li	t4,0
   186d4:	00000713          	li	a4,0
   186d8:	01d7e7b3          	or	a5,a5,t4
   186dc:	26078a63          	beqz	a5,18950 <__addtf3+0x8bc>
   186e0:	000087b7          	lui	a5,0x8
   186e4:	00100593          	li	a1,1
   186e8:	fff78793          	addi	a5,a5,-1 # 7fff <exit-0x8159>
   186ec:	02f59593          	slli	a1,a1,0x2f
   186f0:	00000413          	li	s0,0
   186f4:	00000493          	li	s1,0
   186f8:	b11ff06f          	j	18208 <__addtf3+0x174>
   186fc:	00000713          	li	a4,0
   18700:	2c041e63          	bnez	s0,189dc <__addtf3+0x948>
   18704:	00848793          	addi	a5,s1,8
   18708:	0097b4b3          	sltu	s1,a5,s1
   1870c:	00100613          	li	a2,1
   18710:	009989b3          	add	s3,s3,s1
   18714:	03361613          	slli	a2,a2,0x33
   18718:	00078493          	mv	s1,a5
   1871c:	00c9f633          	and	a2,s3,a2
   18720:	36071a63          	bnez	a4,18a94 <__addtf3+0xa00>
   18724:	76060063          	beqz	a2,18e84 <__addtf3+0xdf0>
   18728:	000087b7          	lui	a5,0x8
   1872c:	00190693          	addi	a3,s2,1
   18730:	fff78793          	addi	a5,a5,-1 # 7fff <exit-0x8159>
   18734:	00000413          	li	s0,0
   18738:	def696e3          	bne	a3,a5,18524 <__addtf3+0x490>
   1873c:	00500713          	li	a4,5
   18740:	00300793          	li	a5,3
   18744:	58fa0263          	beq	s4,a5,18cc8 <__addtf3+0xc34>
   18748:	00200793          	li	a5,2
   1874c:	42fa0463          	beq	s4,a5,18b74 <__addtf3+0xae0>
   18750:	07fff7b7          	lui	a5,0x7fff
   18754:	02479793          	slli	a5,a5,0x24
   18758:	03f41593          	slli	a1,s0,0x3f
   1875c:	fff78793          	addi	a5,a5,-1 # 7ffefff <__BSS_END__+0x7fdf39f>
   18760:	00f5e5b3          	or	a1,a1,a5
   18764:	fff00513          	li	a0,-1
   18768:	00172073          	csrs	fflags,a4
   1876c:	f39ff06f          	j	186a4 <__addtf3+0x610>
   18770:	00000913          	li	s2,0
   18774:	00848793          	addi	a5,s1,8
   18778:	0097b4b3          	sltu	s1,a5,s1
   1877c:	00100613          	li	a2,1
   18780:	009989b3          	add	s3,s3,s1
   18784:	03361613          	slli	a2,a2,0x33
   18788:	00078493          	mv	s1,a5
   1878c:	00c9f633          	and	a2,s3,a2
   18790:	00100413          	li	s0,1
   18794:	a20716e3          	bnez	a4,181c0 <__addtf3+0x12c>
   18798:	da060ee3          	beqz	a2,18554 <__addtf3+0x4c0>
   1879c:	000087b7          	lui	a5,0x8
   187a0:	008906b3          	add	a3,s2,s0
   187a4:	fff78793          	addi	a5,a5,-1 # 7fff <exit-0x8159>
   187a8:	00040713          	mv	a4,s0
   187ac:	a2f696e3          	bne	a3,a5,181d8 <__addtf3+0x144>
   187b0:	00500713          	li	a4,5
   187b4:	f8dff06f          	j	18740 <__addtf3+0x6ac>
   187b8:	00190293          	addi	t0,s2,1
   187bc:	03129f93          	slli	t6,t0,0x31
   187c0:	032fdf93          	srli	t6,t6,0x32
   187c4:	280f9463          	bnez	t6,18a4c <__addtf3+0x9b8>
   187c8:	006e64b3          	or	s1,t3,t1
   187cc:	64091463          	bnez	s2,18e14 <__addtf3+0xd80>
   187d0:	ce048ae3          	beqz	s1,184c4 <__addtf3+0x430>
   187d4:	00f5e733          	or	a4,a1,a5
   187d8:	48070463          	beqz	a4,18c60 <__addtf3+0xbcc>
   187dc:	00f30633          	add	a2,t1,a5
   187e0:	006637b3          	sltu	a5,a2,t1
   187e4:	00be05b3          	add	a1,t3,a1
   187e8:	00f585b3          	add	a1,a1,a5
   187ec:	00c59713          	slli	a4,a1,0xc
   187f0:	00060793          	mv	a5,a2
   187f4:	cc0758e3          	bgez	a4,184c4 <__addtf3+0x430>
   187f8:	fff00713          	li	a4,-1
   187fc:	03371713          	slli	a4,a4,0x33
   18800:	fff70713          	addi	a4,a4,-1
   18804:	00e5f733          	and	a4,a1,a4
   18808:	00375793          	srli	a5,a4,0x3
   1880c:	00100693          	li	a3,1
   18810:	01d7f7b3          	and	a5,a5,t4
   18814:	03069693          	slli	a3,a3,0x30
   18818:	00365613          	srli	a2,a2,0x3
   1881c:	03f41413          	slli	s0,s0,0x3f
   18820:	03d71713          	slli	a4,a4,0x3d
   18824:	00d7e5b3          	or	a1,a5,a3
   18828:	00c76533          	or	a0,a4,a2
   1882c:	0085e5b3          	or	a1,a1,s0
   18830:	9f9ff06f          	j	18228 <__addtf3+0x194>
   18834:	40f30733          	sub	a4,t1,a5
   18838:	00e33633          	sltu	a2,t1,a4
   1883c:	40be09b3          	sub	s3,t3,a1
   18840:	40c989b3          	sub	s3,s3,a2
   18844:	00c99613          	slli	a2,s3,0xc
   18848:	00070493          	mv	s1,a4
   1884c:	2a064c63          	bltz	a2,18b04 <__addtf3+0xa70>
   18850:	01376733          	or	a4,a4,s3
   18854:	b20716e3          	bnez	a4,18380 <__addtf3+0x2ec>
   18858:	ffea0593          	addi	a1,s4,-2
   1885c:	0015b593          	seqz	a1,a1
   18860:	03f59593          	slli	a1,a1,0x3f
   18864:	00000513          	li	a0,0
   18868:	9c1ff06f          	j	18228 <__addtf3+0x194>
   1886c:	3b088863          	beq	a7,a6,18c1c <__addtf3+0xb88>
   18870:	f8c00613          	li	a2,-116
   18874:	9ec74ce3          	blt	a4,a2,1826c <__addtf3+0x1d8>
   18878:	00100613          	li	a2,1
   1887c:	03361613          	slli	a2,a2,0x33
   18880:	40e0073b          	negw	a4,a4
   18884:	00ce6e33          	or	t3,t3,a2
   18888:	03f00613          	li	a2,63
   1888c:	48e64263          	blt	a2,a4,18d10 <__addtf3+0xc7c>
   18890:	04000613          	li	a2,64
   18894:	40e6063b          	subw	a2,a2,a4
   18898:	00ce14b3          	sll	s1,t3,a2
   1889c:	00c31633          	sll	a2,t1,a2
   188a0:	00e35333          	srl	t1,t1,a4
   188a4:	00c03633          	snez	a2,a2
   188a8:	0064e4b3          	or	s1,s1,t1
   188ac:	00ee5e33          	srl	t3,t3,a4
   188b0:	00c4e4b3          	or	s1,s1,a2
   188b4:	41c585b3          	sub	a1,a1,t3
   188b8:	409784b3          	sub	s1,a5,s1
   188bc:	0097b7b3          	sltu	a5,a5,s1
   188c0:	40f589b3          	sub	s3,a1,a5
   188c4:	00088913          	mv	s2,a7
   188c8:	00068413          	mv	s0,a3
   188cc:	8a1ff06f          	j	1816c <__addtf3+0xd8>
   188d0:	fff00993          	li	s3,-1
   188d4:	03399993          	slli	s3,s3,0x33
   188d8:	fff98993          	addi	s3,s3,-1
   188dc:	0074f693          	andi	a3,s1,7
   188e0:	40e90933          	sub	s2,s2,a4
   188e4:	0137f9b3          	and	s3,a5,s3
   188e8:	88069ae3          	bnez	a3,1817c <__addtf3+0xe8>
   188ec:	00000713          	li	a4,0
   188f0:	c69ff06f          	j	18558 <__addtf3+0x4c4>
   188f4:	00000e13          	li	t3,0
   188f8:	00000313          	li	t1,0
   188fc:	00000913          	li	s2,0
   18900:	00f4141b          	slliw	s0,s0,0xf
   18904:	01246433          	or	s0,s0,s2
   18908:	00de1593          	slli	a1,t3,0xd
   1890c:	03041413          	slli	s0,s0,0x30
   18910:	0105d593          	srli	a1,a1,0x10
   18914:	02813083          	ld	ra,40(sp)
   18918:	0085e5b3          	or	a1,a1,s0
   1891c:	02013403          	ld	s0,32(sp)
   18920:	00335793          	srli	a5,t1,0x3
   18924:	03de1513          	slli	a0,t3,0x3d
   18928:	01813483          	ld	s1,24(sp)
   1892c:	01013903          	ld	s2,16(sp)
   18930:	00813983          	ld	s3,8(sp)
   18934:	00013a03          	ld	s4,0(sp)
   18938:	00f56533          	or	a0,a0,a5
   1893c:	03010113          	addi	sp,sp,48
   18940:	00008067          	ret
   18944:	00f5e6b3          	or	a3,a1,a5
   18948:	74069263          	bnez	a3,1908c <__addtf3+0xff8>
   1894c:	24049463          	bnez	s1,18b94 <__addtf3+0xb00>
   18950:	000087b7          	lui	a5,0x8
   18954:	00147413          	andi	s0,s0,1
   18958:	fff78793          	addi	a5,a5,-1 # 7fff <exit-0x8159>
   1895c:	00000593          	li	a1,0
   18960:	00000493          	li	s1,0
   18964:	8a5ff06f          	j	18208 <__addtf3+0x174>
   18968:	fc07069b          	addiw	a3,a4,-64
   1896c:	04000613          	li	a2,64
   18970:	00d5d6b3          	srl	a3,a1,a3
   18974:	00c70a63          	beq	a4,a2,18988 <__addtf3+0x8f4>
   18978:	08000613          	li	a2,128
   1897c:	40e6073b          	subw	a4,a2,a4
   18980:	00e59733          	sll	a4,a1,a4
   18984:	00e7e7b3          	or	a5,a5,a4
   18988:	00f034b3          	snez	s1,a5
   1898c:	00d4e4b3          	or	s1,s1,a3
   18990:	fd0ff06f          	j	18160 <__addtf3+0xcc>
   18994:	032e5713          	srli	a4,t3,0x32
   18998:	003f5793          	srli	a5,t5,0x3
   1899c:	00177713          	andi	a4,a4,1
   189a0:	00f577b3          	and	a5,a0,a5
   189a4:	03de1e93          	slli	t4,t3,0x3d
   189a8:	00174713          	xori	a4,a4,1
   189ac:	00feeeb3          	or	t4,t4,a5
   189b0:	0047171b          	slliw	a4,a4,0x4
   189b4:	003e5793          	srli	a5,t3,0x3
   189b8:	d21ff06f          	j	186d8 <__addtf3+0x644>
   189bc:	fff00993          	li	s3,-1
   189c0:	03399993          	slli	s3,s3,0x33
   189c4:	fff98993          	addi	s3,s3,-1
   189c8:	40d90933          	sub	s2,s2,a3
   189cc:	0137f9b3          	and	s3,a5,s3
   189d0:	00000493          	li	s1,0
   189d4:	00000713          	li	a4,0
   189d8:	b81ff06f          	j	18558 <__addtf3+0x4c4>
   189dc:	00100413          	li	s0,1
   189e0:	00040713          	mv	a4,s0
   189e4:	b75ff06f          	j	18558 <__addtf3+0x4c4>
   189e8:	35088c63          	beq	a7,a6,18d40 <__addtf3+0xcac>
   189ec:	f8c00693          	li	a3,-116
   189f0:	c0d748e3          	blt	a4,a3,18600 <__addtf3+0x56c>
   189f4:	00100693          	li	a3,1
   189f8:	03369693          	slli	a3,a3,0x33
   189fc:	40e0073b          	negw	a4,a4
   18a00:	00de6e33          	or	t3,t3,a3
   18a04:	03f00693          	li	a3,63
   18a08:	44e6c863          	blt	a3,a4,18e58 <__addtf3+0xdc4>
   18a0c:	04000613          	li	a2,64
   18a10:	40e6063b          	subw	a2,a2,a4
   18a14:	00ce16b3          	sll	a3,t3,a2
   18a18:	00c31633          	sll	a2,t1,a2
   18a1c:	00e35333          	srl	t1,t1,a4
   18a20:	00ee5e33          	srl	t3,t3,a4
   18a24:	00c03633          	snez	a2,a2
   18a28:	0066e6b3          	or	a3,a3,t1
   18a2c:	00c6e733          	or	a4,a3,a2
   18a30:	01c585b3          	add	a1,a1,t3
   18a34:	00f707b3          	add	a5,a4,a5
   18a38:	00e7b733          	sltu	a4,a5,a4
   18a3c:	00b709b3          	add	s3,a4,a1
   18a40:	00078493          	mv	s1,a5
   18a44:	00088913          	mv	s2,a7
   18a48:	8a9ff06f          	j	182f0 <__addtf3+0x25c>
   18a4c:	3f028863          	beq	t0,a6,18e3c <__addtf3+0xda8>
   18a50:	00f307b3          	add	a5,t1,a5
   18a54:	0067b333          	sltu	t1,a5,t1
   18a58:	00be05b3          	add	a1,t3,a1
   18a5c:	006585b3          	add	a1,a1,t1
   18a60:	0017d793          	srli	a5,a5,0x1
   18a64:	03f59493          	slli	s1,a1,0x3f
   18a68:	0077f693          	andi	a3,a5,7
   18a6c:	00f4e4b3          	or	s1,s1,a5
   18a70:	0015d993          	srli	s3,a1,0x1
   18a74:	68068263          	beqz	a3,190f8 <__addtf3+0x1064>
   18a78:	00200793          	li	a5,2
   18a7c:	4efa0a63          	beq	s4,a5,18f70 <__addtf3+0xedc>
   18a80:	00300793          	li	a5,3
   18a84:	00028913          	mv	s2,t0
   18a88:	c6fa0ce3          	beq	s4,a5,18700 <__addtf3+0x66c>
   18a8c:	f00a0463          	beqz	s4,18194 <__addtf3+0x100>
   18a90:	ac5ff06f          	j	18554 <__addtf3+0x4c0>
   18a94:	00000413          	li	s0,0
   18a98:	00300713          	li	a4,3
   18a9c:	f28ff06f          	j	181c4 <__addtf3+0x130>
   18aa0:	0347d793          	srli	a5,a5,0x34
   18aa4:	0017f793          	andi	a5,a5,1
   18aa8:	0074f693          	andi	a3,s1,7
   18aac:	0017c713          	xori	a4,a5,1
   18ab0:	980684e3          	beqz	a3,18438 <__addtf3+0x3a4>
   18ab4:	00000913          	li	s2,0
   18ab8:	edcff06f          	j	18194 <__addtf3+0x100>
   18abc:	00000913          	li	s2,0
   18ac0:	c40402e3          	beqz	s0,18704 <__addtf3+0x670>
   18ac4:	00100613          	li	a2,1
   18ac8:	03361613          	slli	a2,a2,0x33
   18acc:	00c9f633          	and	a2,s3,a2
   18ad0:	00100413          	li	s0,1
   18ad4:	00000913          	li	s2,0
   18ad8:	ee071463          	bnez	a4,181c0 <__addtf3+0x12c>
   18adc:	f00600e3          	beqz	a2,189dc <__addtf3+0x948>
   18ae0:	00040693          	mv	a3,s0
   18ae4:	00040713          	mv	a4,s0
   18ae8:	ef0ff06f          	j	181d8 <__addtf3+0x144>
   18aec:	00068413          	mv	s0,a3
   18af0:	13088663          	beq	a7,a6,18c1c <__addtf3+0xb88>
   18af4:	00058e13          	mv	t3,a1
   18af8:	00078313          	mv	t1,a5
   18afc:	00088913          	mv	s2,a7
   18b00:	e01ff06f          	j	18900 <__addtf3+0x86c>
   18b04:	40678333          	sub	t1,a5,t1
   18b08:	0067b7b3          	sltu	a5,a5,t1
   18b0c:	41c585b3          	sub	a1,a1,t3
   18b10:	00030493          	mv	s1,t1
   18b14:	40f589b3          	sub	s3,a1,a5
   18b18:	00068413          	mv	s0,a3
   18b1c:	865ff06f          	j	18380 <__addtf3+0x2ec>
   18b20:	3b090063          	beq	s2,a6,18ec0 <__addtf3+0xe2c>
   18b24:	45088c63          	beq	a7,a6,18f7c <__addtf3+0xee8>
   18b28:	06049463          	bnez	s1,18b90 <__addtf3+0xafc>
   18b2c:	080e8063          	beqz	t4,18bac <__addtf3+0xb18>
   18b30:	00361e93          	slli	t4,a2,0x3
   18b34:	03d59793          	slli	a5,a1,0x3d
   18b38:	003ede93          	srli	t4,t4,0x3
   18b3c:	00feeeb3          	or	t4,t4,a5
   18b40:	00068413          	mv	s0,a3
   18b44:	0035d793          	srli	a5,a1,0x3
   18b48:	b91ff06f          	j	186d8 <__addtf3+0x644>
   18b4c:	00f306b3          	add	a3,t1,a5
   18b50:	0066b7b3          	sltu	a5,a3,t1
   18b54:	00be05b3          	add	a1,t3,a1
   18b58:	00f589b3          	add	s3,a1,a5
   18b5c:	00c99793          	slli	a5,s3,0xc
   18b60:	00068493          	mv	s1,a3
   18b64:	f807ca63          	bltz	a5,182f8 <__addtf3+0x264>
   18b68:	9f1ff06f          	j	18558 <__addtf3+0x4c4>
   18b6c:	00500713          	li	a4,5
   18b70:	b1dff06f          	j	1868c <__addtf3+0x5f8>
   18b74:	b0041ce3          	bnez	s0,1868c <__addtf3+0x5f8>
   18b78:	00004797          	auipc	a5,0x4
   18b7c:	f6878793          	addi	a5,a5,-152 # 1cae0 <states+0x260>
   18b80:	0007b503          	ld	a0,0(a5)
   18b84:	0087b583          	ld	a1,8(a5)
   18b88:	00172073          	csrs	fflags,a4
   18b8c:	b19ff06f          	j	186a4 <__addtf3+0x610>
   18b90:	b40e98e3          	bnez	t4,186e0 <__addtf3+0x64c>
   18b94:	00351e93          	slli	t4,a0,0x3
   18b98:	03de1793          	slli	a5,t3,0x3d
   18b9c:	003ede93          	srli	t4,t4,0x3
   18ba0:	00feeeb3          	or	t4,t4,a5
   18ba4:	003e5793          	srli	a5,t3,0x3
   18ba8:	b31ff06f          	j	186d8 <__addtf3+0x644>
   18bac:	01000713          	li	a4,16
   18bb0:	b31ff06f          	j	186e0 <__addtf3+0x64c>
   18bb4:	40f306b3          	sub	a3,t1,a5
   18bb8:	00d337b3          	sltu	a5,t1,a3
   18bbc:	40be05b3          	sub	a1,t3,a1
   18bc0:	40f589b3          	sub	s3,a1,a5
   18bc4:	00c99793          	slli	a5,s3,0xc
   18bc8:	00068493          	mv	s1,a3
   18bcc:	fa07c663          	bltz	a5,18378 <__addtf3+0x2e4>
   18bd0:	989ff06f          	j	18558 <__addtf3+0x4c4>
   18bd4:	006e67b3          	or	a5,t3,t1
   18bd8:	ae078ce3          	beqz	a5,186d0 <__addtf3+0x63c>
   18bdc:	032e5713          	srli	a4,t3,0x32
   18be0:	003f5f13          	srli	t5,t5,0x3
   18be4:	00177713          	andi	a4,a4,1
   18be8:	01e57f33          	and	t5,a0,t5
   18bec:	03de1e93          	slli	t4,t3,0x3d
   18bf0:	00174713          	xori	a4,a4,1
   18bf4:	01eeeeb3          	or	t4,t4,t5
   18bf8:	0047171b          	slliw	a4,a4,0x4
   18bfc:	003e5793          	srli	a5,t3,0x3
   18c00:	ad9ff06f          	j	186d8 <__addtf3+0x644>
   18c04:	cf091ee3          	bne	s2,a6,18900 <__addtf3+0x86c>
   18c08:	006e67b3          	or	a5,t3,t1
   18c0c:	ac0782e3          	beqz	a5,186d0 <__addtf3+0x63c>
   18c10:	003f5793          	srli	a5,t5,0x3
   18c14:	032e5713          	srli	a4,t3,0x32
   18c18:	d89ff06f          	j	189a0 <__addtf3+0x90c>
   18c1c:	00f5e7b3          	or	a5,a1,a5
   18c20:	14078863          	beqz	a5,18d70 <__addtf3+0xcdc>
   18c24:	0325d713          	srli	a4,a1,0x32
   18c28:	003f5793          	srli	a5,t5,0x3
   18c2c:	00177713          	andi	a4,a4,1
   18c30:	00f677b3          	and	a5,a2,a5
   18c34:	03d59e93          	slli	t4,a1,0x3d
   18c38:	00174713          	xori	a4,a4,1
   18c3c:	00feeeb3          	or	t4,t4,a5
   18c40:	00068413          	mv	s0,a3
   18c44:	0047171b          	slliw	a4,a4,0x4
   18c48:	0035d793          	srli	a5,a1,0x3
   18c4c:	a8dff06f          	j	186d8 <__addtf3+0x644>
   18c50:	c00e84e3          	beqz	t4,18858 <__addtf3+0x7c4>
   18c54:	00058e13          	mv	t3,a1
   18c58:	00078313          	mv	t1,a5
   18c5c:	00068413          	mv	s0,a3
   18c60:	000e0993          	mv	s3,t3
   18c64:	00030493          	mv	s1,t1
   18c68:	00000913          	li	s2,0
   18c6c:	00000713          	li	a4,0
   18c70:	8e9ff06f          	j	18558 <__addtf3+0x4c4>
   18c74:	080a0063          	beqz	s4,18cf4 <__addtf3+0xc60>
   18c78:	00300793          	li	a5,3
   18c7c:	28fa0063          	beq	s4,a5,18efc <__addtf3+0xe68>
   18c80:	00200793          	li	a5,2
   18c84:	00500713          	li	a4,5
   18c88:	aafa1ce3          	bne	s4,a5,18740 <__addtf3+0x6ac>
   18c8c:	ee0406e3          	beqz	s0,18b78 <__addtf3+0xae4>
   18c90:	00000e93          	li	t4,0
   18c94:	00000793          	li	a5,0
   18c98:	a41ff06f          	j	186d8 <__addtf3+0x644>
   18c9c:	fc07069b          	addiw	a3,a4,-64
   18ca0:	04000613          	li	a2,64
   18ca4:	00d5d6b3          	srl	a3,a1,a3
   18ca8:	00c70a63          	beq	a4,a2,18cbc <__addtf3+0xc28>
   18cac:	08000613          	li	a2,128
   18cb0:	40e6073b          	subw	a4,a2,a4
   18cb4:	00e59733          	sll	a4,a1,a4
   18cb8:	00e7e7b3          	or	a5,a5,a4
   18cbc:	00f039b3          	snez	s3,a5
   18cc0:	00d9e9b3          	or	s3,s3,a3
   18cc4:	e1cff06f          	j	182e0 <__addtf3+0x24c>
   18cc8:	9c0402e3          	beqz	s0,1868c <__addtf3+0x5f8>
   18ccc:	a85ff06f          	j	18750 <__addtf3+0x6bc>
   18cd0:	aa0410e3          	bnez	s0,18770 <__addtf3+0x6dc>
   18cd4:	00100613          	li	a2,1
   18cd8:	03361613          	slli	a2,a2,0x33
   18cdc:	00c9f633          	and	a2,s3,a2
   18ce0:	00000913          	li	s2,0
   18ce4:	00100713          	li	a4,1
   18ce8:	cc079e63          	bnez	a5,181c4 <__addtf3+0x130>
   18cec:	00300713          	li	a4,3
   18cf0:	cd4ff06f          	j	181c4 <__addtf3+0x130>
   18cf4:	00500713          	li	a4,5
   18cf8:	f99ff06f          	j	18c90 <__addtf3+0xbfc>
   18cfc:	000f0993          	mv	s3,t5
   18d00:	00088913          	mv	s2,a7
   18d04:	00068413          	mv	s0,a3
   18d08:	000f0493          	mv	s1,t5
   18d0c:	e6cff06f          	j	18378 <__addtf3+0x2e4>
   18d10:	fc07061b          	addiw	a2,a4,-64
   18d14:	04000513          	li	a0,64
   18d18:	00ce5633          	srl	a2,t3,a2
   18d1c:	00a70a63          	beq	a4,a0,18d30 <__addtf3+0xc9c>
   18d20:	08000513          	li	a0,128
   18d24:	40e5073b          	subw	a4,a0,a4
   18d28:	00ee1733          	sll	a4,t3,a4
   18d2c:	00e36333          	or	t1,t1,a4
   18d30:	006034b3          	snez	s1,t1
   18d34:	00c4e4b3          	or	s1,s1,a2
   18d38:	b81ff06f          	j	188b8 <__addtf3+0x824>
   18d3c:	db089ce3          	bne	a7,a6,18af4 <__addtf3+0xa60>
   18d40:	00f5e7b3          	or	a5,a1,a5
   18d44:	980786e3          	beqz	a5,186d0 <__addtf3+0x63c>
   18d48:	0325d713          	srli	a4,a1,0x32
   18d4c:	003f5793          	srli	a5,t5,0x3
   18d50:	00177713          	andi	a4,a4,1
   18d54:	00f677b3          	and	a5,a2,a5
   18d58:	03d59e93          	slli	t4,a1,0x3d
   18d5c:	00174713          	xori	a4,a4,1
   18d60:	00feeeb3          	or	t4,t4,a5
   18d64:	0047171b          	slliw	a4,a4,0x4
   18d68:	0035d793          	srli	a5,a1,0x3
   18d6c:	96dff06f          	j	186d8 <__addtf3+0x644>
   18d70:	00068413          	mv	s0,a3
   18d74:	95dff06f          	j	186d0 <__addtf3+0x63c>
   18d78:	40678333          	sub	t1,a5,t1
   18d7c:	0067b7b3          	sltu	a5,a5,t1
   18d80:	41c585b3          	sub	a1,a1,t3
   18d84:	40f589b3          	sub	s3,a1,a5
   18d88:	00c99793          	slli	a5,s3,0xc
   18d8c:	00030493          	mv	s1,t1
   18d90:	1407c663          	bltz	a5,18edc <__addtf3+0xe48>
   18d94:	00068413          	mv	s0,a3
   18d98:	00088913          	mv	s2,a7
   18d9c:	fbcff06f          	j	18558 <__addtf3+0x4c4>
   18da0:	0347d793          	srli	a5,a5,0x34
   18da4:	0017f793          	andi	a5,a5,1
   18da8:	0074f693          	andi	a3,s1,7
   18dac:	0017c713          	xori	a4,a5,1
   18db0:	e8068463          	beqz	a3,18438 <__addtf3+0x3a4>
   18db4:	800a12e3          	bnez	s4,185b8 <__addtf3+0x524>
   18db8:	cfdff06f          	j	18ab4 <__addtf3+0xa20>
   18dbc:	14040663          	beqz	s0,18f08 <__addtf3+0xe74>
   18dc0:	0347d793          	srli	a5,a5,0x34
   18dc4:	0017f793          	andi	a5,a5,1
   18dc8:	0074f693          	andi	a3,s1,7
   18dcc:	0017c713          	xori	a4,a5,1
   18dd0:	ce069ae3          	bnez	a3,18ac4 <__addtf3+0xa30>
   18dd4:	e64ff06f          	j	18438 <__addtf3+0x3a4>
   18dd8:	14041c63          	bnez	s0,18f30 <__addtf3+0xe9c>
   18ddc:	00100693          	li	a3,1
   18de0:	03469693          	slli	a3,a3,0x34
   18de4:	0074f713          	andi	a4,s1,7
   18de8:	00d7f7b3          	and	a5,a5,a3
   18dec:	30070a63          	beqz	a4,19100 <__addtf3+0x106c>
   18df0:	00100613          	li	a2,1
   18df4:	03361613          	slli	a2,a2,0x33
   18df8:	00c9f633          	and	a2,s3,a2
   18dfc:	00000913          	li	s2,0
   18e00:	bc078063          	beqz	a5,181c0 <__addtf3+0x12c>
   18e04:	00100713          	li	a4,1
   18e08:	00070693          	mv	a3,a4
   18e0c:	bc061663          	bnez	a2,181d8 <__addtf3+0x144>
   18e10:	f48ff06f          	j	18558 <__addtf3+0x4c4>
   18e14:	1b090863          	beq	s2,a6,18fc4 <__addtf3+0xf30>
   18e18:	b30886e3          	beq	a7,a6,18944 <__addtf3+0x8b0>
   18e1c:	00f5e6b3          	or	a3,a1,a5
   18e20:	18049e63          	bnez	s1,18fbc <__addtf3+0xf28>
   18e24:	00361e93          	slli	t4,a2,0x3
   18e28:	03d59793          	slli	a5,a1,0x3d
   18e2c:	003ede93          	srli	t4,t4,0x3
   18e30:	00feeeb3          	or	t4,t4,a5
   18e34:	0035d793          	srli	a5,a1,0x3
   18e38:	8a1ff06f          	j	186d8 <__addtf3+0x644>
   18e3c:	ea0a0ce3          	beqz	s4,18cf4 <__addtf3+0xc60>
   18e40:	00300793          	li	a5,3
   18e44:	0afa0c63          	beq	s4,a5,18efc <__addtf3+0xe68>
   18e48:	00200793          	li	a5,2
   18e4c:	00500713          	li	a4,5
   18e50:	8efa1ce3          	bne	s4,a5,18748 <__addtf3+0x6b4>
   18e54:	e39ff06f          	j	18c8c <__addtf3+0xbf8>
   18e58:	fc07069b          	addiw	a3,a4,-64
   18e5c:	04000613          	li	a2,64
   18e60:	00de56b3          	srl	a3,t3,a3
   18e64:	00c70a63          	beq	a4,a2,18e78 <__addtf3+0xde4>
   18e68:	08000613          	li	a2,128
   18e6c:	40e6073b          	subw	a4,a2,a4
   18e70:	00ee1733          	sll	a4,t3,a4
   18e74:	00e36333          	or	t1,t1,a4
   18e78:	00603733          	snez	a4,t1
   18e7c:	00d76733          	or	a4,a4,a3
   18e80:	bb5ff06f          	j	18a34 <__addtf3+0x9a0>
   18e84:	00000413          	li	s0,0
   18e88:	eccff06f          	j	18554 <__addtf3+0x4c0>
   18e8c:	04000693          	li	a3,64
   18e90:	40e686bb          	subw	a3,a3,a4
   18e94:	00000613          	li	a2,0
   18e98:	d2cff06f          	j	183c4 <__addtf3+0x330>
   18e9c:	00f307b3          	add	a5,t1,a5
   18ea0:	0067b333          	sltu	t1,a5,t1
   18ea4:	00be05b3          	add	a1,t3,a1
   18ea8:	006589b3          	add	s3,a1,t1
   18eac:	00078493          	mv	s1,a5
   18eb0:	00c99793          	slli	a5,s3,0xc
   18eb4:	00088913          	mv	s2,a7
   18eb8:	c407c063          	bltz	a5,182f8 <__addtf3+0x264>
   18ebc:	e9cff06f          	j	18558 <__addtf3+0x4c4>
   18ec0:	12049263          	bnez	s1,18fe4 <__addtf3+0xf50>
   18ec4:	c72894e3          	bne	a7,s2,18b2c <__addtf3+0xa98>
   18ec8:	1c0e8e63          	beqz	t4,190a4 <__addtf3+0x1010>
   18ecc:	00d59793          	slli	a5,a1,0xd
   18ed0:	1a07c263          	bltz	a5,19074 <__addtf3+0xfe0>
   18ed4:	01000713          	li	a4,16
   18ed8:	c59ff06f          	j	18b30 <__addtf3+0xa9c>
   18edc:	00088913          	mv	s2,a7
   18ee0:	00068413          	mv	s0,a3
   18ee4:	c94ff06f          	j	18378 <__addtf3+0x2e4>
   18ee8:	00e667b3          	or	a5,a2,a4
   18eec:	960786e3          	beqz	a5,18858 <__addtf3+0x7c4>
   18ef0:	00070e13          	mv	t3,a4
   18ef4:	00060313          	mv	t1,a2
   18ef8:	d69ff06f          	j	18c60 <__addtf3+0xbcc>
   18efc:	00500713          	li	a4,5
   18f00:	d80408e3          	beqz	s0,18c90 <__addtf3+0xbfc>
   18f04:	84dff06f          	j	18750 <__addtf3+0x6bc>
   18f08:	ff873713          	sltiu	a4,a4,-8
   18f0c:	00174713          	xori	a4,a4,1
   18f10:	00f707b3          	add	a5,a4,a5
   18f14:	0347d793          	srli	a5,a5,0x34
   18f18:	0017f793          	andi	a5,a5,1
   18f1c:	0074f693          	andi	a3,s1,7
   18f20:	0017c713          	xori	a4,a5,1
   18f24:	00000913          	li	s2,0
   18f28:	fc069e63          	bnez	a3,18704 <__addtf3+0x670>
   18f2c:	d0cff06f          	j	18438 <__addtf3+0x3a4>
   18f30:	ff873713          	sltiu	a4,a4,-8
   18f34:	00174713          	xori	a4,a4,1
   18f38:	00100693          	li	a3,1
   18f3c:	00f707b3          	add	a5,a4,a5
   18f40:	03469713          	slli	a4,a3,0x34
   18f44:	00e7f7b3          	and	a5,a5,a4
   18f48:	0074f693          	andi	a3,s1,7
   18f4c:	0017b713          	seqz	a4,a5
   18f50:	00000913          	li	s2,0
   18f54:	820690e3          	bnez	a3,18774 <__addtf3+0x6e0>
   18f58:	00100613          	li	a2,1
   18f5c:	03361613          	slli	a2,a2,0x33
   18f60:	00c9f633          	and	a2,s3,a2
   18f64:	ce079463          	bnez	a5,1844c <__addtf3+0x3b8>
   18f68:	00300713          	li	a4,3
   18f6c:	a58ff06f          	j	181c4 <__addtf3+0x130>
   18f70:	00028913          	mv	s2,t0
   18f74:	800410e3          	bnez	s0,18774 <__addtf3+0x6e0>
   18f78:	ddcff06f          	j	18554 <__addtf3+0x4c0>
   18f7c:	080e9e63          	bnez	t4,19018 <__addtf3+0xf84>
   18f80:	c0049ae3          	bnez	s1,18b94 <__addtf3+0xb00>
   18f84:	00100993          	li	s3,1
   18f88:	00088913          	mv	s2,a7
   18f8c:	03299993          	slli	s3,s3,0x32
   18f90:	00000413          	li	s0,0
   18f94:	01000713          	li	a4,16
   18f98:	dc0ff06f          	j	18558 <__addtf3+0x4c4>
   18f9c:	00f5e6b3          	or	a3,a1,a5
   18fa0:	01000713          	li	a4,16
   18fa4:	01289c63          	bne	a7,s2,18fbc <__addtf3+0xf28>
   18fa8:	01000713          	li	a4,16
   18fac:	be0684e3          	beqz	a3,18b94 <__addtf3+0xb00>
   18fb0:	00d59793          	slli	a5,a1,0xd
   18fb4:	01000713          	li	a4,16
   18fb8:	f207c463          	bltz	a5,186e0 <__addtf3+0x64c>
   18fbc:	f2069263          	bnez	a3,186e0 <__addtf3+0x64c>
   18fc0:	bd5ff06f          	j	18b94 <__addtf3+0xb00>
   18fc4:	08049463          	bnez	s1,1904c <__addtf3+0xfb8>
   18fc8:	0f288863          	beq	a7,s2,190b8 <__addtf3+0x1024>
   18fcc:	003f5793          	srli	a5,t5,0x3
   18fd0:	00f677b3          	and	a5,a2,a5
   18fd4:	03d59e93          	slli	t4,a1,0x3d
   18fd8:	00feeeb3          	or	t4,t4,a5
   18fdc:	0035d793          	srli	a5,a1,0x3
   18fe0:	ef8ff06f          	j	186d8 <__addtf3+0x644>
   18fe4:	00de1793          	slli	a5,t3,0xd
   18fe8:	0407c263          	bltz	a5,1902c <__addtf3+0xf98>
   18fec:	01000713          	li	a4,16
   18ff0:	bb2890e3          	bne	a7,s2,18b90 <__addtf3+0xafc>
   18ff4:	ba0e80e3          	beqz	t4,18b94 <__addtf3+0xb00>
   18ff8:	00d59793          	slli	a5,a1,0xd
   18ffc:	ba07d8e3          	bgez	a5,18bac <__addtf3+0xb18>
   19000:	0ffff5b7          	lui	a1,0xffff
   19004:	02359593          	slli	a1,a1,0x23
   19008:	00000513          	li	a0,0
   1900c:	01000713          	li	a4,16
   19010:	00172073          	csrs	fflags,a4
   19014:	e90ff06f          	j	186a4 <__addtf3+0x610>
   19018:	00d59793          	slli	a5,a1,0xd
   1901c:	0407ca63          	bltz	a5,19070 <__addtf3+0xfdc>
   19020:	01000713          	li	a4,16
   19024:	ea049e63          	bnez	s1,186e0 <__addtf3+0x64c>
   19028:	b09ff06f          	j	18b30 <__addtf3+0xa9c>
   1902c:	b72892e3          	bne	a7,s2,18b90 <__addtf3+0xafc>
   19030:	b60e82e3          	beqz	t4,18b94 <__addtf3+0xb00>
   19034:	00d59793          	slli	a5,a1,0xd
   19038:	b607dae3          	bgez	a5,18bac <__addtf3+0xb18>
   1903c:	0ffff5b7          	lui	a1,0xffff
   19040:	02359593          	slli	a1,a1,0x23
   19044:	00000513          	li	a0,0
   19048:	9e0ff06f          	j	18228 <__addtf3+0x194>
   1904c:	00de1693          	slli	a3,t3,0xd
   19050:	f406d6e3          	bgez	a3,18f9c <__addtf3+0xf08>
   19054:	00f5e6b3          	or	a3,a1,a5
   19058:	f72892e3          	bne	a7,s2,18fbc <__addtf3+0xf28>
   1905c:	06069a63          	bnez	a3,190d0 <__addtf3+0x103c>
   19060:	00088913          	mv	s2,a7
   19064:	000e0993          	mv	s3,t3
   19068:	00030493          	mv	s1,t1
   1906c:	cecff06f          	j	18558 <__addtf3+0x4c4>
   19070:	fc0496e3          	bnez	s1,1903c <__addtf3+0xfa8>
   19074:	000087b7          	lui	a5,0x8
   19078:	00100593          	li	a1,1
   1907c:	fff78793          	addi	a5,a5,-1 # 7fff <exit-0x8159>
   19080:	02f59593          	slli	a1,a1,0x2f
   19084:	00000413          	li	s0,0
   19088:	980ff06f          	j	18208 <__addtf3+0x174>
   1908c:	00d59693          	slli	a3,a1,0xd
   19090:	0006d663          	bgez	a3,1909c <__addtf3+0x1008>
   19094:	e4049663          	bnez	s1,186e0 <__addtf3+0x64c>
   19098:	fddff06f          	j	19074 <__addtf3+0xfe0>
   1909c:	01000713          	li	a4,16
   190a0:	d7dff06f          	j	18e1c <__addtf3+0xd88>
   190a4:	00100993          	li	s3,1
   190a8:	03299993          	slli	s3,s3,0x32
   190ac:	00000413          	li	s0,0
   190b0:	01000713          	li	a4,16
   190b4:	ca4ff06f          	j	18558 <__addtf3+0x4c4>
   190b8:	00f5e7b3          	or	a5,a1,a5
   190bc:	88078ae3          	beqz	a5,18950 <__addtf3+0x8bc>
   190c0:	00d59793          	slli	a5,a1,0xd
   190c4:	fa07c8e3          	bltz	a5,19074 <__addtf3+0xfe0>
   190c8:	01000713          	li	a4,16
   190cc:	d59ff06f          	j	18e24 <__addtf3+0xd90>
   190d0:	00d59793          	slli	a5,a1,0xd
   190d4:	f207d6e3          	bgez	a5,19000 <__addtf3+0xf6c>
   190d8:	f65ff06f          	j	1903c <__addtf3+0xfa8>
   190dc:	0037d793          	srli	a5,a5,0x3
   190e0:	03d59493          	slli	s1,a1,0x3d
   190e4:	0097e4b3          	or	s1,a5,s1
   190e8:	00068413          	mv	s0,a3
   190ec:	0035d793          	srli	a5,a1,0x3
   190f0:	00000913          	li	s2,0
   190f4:	c80ff06f          	j	18574 <__addtf3+0x4e0>
   190f8:	00028913          	mv	s2,t0
   190fc:	c5cff06f          	j	18558 <__addtf3+0x4c4>
   19100:	0017b713          	seqz	a4,a5
   19104:	b34ff06f          	j	18438 <__addtf3+0x3a4>
   19108:	00100613          	li	a2,1
   1910c:	03361613          	slli	a2,a2,0x33
   19110:	00040693          	mv	a3,s0
   19114:	00048793          	mv	a5,s1
   19118:	00c9f633          	and	a2,s3,a2
   1911c:	00098593          	mv	a1,s3
   19120:	00000713          	li	a4,0
   19124:	b38ff06f          	j	1845c <__addtf3+0x3c8>
   19128:	00048e93          	mv	t4,s1
   1912c:	dacff06f          	j	186d8 <__addtf3+0x644>

0000000000019130 <__eqtf2>:
   19130:	00050313          	mv	t1,a0
   19134:	002027f3          	frrm	a5
   19138:	000087b7          	lui	a5,0x8
   1913c:	0305d713          	srli	a4,a1,0x30
   19140:	fff78793          	addi	a5,a5,-1 # 7fff <exit-0x8159>
   19144:	fff00e13          	li	t3,-1
   19148:	0306d893          	srli	a7,a3,0x30
   1914c:	010e5813          	srli	a6,t3,0x10
   19150:	00f77733          	and	a4,a4,a5
   19154:	0105feb3          	and	t4,a1,a6
   19158:	00f8f8b3          	and	a7,a7,a5
   1915c:	0106f833          	and	a6,a3,a6
   19160:	03f5d593          	srli	a1,a1,0x3f
   19164:	03f6d693          	srli	a3,a3,0x3f
   19168:	02f70e63          	beq	a4,a5,191a4 <__eqtf2+0x74>
   1916c:	00f88a63          	beq	a7,a5,19180 <__eqtf2+0x50>
   19170:	00100513          	li	a0,1
   19174:	01171463          	bne	a4,a7,1917c <__eqtf2+0x4c>
   19178:	070e8663          	beq	t4,a6,191e4 <__eqtf2+0xb4>
   1917c:	00008067          	ret
   19180:	01066633          	or	a2,a2,a6
   19184:	00060c63          	beqz	a2,1919c <__eqtf2+0x6c>
   19188:	fff00793          	li	a5,-1
   1918c:	0117d793          	srli	a5,a5,0x11
   19190:	00100513          	li	a0,1
   19194:	ff07e4e3          	bltu	a5,a6,1917c <__eqtf2+0x4c>
   19198:	00186073          	csrsi	fflags,16
   1919c:	00100513          	li	a0,1
   191a0:	00008067          	ret
   191a4:	01d56533          	or	a0,a0,t4
   191a8:	02051063          	bnez	a0,191c8 <__eqtf2+0x98>
   191ac:	00100513          	li	a0,1
   191b0:	fce896e3          	bne	a7,a4,1917c <__eqtf2+0x4c>
   191b4:	01066633          	or	a2,a2,a6
   191b8:	fc0618e3          	bnez	a2,19188 <__eqtf2+0x58>
   191bc:	40d585b3          	sub	a1,a1,a3
   191c0:	00b03533          	snez	a0,a1
   191c4:	00008067          	ret
   191c8:	011e5e13          	srli	t3,t3,0x11
   191cc:	fdde76e3          	bgeu	t3,t4,19198 <__eqtf2+0x68>
   191d0:	00100513          	li	a0,1
   191d4:	fae894e3          	bne	a7,a4,1917c <__eqtf2+0x4c>
   191d8:	01066633          	or	a2,a2,a6
   191dc:	fa0616e3          	bnez	a2,19188 <__eqtf2+0x58>
   191e0:	00008067          	ret
   191e4:	f8661ce3          	bne	a2,t1,1917c <__eqtf2+0x4c>
   191e8:	00d58a63          	beq	a1,a3,191fc <__eqtf2+0xcc>
   191ec:	f80718e3          	bnez	a4,1917c <__eqtf2+0x4c>
   191f0:	01d66633          	or	a2,a2,t4
   191f4:	00c03533          	snez	a0,a2
   191f8:	00008067          	ret
   191fc:	00000513          	li	a0,0
   19200:	00008067          	ret

0000000000019204 <__multf3>:
   19204:	fa010113          	addi	sp,sp,-96
   19208:	04813823          	sd	s0,80(sp)
   1920c:	01713c23          	sd	s7,24(sp)
   19210:	01813823          	sd	s8,16(sp)
   19214:	04113c23          	sd	ra,88(sp)
   19218:	04913423          	sd	s1,72(sp)
   1921c:	05213023          	sd	s2,64(sp)
   19220:	03313c23          	sd	s3,56(sp)
   19224:	03413823          	sd	s4,48(sp)
   19228:	03513423          	sd	s5,40(sp)
   1922c:	03613023          	sd	s6,32(sp)
   19230:	01913423          	sd	s9,8(sp)
   19234:	01a13023          	sd	s10,0(sp)
   19238:	00060b93          	mv	s7,a2
   1923c:	00068413          	mv	s0,a3
   19240:	00050c13          	mv	s8,a0
   19244:	00202a73          	frrm	s4
   19248:	00008737          	lui	a4,0x8
   1924c:	0305d793          	srli	a5,a1,0x30
   19250:	fff70713          	addi	a4,a4,-1 # 7fff <exit-0x8159>
   19254:	01059913          	slli	s2,a1,0x10
   19258:	00e7f7b3          	and	a5,a5,a4
   1925c:	000a0a1b          	sext.w	s4,s4
   19260:	01095913          	srli	s2,s2,0x10
   19264:	03f5d493          	srli	s1,a1,0x3f
   19268:	48078063          	beqz	a5,196e8 <__multf3+0x4e4>
   1926c:	00078b1b          	sext.w	s6,a5
   19270:	30e78863          	beq	a5,a4,19580 <__multf3+0x37c>
   19274:	00391913          	slli	s2,s2,0x3
   19278:	03d55693          	srli	a3,a0,0x3d
   1927c:	00100713          	li	a4,1
   19280:	ffffcb37          	lui	s6,0xffffc
   19284:	0126e933          	or	s2,a3,s2
   19288:	03371713          	slli	a4,a4,0x33
   1928c:	001b0b13          	addi	s6,s6,1 # ffffffffffffc001 <__BSS_END__+0xfffffffffffdc3a1>
   19290:	00351a93          	slli	s5,a0,0x3
   19294:	00e96933          	or	s2,s2,a4
   19298:	01678b33          	add	s6,a5,s6
   1929c:	00000c93          	li	s9,0
   192a0:	00000d13          	li	s10,0
   192a4:	00000993          	li	s3,0
   192a8:	00008737          	lui	a4,0x8
   192ac:	03045793          	srli	a5,s0,0x30
   192b0:	fff70713          	addi	a4,a4,-1 # 7fff <exit-0x8159>
   192b4:	fff00593          	li	a1,-1
   192b8:	0105d813          	srli	a6,a1,0x10
   192bc:	00e7f7b3          	and	a5,a5,a4
   192c0:	01047c33          	and	s8,s0,a6
   192c4:	03f45413          	srli	s0,s0,0x3f
   192c8:	3a078c63          	beqz	a5,19680 <__multf3+0x47c>
   192cc:	0007869b          	sext.w	a3,a5
   192d0:	36e78c63          	beq	a5,a4,19648 <__multf3+0x444>
   192d4:	ffffc737          	lui	a4,0xffffc
   192d8:	00170713          	addi	a4,a4,1 # ffffffffffffc001 <__BSS_END__+0xfffffffffffdc3a1>
   192dc:	00e787b3          	add	a5,a5,a4
   192e0:	00a00713          	li	a4,10
   192e4:	00fb0b33          	add	s6,s6,a5
   192e8:	2b974a63          	blt	a4,s9,1959c <__multf3+0x398>
   192ec:	003c1813          	slli	a6,s8,0x3
   192f0:	03dbd693          	srli	a3,s7,0x3d
   192f4:	00100793          	li	a5,1
   192f8:	0106e6b3          	or	a3,a3,a6
   192fc:	0084c733          	xor	a4,s1,s0
   19300:	03379793          	slli	a5,a5,0x33
   19304:	00200613          	li	a2,2
   19308:	00f6ec33          	or	s8,a3,a5
   1930c:	003b9813          	slli	a6,s7,0x3
   19310:	00070593          	mv	a1,a4
   19314:	00000693          	li	a3,0
   19318:	03965263          	bge	a2,s9,1933c <__multf3+0x138>
   1931c:	00100793          	li	a5,1
   19320:	019797b3          	sll	a5,a5,s9
   19324:	5307f613          	andi	a2,a5,1328
   19328:	26061c63          	bnez	a2,195a0 <__multf3+0x39c>
   1932c:	2407f613          	andi	a2,a5,576
   19330:	52061e63          	bnez	a2,1986c <__multf3+0x668>
   19334:	0887f793          	andi	a5,a5,136
   19338:	54079863          	bnez	a5,19888 <__multf3+0x684>
   1933c:	02081613          	slli	a2,a6,0x20
   19340:	020a9793          	slli	a5,s5,0x20
   19344:	02085893          	srli	a7,a6,0x20
   19348:	0207d793          	srli	a5,a5,0x20
   1934c:	02065613          	srli	a2,a2,0x20
   19350:	020ad313          	srli	t1,s5,0x20
   19354:	02f603b3          	mul	t2,a2,a5
   19358:	015906b3          	add	a3,s2,s5
   1935c:	010c0833          	add	a6,s8,a6
   19360:	0126bf33          	sltu	t5,a3,s2
   19364:	018832b3          	sltu	t0,a6,s8
   19368:	02c30633          	mul	a2,t1,a2
   1936c:	0203d513          	srli	a0,t2,0x20
   19370:	02f887b3          	mul	a5,a7,a5
   19374:	00c787b3          	add	a5,a5,a2
   19378:	00f50533          	add	a0,a0,a5
   1937c:	03130433          	mul	s0,t1,a7
   19380:	00c57863          	bgeu	a0,a2,19390 <__multf3+0x18c>
   19384:	00100793          	li	a5,1
   19388:	02079793          	slli	a5,a5,0x20
   1938c:	00f40433          	add	s0,s0,a5
   19390:	02069893          	slli	a7,a3,0x20
   19394:	02081613          	slli	a2,a6,0x20
   19398:	0208d893          	srli	a7,a7,0x20
   1939c:	02065613          	srli	a2,a2,0x20
   193a0:	0206df93          	srli	t6,a3,0x20
   193a4:	02085e93          	srli	t4,a6,0x20
   193a8:	03160e33          	mul	t3,a2,a7
   193ac:	02039793          	slli	a5,t2,0x20
   193b0:	0207d793          	srli	a5,a5,0x20
   193b4:	02051313          	slli	t1,a0,0x20
   193b8:	00f30333          	add	t1,t1,a5
   193bc:	02055513          	srli	a0,a0,0x20
   193c0:	00850533          	add	a0,a0,s0
   193c4:	02cf8633          	mul	a2,t6,a2
   193c8:	020e5793          	srli	a5,t3,0x20
   193cc:	031e88b3          	mul	a7,t4,a7
   193d0:	00c888b3          	add	a7,a7,a2
   193d4:	011787b3          	add	a5,a5,a7
   193d8:	03df8fb3          	mul	t6,t6,t4
   193dc:	00c7f863          	bgeu	a5,a2,193ec <__multf3+0x1e8>
   193e0:	00100613          	li	a2,1
   193e4:	02061613          	slli	a2,a2,0x20
   193e8:	00cf8fb3          	add	t6,t6,a2
   193ec:	02091893          	slli	a7,s2,0x20
   193f0:	020c1e93          	slli	t4,s8,0x20
   193f4:	0208d893          	srli	a7,a7,0x20
   193f8:	020ede93          	srli	t4,t4,0x20
   193fc:	02095913          	srli	s2,s2,0x20
   19400:	020c5c13          	srli	s8,s8,0x20
   19404:	031e83b3          	mul	t2,t4,a7
   19408:	020e1e13          	slli	t3,t3,0x20
   1940c:	020e5e13          	srli	t3,t3,0x20
   19410:	02079613          	slli	a2,a5,0x20
   19414:	01c60633          	add	a2,a2,t3
   19418:	0207d793          	srli	a5,a5,0x20
   1941c:	03d90eb3          	mul	t4,s2,t4
   19420:	0203de13          	srli	t3,t2,0x20
   19424:	031c08b3          	mul	a7,s8,a7
   19428:	01d888b3          	add	a7,a7,t4
   1942c:	011e0e33          	add	t3,t3,a7
   19430:	03890933          	mul	s2,s2,s8
   19434:	01de7863          	bgeu	t3,t4,19444 <__multf3+0x240>
   19438:	00100893          	li	a7,1
   1943c:	02089893          	slli	a7,a7,0x20
   19440:	01190933          	add	s2,s2,a7
   19444:	00a60eb3          	add	t4,a2,a0
   19448:	00ceb633          	sltu	a2,t4,a2
   1944c:	405008b3          	neg	a7,t0
   19450:	00c787b3          	add	a5,a5,a2
   19454:	01f787b3          	add	a5,a5,t6
   19458:	0116f6b3          	and	a3,a3,a7
   1945c:	41e008b3          	neg	a7,t5
   19460:	00c7b633          	sltu	a2,a5,a2
   19464:	005f7f33          	and	t5,t5,t0
   19468:	00d786b3          	add	a3,a5,a3
   1946c:	01187833          	and	a6,a6,a7
   19470:	02039f93          	slli	t6,t2,0x20
   19474:	01e608b3          	add	a7,a2,t5
   19478:	00f6b633          	sltu	a2,a3,a5
   1947c:	406e8f33          	sub	t5,t4,t1
   19480:	00d806b3          	add	a3,a6,a3
   19484:	01160633          	add	a2,a2,a7
   19488:	020fdf93          	srli	t6,t6,0x20
   1948c:	020e1793          	slli	a5,t3,0x20
   19490:	40a688b3          	sub	a7,a3,a0
   19494:	020e5e13          	srli	t3,t3,0x20
   19498:	0106b833          	sltu	a6,a3,a6
   1949c:	01eeb2b3          	sltu	t0,t4,t5
   194a0:	01f787b3          	add	a5,a5,t6
   194a4:	00c80833          	add	a6,a6,a2
   194a8:	012e0e33          	add	t3,t3,s2
   194ac:	0116bfb3          	sltu	t6,a3,a7
   194b0:	40588633          	sub	a2,a7,t0
   194b4:	01eef863          	bgeu	t4,t5,194c4 <__multf3+0x2c0>
   194b8:	40d50533          	sub	a0,a0,a3
   194bc:	00153513          	seqz	a0,a0
   194c0:	01f56fb3          	or	t6,a0,t6
   194c4:	40ff0533          	sub	a0,t5,a5
   194c8:	41c606b3          	sub	a3,a2,t3
   194cc:	00af38b3          	sltu	a7,t5,a0
   194d0:	01c80833          	add	a6,a6,t3
   194d4:	00d63633          	sltu	a2,a2,a3
   194d8:	411788b3          	sub	a7,a5,a7
   194dc:	00af7663          	bgeu	t5,a0,194e8 <__multf3+0x2e4>
   194e0:	0016be13          	seqz	t3,a3
   194e4:	00ce6633          	or	a2,t3,a2
   194e8:	011686b3          	add	a3,a3,a7
   194ec:	00f6b7b3          	sltu	a5,a3,a5
   194f0:	00d51a93          	slli	s5,a0,0xd
   194f4:	010787b3          	add	a5,a5,a6
   194f8:	41f787b3          	sub	a5,a5,t6
   194fc:	006aeab3          	or	s5,s5,t1
   19500:	40c787b3          	sub	a5,a5,a2
   19504:	01503ab3          	snez	s5,s5
   19508:	03355513          	srli	a0,a0,0x33
   1950c:	00d79793          	slli	a5,a5,0xd
   19510:	0336d913          	srli	s2,a3,0x33
   19514:	00aaeab3          	or	s5,s5,a0
   19518:	00d69693          	slli	a3,a3,0xd
   1951c:	00daeab3          	or	s5,s5,a3
   19520:	00b79693          	slli	a3,a5,0xb
   19524:	0127e933          	or	s2,a5,s2
   19528:	5006c463          	bltz	a3,19a30 <__multf3+0x82c>
   1952c:	000047b7          	lui	a5,0x4
   19530:	fff78793          	addi	a5,a5,-1 # 3fff <exit-0xc159>
   19534:	00fb07b3          	add	a5,s6,a5
   19538:	36f05263          	blez	a5,1989c <__multf3+0x698>
   1953c:	007af693          	andi	a3,s5,7
   19540:	0a068c63          	beqz	a3,195f8 <__multf3+0x3f4>
   19544:	00200693          	li	a3,2
   19548:	0019e993          	ori	s3,s3,1
   1954c:	76da0c63          	beq	s4,a3,19cc4 <__multf3+0xac0>
   19550:	00300693          	li	a3,3
   19554:	7cda0263          	beq	s4,a3,19d18 <__multf3+0xb14>
   19558:	0e0a18e3          	bnez	s4,19e48 <__multf3+0xc44>
   1955c:	00faf693          	andi	a3,s5,15
   19560:	00400613          	li	a2,4
   19564:	000b0813          	mv	a6,s6
   19568:	08c68863          	beq	a3,a2,195f8 <__multf3+0x3f4>
   1956c:	004a8693          	addi	a3,s5,4
   19570:	0156bab3          	sltu	s5,a3,s5
   19574:	01590933          	add	s2,s2,s5
   19578:	00068a93          	mv	s5,a3
   1957c:	05c0006f          	j	195d8 <__multf3+0x3d4>
   19580:	01256ab3          	or	s5,a0,s2
   19584:	240a9463          	bnez	s5,197cc <__multf3+0x5c8>
   19588:	00000913          	li	s2,0
   1958c:	00800c93          	li	s9,8
   19590:	00200d13          	li	s10,2
   19594:	00000993          	li	s3,0
   19598:	d11ff06f          	j	192a8 <__multf3+0xa4>
   1959c:	00048593          	mv	a1,s1
   195a0:	00200793          	li	a5,2
   195a4:	3afd0263          	beq	s10,a5,19948 <__multf3+0x744>
   195a8:	00300793          	li	a5,3
   195ac:	2afd0263          	beq	s10,a5,19850 <__multf3+0x64c>
   195b0:	00100793          	li	a5,1
   195b4:	22fd0c63          	beq	s10,a5,197ec <__multf3+0x5e8>
   195b8:	000047b7          	lui	a5,0x4
   195bc:	00fb07b3          	add	a5,s6,a5
   195c0:	00058713          	mv	a4,a1
   195c4:	2cf05c63          	blez	a5,1989c <__multf3+0x698>
   195c8:	007af713          	andi	a4,s5,7
   195cc:	001b0813          	addi	a6,s6,1
   195d0:	38071863          	bnez	a4,19960 <__multf3+0x75c>
   195d4:	00058713          	mv	a4,a1
   195d8:	00b91693          	slli	a3,s2,0xb
   195dc:	0006de63          	bgez	a3,195f8 <__multf3+0x3f4>
   195e0:	fff00693          	li	a3,-1
   195e4:	03469693          	slli	a3,a3,0x34
   195e8:	fff68693          	addi	a3,a3,-1
   195ec:	000047b7          	lui	a5,0x4
   195f0:	00d97933          	and	s2,s2,a3
   195f4:	00f807b3          	add	a5,a6,a5
   195f8:	00008637          	lui	a2,0x8
   195fc:	ffe60613          	addi	a2,a2,-2 # 7ffe <exit-0x815a>
   19600:	000086b7          	lui	a3,0x8
   19604:	3af65063          	bge	a2,a5,199a4 <__multf3+0x7a0>
   19608:	00200793          	li	a5,2
   1960c:	5efa0c63          	beq	s4,a5,19c04 <__multf3+0xa00>
   19610:	00300793          	li	a5,3
   19614:	5cfa0c63          	beq	s4,a5,19bec <__multf3+0x9e8>
   19618:	5c0a0c63          	beqz	s4,19bf0 <__multf3+0x9ec>
   1961c:	000087b7          	lui	a5,0x8
   19620:	fff00513          	li	a0,-1
   19624:	ffe78793          	addi	a5,a5,-2 # 7ffe <exit-0x815a>
   19628:	01055593          	srli	a1,a0,0x10
   1962c:	00f7171b          	slliw	a4,a4,0xf
   19630:	00e7e7b3          	or	a5,a5,a4
   19634:	03079793          	slli	a5,a5,0x30
   19638:	00f5e5b3          	or	a1,a1,a5
   1963c:	0059e993          	ori	s3,s3,5
   19640:	0019a073          	csrs	fflags,s3
   19644:	1d40006f          	j	19818 <__multf3+0x614>
   19648:	018be833          	or	a6,s7,s8
   1964c:	00db0b33          	add	s6,s6,a3
   19650:	14081463          	bnez	a6,19798 <__multf3+0x594>
   19654:	002ce793          	ori	a5,s9,2
   19658:	00a00713          	li	a4,10
   1965c:	f4f740e3          	blt	a4,a5,1959c <__multf3+0x398>
   19660:	0084c5b3          	xor	a1,s1,s0
   19664:	00058713          	mv	a4,a1
   19668:	00200693          	li	a3,2
   1966c:	100c8663          	beqz	s9,19778 <__multf3+0x574>
   19670:	00078c93          	mv	s9,a5
   19674:	00000c13          	li	s8,0
   19678:	00200693          	li	a3,2
   1967c:	ca1ff06f          	j	1931c <__multf3+0x118>
   19680:	018be833          	or	a6,s7,s8
   19684:	0c080863          	beqz	a6,19754 <__multf3+0x550>
   19688:	380c0063          	beqz	s8,19a08 <__multf3+0x804>
   1968c:	000c0513          	mv	a0,s8
   19690:	6c9010ef          	jal	1b558 <__clzdi2>
   19694:	0005051b          	sext.w	a0,a0
   19698:	ff150813          	addi	a6,a0,-15
   1969c:	03d00713          	li	a4,61
   196a0:	4107073b          	subw	a4,a4,a6
   196a4:	0038079b          	addiw	a5,a6,3 # 8003 <exit-0x8155>
   196a8:	00fc1833          	sll	a6,s8,a5
   196ac:	00ebd733          	srl	a4,s7,a4
   196b0:	01076c33          	or	s8,a4,a6
   196b4:	00fb9833          	sll	a6,s7,a5
   196b8:	ffffc7b7          	lui	a5,0xffffc
   196bc:	01178793          	addi	a5,a5,17 # ffffffffffffc011 <__BSS_END__+0xfffffffffffdc3b1>
   196c0:	40a787b3          	sub	a5,a5,a0
   196c4:	00a00713          	li	a4,10
   196c8:	00fb0b33          	add	s6,s6,a5
   196cc:	ed9748e3          	blt	a4,s9,1959c <__multf3+0x398>
   196d0:	0084c733          	xor	a4,s1,s0
   196d4:	00200793          	li	a5,2
   196d8:	00070593          	mv	a1,a4
   196dc:	00000693          	li	a3,0
   196e0:	c397cee3          	blt	a5,s9,1931c <__multf3+0x118>
   196e4:	c59ff06f          	j	1933c <__multf3+0x138>
   196e8:	01256ab3          	or	s5,a0,s2
   196ec:	040a8863          	beqz	s5,1973c <__multf3+0x538>
   196f0:	2e090a63          	beqz	s2,199e4 <__multf3+0x7e0>
   196f4:	00090513          	mv	a0,s2
   196f8:	661010ef          	jal	1b558 <__clzdi2>
   196fc:	0005051b          	sext.w	a0,a0
   19700:	ff150a93          	addi	s5,a0,-15
   19704:	03d00793          	li	a5,61
   19708:	415787bb          	subw	a5,a5,s5
   1970c:	003a8a9b          	addiw	s5,s5,3
   19710:	01591933          	sll	s2,s2,s5
   19714:	00fc57b3          	srl	a5,s8,a5
   19718:	0127e933          	or	s2,a5,s2
   1971c:	015c1ab3          	sll	s5,s8,s5
   19720:	ffffcb37          	lui	s6,0xffffc
   19724:	011b0b13          	addi	s6,s6,17 # ffffffffffffc011 <__BSS_END__+0xfffffffffffdc3b1>
   19728:	40ab0b33          	sub	s6,s6,a0
   1972c:	00000c93          	li	s9,0
   19730:	00000d13          	li	s10,0
   19734:	00000993          	li	s3,0
   19738:	b71ff06f          	j	192a8 <__multf3+0xa4>
   1973c:	00000913          	li	s2,0
   19740:	00400c93          	li	s9,4
   19744:	00000b13          	li	s6,0
   19748:	00100d13          	li	s10,1
   1974c:	00000993          	li	s3,0
   19750:	b59ff06f          	j	192a8 <__multf3+0xa4>
   19754:	001cec93          	ori	s9,s9,1
   19758:	00a00793          	li	a5,10
   1975c:	e597c0e3          	blt	a5,s9,1959c <__multf3+0x398>
   19760:	0084c5b3          	xor	a1,s1,s0
   19764:	00200793          	li	a5,2
   19768:	00058713          	mv	a4,a1
   1976c:	00000c13          	li	s8,0
   19770:	00100693          	li	a3,1
   19774:	bb97c4e3          	blt	a5,s9,1931c <__multf3+0x118>
   19778:	00200793          	li	a5,2
   1977c:	1cf68663          	beq	a3,a5,19948 <__multf3+0x744>
   19780:	00100d13          	li	s10,1
   19784:	00100793          	li	a5,1
   19788:	00000913          	li	s2,0
   1978c:	00000a93          	li	s5,0
   19790:	e2fd14e3          	bne	s10,a5,195b8 <__multf3+0x3b4>
   19794:	0580006f          	j	197ec <__multf3+0x5e8>
   19798:	0115d593          	srli	a1,a1,0x11
   1979c:	003ce693          	ori	a3,s9,3
   197a0:	00a00713          	li	a4,10
   197a4:	2385e063          	bltu	a1,s8,199c4 <__multf3+0x7c0>
   197a8:	18d74063          	blt	a4,a3,19928 <__multf3+0x724>
   197ac:	0084c733          	xor	a4,s1,s0
   197b0:	00100793          	li	a5,1
   197b4:	00d797b3          	sll	a5,a5,a3
   197b8:	000b8813          	mv	a6,s7
   197bc:	00070593          	mv	a1,a4
   197c0:	00300693          	li	a3,3
   197c4:	01000993          	li	s3,16
   197c8:	b6dff06f          	j	19334 <__multf3+0x130>
   197cc:	00100993          	li	s3,1
   197d0:	02f99993          	slli	s3,s3,0x2f
   197d4:	013939b3          	sltu	s3,s2,s3
   197d8:	00050a93          	mv	s5,a0
   197dc:	0049999b          	slliw	s3,s3,0x4
   197e0:	00c00c93          	li	s9,12
   197e4:	00300d13          	li	s10,3
   197e8:	ac1ff06f          	j	192a8 <__multf3+0xa4>
   197ec:	00058713          	mv	a4,a1
   197f0:	00000793          	li	a5,0
   197f4:	00000593          	li	a1,0
   197f8:	00000513          	li	a0,0
   197fc:	00f7171b          	slliw	a4,a4,0xf
   19800:	00e7e733          	or	a4,a5,a4
   19804:	01059593          	slli	a1,a1,0x10
   19808:	03071713          	slli	a4,a4,0x30
   1980c:	0105d593          	srli	a1,a1,0x10
   19810:	00e5e5b3          	or	a1,a1,a4
   19814:	e20996e3          	bnez	s3,19640 <__multf3+0x43c>
   19818:	05813083          	ld	ra,88(sp)
   1981c:	05013403          	ld	s0,80(sp)
   19820:	04813483          	ld	s1,72(sp)
   19824:	04013903          	ld	s2,64(sp)
   19828:	03813983          	ld	s3,56(sp)
   1982c:	03013a03          	ld	s4,48(sp)
   19830:	02813a83          	ld	s5,40(sp)
   19834:	02013b03          	ld	s6,32(sp)
   19838:	01813b83          	ld	s7,24(sp)
   1983c:	01013c03          	ld	s8,16(sp)
   19840:	00813c83          	ld	s9,8(sp)
   19844:	00013d03          	ld	s10,0(sp)
   19848:	06010113          	addi	sp,sp,96
   1984c:	00008067          	ret
   19850:	000087b7          	lui	a5,0x8
   19854:	00100593          	li	a1,1
   19858:	fff78793          	addi	a5,a5,-1 # 7fff <exit-0x8159>
   1985c:	02f59593          	slli	a1,a1,0x2f
   19860:	00000713          	li	a4,0
   19864:	00000513          	li	a0,0
   19868:	f95ff06f          	j	197fc <__multf3+0x5f8>
   1986c:	00003797          	auipc	a5,0x3
   19870:	28478793          	addi	a5,a5,644 # 1caf0 <states+0x270>
   19874:	0007b503          	ld	a0,0(a5)
   19878:	0087b583          	ld	a1,8(a5)
   1987c:	01000993          	li	s3,16
   19880:	0019a073          	csrs	fflags,s3
   19884:	f95ff06f          	j	19818 <__multf3+0x614>
   19888:	00040593          	mv	a1,s0
   1988c:	000c0913          	mv	s2,s8
   19890:	00080a93          	mv	s5,a6
   19894:	00068d13          	mv	s10,a3
   19898:	d09ff06f          	j	195a0 <__multf3+0x39c>
   1989c:	1c079463          	bnez	a5,19a64 <__multf3+0x860>
   198a0:	007af793          	andi	a5,s5,7
   198a4:	2c078663          	beqz	a5,19b70 <__multf3+0x96c>
   198a8:	00200793          	li	a5,2
   198ac:	0019e993          	ori	s3,s3,1
   198b0:	4afa0663          	beq	s4,a5,19d5c <__multf3+0xb58>
   198b4:	00300793          	li	a5,3
   198b8:	4efa0863          	beq	s4,a5,19da8 <__multf3+0xba4>
   198bc:	2a0a1a63          	bnez	s4,19b70 <__multf3+0x96c>
   198c0:	00faf793          	andi	a5,s5,15
   198c4:	00400693          	li	a3,4
   198c8:	64d78063          	beq	a5,a3,19f08 <__multf3+0xd04>
   198cc:	ffcab613          	sltiu	a2,s5,-4
   198d0:	00164613          	xori	a2,a2,1
   198d4:	01260633          	add	a2,a2,s2
   198d8:	03465613          	srli	a2,a2,0x34
   198dc:	00167613          	andi	a2,a2,1
   198e0:	00164613          	xori	a2,a2,1
   198e4:	03f91593          	slli	a1,s2,0x3f
   198e8:	001ad793          	srli	a5,s5,0x1
   198ec:	00b7e7b3          	or	a5,a5,a1
   198f0:	001af693          	andi	a3,s5,1
   198f4:	00f6e6b3          	or	a3,a3,a5
   198f8:	0076f593          	andi	a1,a3,7
   198fc:	0006061b          	sext.w	a2,a2
   19900:	00195793          	srli	a5,s2,0x1
   19904:	2a058e63          	beqz	a1,19bc0 <__multf3+0x9bc>
   19908:	00f6f593          	andi	a1,a3,15
   1990c:	00400513          	li	a0,4
   19910:	2aa58863          	beq	a1,a0,19bc0 <__multf3+0x9bc>
   19914:	00a685b3          	add	a1,a3,a0
   19918:	00d5b6b3          	sltu	a3,a1,a3
   1991c:	00d787b3          	add	a5,a5,a3
   19920:	00058693          	mv	a3,a1
   19924:	29c0006f          	j	19bc0 <__multf3+0x9bc>
   19928:	00f00713          	li	a4,15
   1992c:	12e69063          	bne	a3,a4,19a4c <__multf3+0x848>
   19930:	0ffff5b7          	lui	a1,0xffff
   19934:	02359593          	slli	a1,a1,0x23
   19938:	00000513          	li	a0,0
   1993c:	01000993          	li	s3,16
   19940:	0019a073          	csrs	fflags,s3
   19944:	ed5ff06f          	j	19818 <__multf3+0x614>
   19948:	000087b7          	lui	a5,0x8
   1994c:	00058713          	mv	a4,a1
   19950:	fff78793          	addi	a5,a5,-1 # 7fff <exit-0x8159>
   19954:	00000593          	li	a1,0
   19958:	00000513          	li	a0,0
   1995c:	ea1ff06f          	j	197fc <__multf3+0x5f8>
   19960:	00200713          	li	a4,2
   19964:	0019e993          	ori	s3,s3,1
   19968:	1aea1663          	bne	s4,a4,19b14 <__multf3+0x910>
   1996c:	36059063          	bnez	a1,19ccc <__multf3+0xac8>
   19970:	00b91713          	slli	a4,s2,0xb
   19974:	2a075263          	bgez	a4,19c18 <__multf3+0xa14>
   19978:	000047b7          	lui	a5,0x4
   1997c:	00178793          	addi	a5,a5,1 # 4001 <exit-0xc157>
   19980:	00008737          	lui	a4,0x8
   19984:	00fb07b3          	add	a5,s6,a5
   19988:	ffe70713          	addi	a4,a4,-2 # 7ffe <exit-0x815a>
   1998c:	28f74c63          	blt	a4,a5,19c24 <__multf3+0xa20>
   19990:	fff00713          	li	a4,-1
   19994:	03471713          	slli	a4,a4,0x34
   19998:	fff70713          	addi	a4,a4,-1
   1999c:	00e97933          	and	s2,s2,a4
   199a0:	00000713          	li	a4,0
   199a4:	003ada93          	srli	s5,s5,0x3
   199a8:	03179793          	slli	a5,a5,0x31
   199ac:	03d91513          	slli	a0,s2,0x3d
   199b0:	00d91593          	slli	a1,s2,0xd
   199b4:	0317d793          	srli	a5,a5,0x31
   199b8:	01556533          	or	a0,a0,s5
   199bc:	0105d593          	srli	a1,a1,0x10
   199c0:	e3dff06f          	j	197fc <__multf3+0x5f8>
   199c4:	26d74463          	blt	a4,a3,19c2c <__multf3+0xa28>
   199c8:	0084c733          	xor	a4,s1,s0
   199cc:	00100793          	li	a5,1
   199d0:	00d797b3          	sll	a5,a5,a3
   199d4:	000b8813          	mv	a6,s7
   199d8:	00070593          	mv	a1,a4
   199dc:	00300693          	li	a3,3
   199e0:	955ff06f          	j	19334 <__multf3+0x130>
   199e4:	375010ef          	jal	1b558 <__clzdi2>
   199e8:	0405051b          	addiw	a0,a0,64
   199ec:	ff150a93          	addi	s5,a0,-15
   199f0:	03c00793          	li	a5,60
   199f4:	d157d8e3          	bge	a5,s5,19704 <__multf3+0x500>
   199f8:	fc3a8a9b          	addiw	s5,s5,-61
   199fc:	015c1933          	sll	s2,s8,s5
   19a00:	00000a93          	li	s5,0
   19a04:	d1dff06f          	j	19720 <__multf3+0x51c>
   19a08:	000b8513          	mv	a0,s7
   19a0c:	34d010ef          	jal	1b558 <__clzdi2>
   19a10:	0405051b          	addiw	a0,a0,64
   19a14:	ff150813          	addi	a6,a0,-15
   19a18:	03c00793          	li	a5,60
   19a1c:	c907d0e3          	bge	a5,a6,1969c <__multf3+0x498>
   19a20:	fc38081b          	addiw	a6,a6,-61
   19a24:	010b9c33          	sll	s8,s7,a6
   19a28:	00000813          	li	a6,0
   19a2c:	c8dff06f          	j	196b8 <__multf3+0x4b4>
   19a30:	001ad793          	srli	a5,s5,0x1
   19a34:	001afa93          	andi	s5,s5,1
   19a38:	0157e7b3          	or	a5,a5,s5
   19a3c:	03f91a93          	slli	s5,s2,0x3f
   19a40:	0157eab3          	or	s5,a5,s5
   19a44:	00195913          	srli	s2,s2,0x1
   19a48:	b71ff06f          	j	195b8 <__multf3+0x3b4>
   19a4c:	00100593          	li	a1,1
   19a50:	02f59593          	slli	a1,a1,0x2f
   19a54:	00000713          	li	a4,0
   19a58:	00000513          	li	a0,0
   19a5c:	01000993          	li	s3,16
   19a60:	d9dff06f          	j	197fc <__multf3+0x5f8>
   19a64:	00100693          	li	a3,1
   19a68:	40f68633          	sub	a2,a3,a5
   19a6c:	07400793          	li	a5,116
   19a70:	0ec7c463          	blt	a5,a2,19b58 <__multf3+0x954>
   19a74:	03f00513          	li	a0,63
   19a78:	0006079b          	sext.w	a5,a2
   19a7c:	4ac55863          	bge	a0,a2,19f2c <__multf3+0xd28>
   19a80:	fc07869b          	addiw	a3,a5,-64
   19a84:	04000513          	li	a0,64
   19a88:	00d956b3          	srl	a3,s2,a3
   19a8c:	00a60a63          	beq	a2,a0,19aa0 <__multf3+0x89c>
   19a90:	08000613          	li	a2,128
   19a94:	40f607bb          	subw	a5,a2,a5
   19a98:	00f917b3          	sll	a5,s2,a5
   19a9c:	00faeab3          	or	s5,s5,a5
   19aa0:	01503533          	snez	a0,s5
   19aa4:	00d56533          	or	a0,a0,a3
   19aa8:	00757793          	andi	a5,a0,7
   19aac:	1e078c63          	beqz	a5,19ca4 <__multf3+0xaa0>
   19ab0:	00200793          	li	a5,2
   19ab4:	0019e993          	ori	s3,s3,1
   19ab8:	40fa0a63          	beq	s4,a5,19ecc <__multf3+0xcc8>
   19abc:	00300793          	li	a5,3
   19ac0:	40fa0e63          	beq	s4,a5,19edc <__multf3+0xcd8>
   19ac4:	320a1063          	bnez	s4,19de4 <__multf3+0xbe0>
   19ac8:	00f57793          	andi	a5,a0,15
   19acc:	00400693          	li	a3,4
   19ad0:	30d78a63          	beq	a5,a3,19de4 <__multf3+0xbe0>
   19ad4:	00d507b3          	add	a5,a0,a3
   19ad8:	00a7b533          	sltu	a0,a5,a0
   19adc:	0037d793          	srli	a5,a5,0x3
   19ae0:	03d51513          	slli	a0,a0,0x3d
   19ae4:	00f56533          	or	a0,a0,a5
   19ae8:	00000593          	li	a1,0
   19aec:	00000793          	li	a5,0
   19af0:	01059593          	slli	a1,a1,0x10
   19af4:	03079793          	slli	a5,a5,0x30
   19af8:	0105d593          	srli	a1,a1,0x10
   19afc:	00f5e5b3          	or	a1,a1,a5
   19b00:	03f71713          	slli	a4,a4,0x3f
   19b04:	00e5e5b3          	or	a1,a1,a4
   19b08:	0029e993          	ori	s3,s3,2
   19b0c:	0019a073          	csrs	fflags,s3
   19b10:	d09ff06f          	j	19818 <__multf3+0x614>
   19b14:	00300713          	li	a4,3
   19b18:	16ea0063          	beq	s4,a4,19c78 <__multf3+0xa74>
   19b1c:	140a0463          	beqz	s4,19c64 <__multf3+0xa60>
   19b20:	00b91693          	slli	a3,s2,0xb
   19b24:	00058713          	mv	a4,a1
   19b28:	2c06d663          	bgez	a3,19df4 <__multf3+0xbf0>
   19b2c:	000047b7          	lui	a5,0x4
   19b30:	00178793          	addi	a5,a5,1 # 4001 <exit-0xc157>
   19b34:	000086b7          	lui	a3,0x8
   19b38:	00fb07b3          	add	a5,s6,a5
   19b3c:	ffe68693          	addi	a3,a3,-2 # 7ffe <exit-0x815a>
   19b40:	acf6c8e3          	blt	a3,a5,19610 <__multf3+0x40c>
   19b44:	fff00693          	li	a3,-1
   19b48:	03469693          	slli	a3,a3,0x34
   19b4c:	fff68693          	addi	a3,a3,-1
   19b50:	00d97933          	and	s2,s2,a3
   19b54:	e51ff06f          	j	199a4 <__multf3+0x7a0>
   19b58:	01596533          	or	a0,s2,s5
   19b5c:	0e051263          	bnez	a0,19c40 <__multf3+0xa3c>
   19b60:	0029e993          	ori	s3,s3,2
   19b64:	03f71593          	slli	a1,a4,0x3f
   19b68:	0019a073          	csrs	fflags,s3
   19b6c:	cadff06f          	j	19818 <__multf3+0x614>
   19b70:	03495693          	srli	a3,s2,0x34
   19b74:	0016f693          	andi	a3,a3,1
   19b78:	0016c613          	xori	a2,a3,1
   19b7c:	03f00513          	li	a0,63
   19b80:	00100793          	li	a5,1
   19b84:	00a916b3          	sll	a3,s2,a0
   19b88:	00aa9533          	sll	a0,s5,a0
   19b8c:	00fadab3          	srl	s5,s5,a5
   19b90:	00a03533          	snez	a0,a0
   19b94:	0156e6b3          	or	a3,a3,s5
   19b98:	00a6e6b3          	or	a3,a3,a0
   19b9c:	0076f513          	andi	a0,a3,7
   19ba0:	00f957b3          	srl	a5,s2,a5
   19ba4:	00050e63          	beqz	a0,19bc0 <__multf3+0x9bc>
   19ba8:	00200513          	li	a0,2
   19bac:	0019e993          	ori	s3,s3,1
   19bb0:	1eaa0063          	beq	s4,a0,19d90 <__multf3+0xb8c>
   19bb4:	00300513          	li	a0,3
   19bb8:	22aa0263          	beq	s4,a0,19ddc <__multf3+0xbd8>
   19bbc:	d40a06e3          	beqz	s4,19908 <__multf3+0x704>
   19bc0:	00c79593          	slli	a1,a5,0xc
   19bc4:	2405dc63          	bgez	a1,19e1c <__multf3+0xc18>
   19bc8:	0019e993          	ori	s3,s3,1
   19bcc:	0e061463          	bnez	a2,19cb4 <__multf3+0xab0>
   19bd0:	00100793          	li	a5,1
   19bd4:	03f71593          	slli	a1,a4,0x3f
   19bd8:	03079793          	slli	a5,a5,0x30
   19bdc:	00f5e5b3          	or	a1,a1,a5
   19be0:	00000513          	li	a0,0
   19be4:	0019a073          	csrs	fflags,s3
   19be8:	c31ff06f          	j	19818 <__multf3+0x614>
   19bec:	a20598e3          	bnez	a1,1961c <__multf3+0x418>
   19bf0:	000087b7          	lui	a5,0x8
   19bf4:	fff78793          	addi	a5,a5,-1 # 7fff <exit-0x8159>
   19bf8:	00000593          	li	a1,0
   19bfc:	00000513          	li	a0,0
   19c00:	a2dff06f          	j	1962c <__multf3+0x428>
   19c04:	a0058ce3          	beqz	a1,1961c <__multf3+0x418>
   19c08:	fff68793          	addi	a5,a3,-1
   19c0c:	00000593          	li	a1,0
   19c10:	00000513          	li	a0,0
   19c14:	a19ff06f          	j	1962c <__multf3+0x428>
   19c18:	00008737          	lui	a4,0x8
   19c1c:	ffe70713          	addi	a4,a4,-2 # 7ffe <exit-0x815a>
   19c20:	d8f750e3          	bge	a4,a5,199a0 <__multf3+0x79c>
   19c24:	00000713          	li	a4,0
   19c28:	9f5ff06f          	j	1961c <__multf3+0x418>
   19c2c:	00100593          	li	a1,1
   19c30:	02f59593          	slli	a1,a1,0x2f
   19c34:	00000713          	li	a4,0
   19c38:	00000513          	li	a0,0
   19c3c:	bc1ff06f          	j	197fc <__multf3+0x5f8>
   19c40:	00200793          	li	a5,2
   19c44:	0019e993          	ori	s3,s3,1
   19c48:	00058513          	mv	a0,a1
   19c4c:	f0fa0ae3          	beq	s4,a5,19b60 <__multf3+0x95c>
   19c50:	00300793          	li	a5,3
   19c54:	00000513          	li	a0,0
   19c58:	f0fa14e3          	bne	s4,a5,19b60 <__multf3+0x95c>
   19c5c:	0015c513          	xori	a0,a1,1
   19c60:	f01ff06f          	j	19b60 <__multf3+0x95c>
   19c64:	00faf693          	andi	a3,s5,15
   19c68:	00400613          	li	a2,4
   19c6c:	00058713          	mv	a4,a1
   19c70:	8ec69ee3          	bne	a3,a2,1956c <__multf3+0x368>
   19c74:	965ff06f          	j	195d8 <__multf3+0x3d4>
   19c78:	0a058463          	beqz	a1,19d20 <__multf3+0xb1c>
   19c7c:	00b91713          	slli	a4,s2,0xb
   19c80:	1e075c63          	bgez	a4,19e78 <__multf3+0xc74>
   19c84:	000047b7          	lui	a5,0x4
   19c88:	00178793          	addi	a5,a5,1 # 4001 <exit-0xc157>
   19c8c:	00008737          	lui	a4,0x8
   19c90:	00fb07b3          	add	a5,s6,a5
   19c94:	ffe70713          	addi	a4,a4,-2 # 7ffe <exit-0x815a>
   19c98:	16f75663          	bge	a4,a5,19e04 <__multf3+0xc00>
   19c9c:	00100713          	li	a4,1
   19ca0:	971ff06f          	j	19610 <__multf3+0x40c>
   19ca4:	00355513          	srli	a0,a0,0x3
   19ca8:	00000793          	li	a5,0
   19cac:	00000593          	li	a1,0
   19cb0:	b4dff06f          	j	197fc <__multf3+0x5f8>
   19cb4:	00000593          	li	a1,0
   19cb8:	00100793          	li	a5,1
   19cbc:	00000513          	li	a0,0
   19cc0:	e31ff06f          	j	19af0 <__multf3+0x8ec>
   19cc4:	f4058ae3          	beqz	a1,19c18 <__multf3+0xa14>
   19cc8:	000b0813          	mv	a6,s6
   19ccc:	008a8713          	addi	a4,s5,8
   19cd0:	01573ab3          	sltu	s5,a4,s5
   19cd4:	00100513          	li	a0,1
   19cd8:	01590933          	add	s2,s2,s5
   19cdc:	03451513          	slli	a0,a0,0x34
   19ce0:	00a97533          	and	a0,s2,a0
   19ce4:	00070a93          	mv	s5,a4
   19ce8:	16050863          	beqz	a0,19e58 <__multf3+0xc54>
   19cec:	000047b7          	lui	a5,0x4
   19cf0:	000086b7          	lui	a3,0x8
   19cf4:	00f807b3          	add	a5,a6,a5
   19cf8:	ffe68693          	addi	a3,a3,-2 # 7ffe <exit-0x815a>
   19cfc:	00008737          	lui	a4,0x8
   19d00:	10f6d263          	bge	a3,a5,19e04 <__multf3+0xc00>
   19d04:	00200793          	li	a5,2
   19d08:	20fa0863          	beq	s4,a5,19f18 <__multf3+0xd14>
   19d0c:	00100713          	li	a4,1
   19d10:	00070593          	mv	a1,a4
   19d14:	8fdff06f          	j	19610 <__multf3+0x40c>
   19d18:	16059063          	bnez	a1,19e78 <__multf3+0xc74>
   19d1c:	000b0813          	mv	a6,s6
   19d20:	008a8713          	addi	a4,s5,8
   19d24:	01573ab3          	sltu	s5,a4,s5
   19d28:	01590933          	add	s2,s2,s5
   19d2c:	00070a93          	mv	s5,a4
   19d30:	00b91713          	slli	a4,s2,0xb
   19d34:	16075063          	bgez	a4,19e94 <__multf3+0xc90>
   19d38:	000047b7          	lui	a5,0x4
   19d3c:	00008737          	lui	a4,0x8
   19d40:	00f807b3          	add	a5,a6,a5
   19d44:	ffe70713          	addi	a4,a4,-2 # 7ffe <exit-0x815a>
   19d48:	c4f754e3          	bge	a4,a5,19990 <__multf3+0x78c>
   19d4c:	00200793          	li	a5,2
   19d50:	00000713          	li	a4,0
   19d54:	e8fa1ee3          	bne	s4,a5,19bf0 <__multf3+0x9ec>
   19d58:	8c5ff06f          	j	1961c <__multf3+0x418>
   19d5c:	14059a63          	bnez	a1,19eb0 <__multf3+0xcac>
   19d60:	03495613          	srli	a2,s2,0x34
   19d64:	00167613          	andi	a2,a2,1
   19d68:	00164613          	xori	a2,a2,1
   19d6c:	001ad793          	srli	a5,s5,0x1
   19d70:	03f91693          	slli	a3,s2,0x3f
   19d74:	00f6e6b3          	or	a3,a3,a5
   19d78:	001afa93          	andi	s5,s5,1
   19d7c:	0156e6b3          	or	a3,a3,s5
   19d80:	0076f513          	andi	a0,a3,7
   19d84:	0006061b          	sext.w	a2,a2
   19d88:	00195793          	srli	a5,s2,0x1
   19d8c:	e2050ae3          	beqz	a0,19bc0 <__multf3+0x9bc>
   19d90:	e20588e3          	beqz	a1,19bc0 <__multf3+0x9bc>
   19d94:	00868593          	addi	a1,a3,8
   19d98:	00d5b6b3          	sltu	a3,a1,a3
   19d9c:	00d787b3          	add	a5,a5,a3
   19da0:	00058693          	mv	a3,a1
   19da4:	e1dff06f          	j	19bc0 <__multf3+0x9bc>
   19da8:	14058263          	beqz	a1,19eec <__multf3+0xce8>
   19dac:	03495613          	srli	a2,s2,0x34
   19db0:	00167613          	andi	a2,a2,1
   19db4:	00164613          	xori	a2,a2,1
   19db8:	03f91513          	slli	a0,s2,0x3f
   19dbc:	001ad793          	srli	a5,s5,0x1
   19dc0:	00a7e7b3          	or	a5,a5,a0
   19dc4:	001af693          	andi	a3,s5,1
   19dc8:	00f6e6b3          	or	a3,a3,a5
   19dcc:	0076f513          	andi	a0,a3,7
   19dd0:	0006061b          	sext.w	a2,a2
   19dd4:	00195793          	srli	a5,s2,0x1
   19dd8:	de0504e3          	beqz	a0,19bc0 <__multf3+0x9bc>
   19ddc:	de0592e3          	bnez	a1,19bc0 <__multf3+0x9bc>
   19de0:	fb5ff06f          	j	19d94 <__multf3+0xb90>
   19de4:	00355513          	srli	a0,a0,0x3
   19de8:	00000593          	li	a1,0
   19dec:	00000793          	li	a5,0
   19df0:	d01ff06f          	j	19af0 <__multf3+0x8ec>
   19df4:	000086b7          	lui	a3,0x8
   19df8:	ffe68693          	addi	a3,a3,-2 # 7ffe <exit-0x815a>
   19dfc:	80f6cee3          	blt	a3,a5,19618 <__multf3+0x414>
   19e00:	ba5ff06f          	j	199a4 <__multf3+0x7a0>
   19e04:	fff00713          	li	a4,-1
   19e08:	03471713          	slli	a4,a4,0x34
   19e0c:	fff70713          	addi	a4,a4,-1
   19e10:	00e97933          	and	s2,s2,a4
   19e14:	00100713          	li	a4,1
   19e18:	b8dff06f          	j	199a4 <__multf3+0x7a0>
   19e1c:	03d79513          	slli	a0,a5,0x3d
   19e20:	0036d693          	srli	a3,a3,0x3
   19e24:	00d79793          	slli	a5,a5,0xd
   19e28:	0107d593          	srli	a1,a5,0x10
   19e2c:	00d56533          	or	a0,a0,a3
   19e30:	00000793          	li	a5,0
   19e34:	9c0604e3          	beqz	a2,197fc <__multf3+0x5f8>
   19e38:	0019f693          	andi	a3,s3,1
   19e3c:	00000793          	li	a5,0
   19e40:	9a068ee3          	beqz	a3,197fc <__multf3+0x5f8>
   19e44:	cadff06f          	j	19af0 <__multf3+0x8ec>
   19e48:	000086b7          	lui	a3,0x8
   19e4c:	ffe68693          	addi	a3,a3,-2 # 7ffe <exit-0x815a>
   19e50:	fcf6c663          	blt	a3,a5,1961c <__multf3+0x418>
   19e54:	b51ff06f          	j	199a4 <__multf3+0x7a0>
   19e58:	000086b7          	lui	a3,0x8
   19e5c:	ffe68693          	addi	a3,a3,-2 # 7ffe <exit-0x815a>
   19e60:	00008737          	lui	a4,0x8
   19e64:	04f6d263          	bge	a3,a5,19ea8 <__multf3+0xca4>
   19e68:	fff70793          	addi	a5,a4,-1 # 7fff <exit-0x8159>
   19e6c:	00000593          	li	a1,0
   19e70:	00100713          	li	a4,1
   19e74:	fb8ff06f          	j	1962c <__multf3+0x428>
   19e78:	00008737          	lui	a4,0x8
   19e7c:	ffe70713          	addi	a4,a4,-2 # 7ffe <exit-0x815a>
   19e80:	02f75463          	bge	a4,a5,19ea8 <__multf3+0xca4>
   19e84:	00300793          	li	a5,3
   19e88:	00100713          	li	a4,1
   19e8c:	f8fa1663          	bne	s4,a5,19618 <__multf3+0x414>
   19e90:	f8cff06f          	j	1961c <__multf3+0x418>
   19e94:	00008737          	lui	a4,0x8
   19e98:	ffe70713          	addi	a4,a4,-2 # 7ffe <exit-0x815a>
   19e9c:	b0f752e3          	bge	a4,a5,199a0 <__multf3+0x79c>
   19ea0:	00000713          	li	a4,0
   19ea4:	d4dff06f          	j	19bf0 <__multf3+0x9ec>
   19ea8:	00100713          	li	a4,1
   19eac:	af9ff06f          	j	199a4 <__multf3+0x7a0>
   19eb0:	ff8ab613          	sltiu	a2,s5,-8
   19eb4:	00164613          	xori	a2,a2,1
   19eb8:	01260633          	add	a2,a2,s2
   19ebc:	03465613          	srli	a2,a2,0x34
   19ec0:	00167613          	andi	a2,a2,1
   19ec4:	00164613          	xori	a2,a2,1
   19ec8:	ea5ff06f          	j	19d6c <__multf3+0xb68>
   19ecc:	f0058ce3          	beqz	a1,19de4 <__multf3+0xbe0>
   19ed0:	00850793          	addi	a5,a0,8
   19ed4:	00a7b533          	sltu	a0,a5,a0
   19ed8:	c05ff06f          	j	19adc <__multf3+0x8d8>
   19edc:	fe058ae3          	beqz	a1,19ed0 <__multf3+0xccc>
   19ee0:	00355513          	srli	a0,a0,0x3
   19ee4:	00000593          	li	a1,0
   19ee8:	f51ff06f          	j	19e38 <__multf3+0xc34>
   19eec:	ff8ab613          	sltiu	a2,s5,-8
   19ef0:	00164613          	xori	a2,a2,1
   19ef4:	01260633          	add	a2,a2,s2
   19ef8:	03465613          	srli	a2,a2,0x34
   19efc:	00167613          	andi	a2,a2,1
   19f00:	00164613          	xori	a2,a2,1
   19f04:	eb5ff06f          	j	19db8 <__multf3+0xbb4>
   19f08:	03495613          	srli	a2,s2,0x34
   19f0c:	00167613          	andi	a2,a2,1
   19f10:	00164613          	xori	a2,a2,1
   19f14:	9d1ff06f          	j	198e4 <__multf3+0x6e0>
   19f18:	fff70793          	addi	a5,a4,-1
   19f1c:	00000593          	li	a1,0
   19f20:	00100713          	li	a4,1
   19f24:	00000513          	li	a0,0
   19f28:	f04ff06f          	j	1962c <__multf3+0x428>
   19f2c:	04000513          	li	a0,64
   19f30:	00068613          	mv	a2,a3
   19f34:	40f5053b          	subw	a0,a0,a5
   19f38:	c4dff06f          	j	19b84 <__multf3+0x980>

0000000000019f3c <__subtf3>:
   19f3c:	fd010113          	addi	sp,sp,-48
   19f40:	02113423          	sd	ra,40(sp)
   19f44:	02813023          	sd	s0,32(sp)
   19f48:	00913c23          	sd	s1,24(sp)
   19f4c:	01213823          	sd	s2,16(sp)
   19f50:	01313423          	sd	s3,8(sp)
   19f54:	01413023          	sd	s4,0(sp)
   19f58:	002029f3          	frrm	s3
   19f5c:	fff00e93          	li	t4,-1
   19f60:	010ed793          	srli	a5,t4,0x10
   19f64:	000088b7          	lui	a7,0x8
   19f68:	00f5fe33          	and	t3,a1,a5
   19f6c:	0306d813          	srli	a6,a3,0x30
   19f70:	00f6f7b3          	and	a5,a3,a5
   19f74:	01d888b3          	add	a7,a7,t4
   19f78:	0305d713          	srli	a4,a1,0x30
   19f7c:	003e1e13          	slli	t3,t3,0x3
   19f80:	00379793          	slli	a5,a5,0x3
   19f84:	03d55f13          	srli	t5,a0,0x3d
   19f88:	03d65313          	srli	t1,a2,0x3d
   19f8c:	01187833          	and	a6,a6,a7
   19f90:	03f5d493          	srli	s1,a1,0x3f
   19f94:	0009899b          	sext.w	s3,s3
   19f98:	01cf6f33          	or	t5,t5,t3
   19f9c:	00f36333          	or	t1,t1,a5
   19fa0:	03f6d693          	srli	a3,a3,0x3f
   19fa4:	01177a33          	and	s4,a4,a7
   19fa8:	00351f93          	slli	t6,a0,0x3
   19fac:	00361593          	slli	a1,a2,0x3
   19fb0:	21180663          	beq	a6,a7,1a1bc <__subtf3+0x280>
   19fb4:	0016ce13          	xori	t3,a3,1
   19fb8:	410a073b          	subw	a4,s4,a6
   19fbc:	15c48663          	beq	s1,t3,1a108 <__subtf3+0x1cc>
   19fc0:	2ce05ce3          	blez	a4,1aa98 <__subtf3+0xb5c>
   19fc4:	32081263          	bnez	a6,1a2e8 <__subtf3+0x3ac>
   19fc8:	00b367b3          	or	a5,t1,a1
   19fcc:	6a078263          	beqz	a5,1a670 <__subtf3+0x734>
   19fd0:	fff7071b          	addiw	a4,a4,-1
   19fd4:	300704e3          	beqz	a4,1aadc <__subtf3+0xba0>
   19fd8:	771a0663          	beq	s4,a7,1a744 <__subtf3+0x808>
   19fdc:	07400693          	li	a3,116
   19fe0:	32e6d063          	bge	a3,a4,1a300 <__subtf3+0x3c4>
   19fe4:	ffff8413          	addi	s0,t6,-1
   19fe8:	008fb7b3          	sltu	a5,t6,s0
   19fec:	40ff0933          	sub	s2,t5,a5
   19ff0:	00c91793          	slli	a5,s2,0xc
   19ff4:	3407dc63          	bgez	a5,1a34c <__subtf3+0x410>
   19ff8:	000e8913          	mv	s2,t4
   19ffc:	000e8413          	mv	s0,t4
   1a000:	00d91913          	slli	s2,s2,0xd
   1a004:	00d95913          	srli	s2,s2,0xd
   1a008:	60090463          	beqz	s2,1a610 <__subtf3+0x6d4>
   1a00c:	00090513          	mv	a0,s2
   1a010:	548010ef          	jal	1b558 <__clzdi2>
   1a014:	ff45071b          	addiw	a4,a0,-12
   1a018:	04000693          	li	a3,64
   1a01c:	40e687bb          	subw	a5,a3,a4
   1a020:	00f457b3          	srl	a5,s0,a5
   1a024:	00e91933          	sll	s2,s2,a4
   1a028:	0127e7b3          	or	a5,a5,s2
   1a02c:	00e41433          	sll	s0,s0,a4
   1a030:	7f474c63          	blt	a4,s4,1a828 <__subtf3+0x8ec>
   1a034:	4147073b          	subw	a4,a4,s4
   1a038:	0017071b          	addiw	a4,a4,1
   1a03c:	40e686bb          	subw	a3,a3,a4
   1a040:	00d41633          	sll	a2,s0,a3
   1a044:	00c03633          	snez	a2,a2
   1a048:	00e45933          	srl	s2,s0,a4
   1a04c:	00d796b3          	sll	a3,a5,a3
   1a050:	01266633          	or	a2,a2,s2
   1a054:	00c6e433          	or	s0,a3,a2
   1a058:	00e7d933          	srl	s2,a5,a4
   1a05c:	012467b3          	or	a5,s0,s2
   1a060:	7e078663          	beqz	a5,1a84c <__subtf3+0x910>
   1a064:	00141713          	slli	a4,s0,0x1
   1a068:	00191793          	slli	a5,s2,0x1
   1a06c:	03f45613          	srli	a2,s0,0x3f
   1a070:	00777693          	andi	a3,a4,7
   1a074:	00c787b3          	add	a5,a5,a2
   1a078:	4c068a63          	beqz	a3,1a54c <__subtf3+0x610>
   1a07c:	00200693          	li	a3,2
   1a080:	4cd984e3          	beq	s3,a3,1ad48 <__subtf3+0xe0c>
   1a084:	00300693          	li	a3,3
   1a088:	4ad982e3          	beq	s3,a3,1ad2c <__subtf3+0xdf0>
   1a08c:	480992e3          	bnez	s3,1ad10 <__subtf3+0xdd4>
   1a090:	00f77693          	andi	a3,a4,15
   1a094:	00400613          	li	a2,4
   1a098:	0ac68ae3          	beq	a3,a2,1a94c <__subtf3+0xa10>
   1a09c:	ffc73713          	sltiu	a4,a4,-4
   1a0a0:	00174713          	xori	a4,a4,1
   1a0a4:	00f707b3          	add	a5,a4,a5
   1a0a8:	0347d793          	srli	a5,a5,0x34
   1a0ac:	0017f793          	andi	a5,a5,1
   1a0b0:	00747713          	andi	a4,s0,7
   1a0b4:	0017c693          	xori	a3,a5,1
   1a0b8:	00000a13          	li	s4,0
   1a0bc:	30071e63          	bnez	a4,1a3d8 <__subtf3+0x49c>
   1a0c0:	00100793          	li	a5,1
   1a0c4:	03379793          	slli	a5,a5,0x33
   1a0c8:	00f977b3          	and	a5,s2,a5
   1a0cc:	00000a13          	li	s4,0
   1a0d0:	32069a63          	bnez	a3,1a404 <__subtf3+0x4c8>
   1a0d4:	00090313          	mv	t1,s2
   1a0d8:	00040593          	mv	a1,s0
   1a0dc:	00100713          	li	a4,1
   1a0e0:	00058413          	mv	s0,a1
   1a0e4:	00030913          	mv	s2,t1
   1a0e8:	00100813          	li	a6,1
   1a0ec:	32079863          	bnez	a5,1a41c <__subtf3+0x4e0>
   1a0f0:	03d31793          	slli	a5,t1,0x3d
   1a0f4:	00345413          	srli	s0,s0,0x3
   1a0f8:	00f46433          	or	s0,s0,a5
   1a0fc:	00000a13          	li	s4,0
   1a100:	00335793          	srli	a5,t1,0x3
   1a104:	27c0006f          	j	1a380 <__subtf3+0x444>
   1a108:	18e05863          	blez	a4,1a298 <__subtf3+0x35c>
   1a10c:	5a081663          	bnez	a6,1a6b8 <__subtf3+0x77c>
   1a110:	00b367b3          	or	a5,t1,a1
   1a114:	54078e63          	beqz	a5,1a670 <__subtf3+0x734>
   1a118:	fff7071b          	addiw	a4,a4,-1
   1a11c:	100700e3          	beqz	a4,1aa1c <__subtf3+0xae0>
   1a120:	631a0263          	beq	s4,a7,1a744 <__subtf3+0x808>
   1a124:	07400693          	li	a3,116
   1a128:	5ae6c663          	blt	a3,a4,1a6d4 <__subtf3+0x798>
   1a12c:	03f00793          	li	a5,63
   1a130:	2ee7c4e3          	blt	a5,a4,1ac18 <__subtf3+0xcdc>
   1a134:	04000793          	li	a5,64
   1a138:	40e787bb          	subw	a5,a5,a4
   1a13c:	00f31933          	sll	s2,t1,a5
   1a140:	00f597b3          	sll	a5,a1,a5
   1a144:	00e5d5b3          	srl	a1,a1,a4
   1a148:	00f037b3          	snez	a5,a5
   1a14c:	00b96933          	or	s2,s2,a1
   1a150:	00e35333          	srl	t1,t1,a4
   1a154:	00f96933          	or	s2,s2,a5
   1a158:	006f0f33          	add	t5,t5,t1
   1a15c:	01f907b3          	add	a5,s2,t6
   1a160:	0127b933          	sltu	s2,a5,s2
   1a164:	01e90933          	add	s2,s2,t5
   1a168:	00078413          	mv	s0,a5
   1a16c:	00c91793          	slli	a5,s2,0xc
   1a170:	1c07da63          	bgez	a5,1a344 <__subtf3+0x408>
   1a174:	000087b7          	lui	a5,0x8
   1a178:	001a0a13          	addi	s4,s4,1
   1a17c:	fff78793          	addi	a5,a5,-1 # 7fff <exit-0x8159>
   1a180:	1efa08e3          	beq	s4,a5,1ab70 <__subtf3+0xc34>
   1a184:	fff00793          	li	a5,-1
   1a188:	03379793          	slli	a5,a5,0x33
   1a18c:	00145713          	srli	a4,s0,0x1
   1a190:	fff78793          	addi	a5,a5,-1
   1a194:	00147413          	andi	s0,s0,1
   1a198:	00876733          	or	a4,a4,s0
   1a19c:	00f977b3          	and	a5,s2,a5
   1a1a0:	03f79413          	slli	s0,a5,0x3f
   1a1a4:	00777693          	andi	a3,a4,7
   1a1a8:	0017d913          	srli	s2,a5,0x1
   1a1ac:	00e46433          	or	s0,s0,a4
   1a1b0:	18069e63          	bnez	a3,1a34c <__subtf3+0x410>
   1a1b4:	00000713          	li	a4,0
   1a1b8:	1ac0006f          	j	1a364 <__subtf3+0x428>
   1a1bc:	ffff88b7          	lui	a7,0xffff8
   1a1c0:	0018889b          	addiw	a7,a7,1 # ffffffffffff8001 <__BSS_END__+0xfffffffffffd83a1>
   1a1c4:	00b367b3          	or	a5,t1,a1
   1a1c8:	011a073b          	addw	a4,s4,a7
   1a1cc:	08079463          	bnez	a5,1a254 <__subtf3+0x318>
   1a1d0:	0016ce13          	xori	t3,a3,1
   1a1d4:	2fc48863          	beq	s1,t3,1a4c4 <__subtf3+0x588>
   1a1d8:	3c070263          	beqz	a4,1a59c <__subtf3+0x660>
   1a1dc:	7e0a1063          	bnez	s4,1a9bc <__subtf3+0xa80>
   1a1e0:	01ff6733          	or	a4,t5,t6
   1a1e4:	460702e3          	beqz	a4,1ae48 <__subtf3+0xf0c>
   1a1e8:	ffff8737          	lui	a4,0xffff8
   1a1ec:	00170713          	addi	a4,a4,1 # ffffffffffff8001 <__BSS_END__+0xfffffffffffd83a1>
   1a1f0:	fff74713          	not	a4,a4
   1a1f4:	2e070ae3          	beqz	a4,1ace8 <__subtf3+0xdac>
   1a1f8:	000087b7          	lui	a5,0x8
   1a1fc:	fff78793          	addi	a5,a5,-1 # 7fff <exit-0x8159>
   1a200:	3ef800e3          	beq	a6,a5,1ade0 <__subtf3+0xea4>
   1a204:	07400793          	li	a5,116
   1a208:	12e7c2e3          	blt	a5,a4,1ab2c <__subtf3+0xbf0>
   1a20c:	000e0493          	mv	s1,t3
   1a210:	03f00793          	li	a5,63
   1a214:	24e7cae3          	blt	a5,a4,1ac68 <__subtf3+0xd2c>
   1a218:	04000793          	li	a5,64
   1a21c:	40e787bb          	subw	a5,a5,a4
   1a220:	00ff1433          	sll	s0,t5,a5
   1a224:	00ff96b3          	sll	a3,t6,a5
   1a228:	00efd7b3          	srl	a5,t6,a4
   1a22c:	00d036b3          	snez	a3,a3
   1a230:	00f46433          	or	s0,s0,a5
   1a234:	00ef5f33          	srl	t5,t5,a4
   1a238:	00d46433          	or	s0,s0,a3
   1a23c:	41e30333          	sub	t1,t1,t5
   1a240:	40858433          	sub	s0,a1,s0
   1a244:	0085b5b3          	sltu	a1,a1,s0
   1a248:	40b30933          	sub	s2,t1,a1
   1a24c:	00080a13          	mv	s4,a6
   1a250:	0ec0006f          	j	1a33c <__subtf3+0x400>
   1a254:	00068e13          	mv	t3,a3
   1a258:	24d488e3          	beq	s1,a3,1aca8 <__subtf3+0xd6c>
   1a25c:	34070063          	beqz	a4,1a59c <__subtf3+0x660>
   1a260:	000a1663          	bnez	s4,1a26c <__subtf3+0x330>
   1a264:	01ff67b3          	or	a5,t5,t6
   1a268:	f80790e3          	bnez	a5,1a1e8 <__subtf3+0x2ac>
   1a26c:	03235713          	srli	a4,t1,0x32
   1a270:	003ed793          	srli	a5,t4,0x3
   1a274:	00177713          	andi	a4,a4,1
   1a278:	00f677b3          	and	a5,a2,a5
   1a27c:	00174713          	xori	a4,a4,1
   1a280:	03d31613          	slli	a2,t1,0x3d
   1a284:	00068493          	mv	s1,a3
   1a288:	0047171b          	slliw	a4,a4,0x4
   1a28c:	00f666b3          	or	a3,a2,a5
   1a290:	00335793          	srli	a5,t1,0x3
   1a294:	4c00006f          	j	1a754 <__subtf3+0x818>
   1a298:	22070863          	beqz	a4,1a4c8 <__subtf3+0x58c>
   1a29c:	100a1ee3          	bnez	s4,1abb8 <__subtf3+0xc7c>
   1a2a0:	01ff67b3          	or	a5,t5,t6
   1a2a4:	000784e3          	beqz	a5,1aaac <__subtf3+0xb70>
   1a2a8:	fff74713          	not	a4,a4
   1a2ac:	3a070ae3          	beqz	a4,1ae60 <__subtf3+0xf24>
   1a2b0:	000087b7          	lui	a5,0x8
   1a2b4:	fff78793          	addi	a5,a5,-1 # 7fff <exit-0x8159>
   1a2b8:	4af800e3          	beq	a6,a5,1af58 <__subtf3+0x101c>
   1a2bc:	07400793          	li	a5,116
   1a2c0:	10e7d8e3          	bge	a5,a4,1abd0 <__subtf3+0xc94>
   1a2c4:	00100793          	li	a5,1
   1a2c8:	03379913          	slli	s2,a5,0x33
   1a2cc:	00c31793          	slli	a5,t1,0xc
   1a2d0:	00080a13          	mv	s4,a6
   1a2d4:	00000413          	li	s0,0
   1a2d8:	e807cee3          	bltz	a5,1a174 <__subtf3+0x238>
   1a2dc:	00158413          	addi	s0,a1,1 # ffff001 <__BSS_END__+0xffdf3a1>
   1a2e0:	00030913          	mv	s2,t1
   1a2e4:	0680006f          	j	1a34c <__subtf3+0x410>
   1a2e8:	011a0ae3          	beq	s4,a7,1aafc <__subtf3+0xbc0>
   1a2ec:	07400793          	li	a5,116
   1a2f0:	cee7cae3          	blt	a5,a4,19fe4 <__subtf3+0xa8>
   1a2f4:	00100793          	li	a5,1
   1a2f8:	03379793          	slli	a5,a5,0x33
   1a2fc:	00f36333          	or	t1,t1,a5
   1a300:	03f00793          	li	a5,63
   1a304:	56e7ce63          	blt	a5,a4,1a880 <__subtf3+0x944>
   1a308:	04000793          	li	a5,64
   1a30c:	40e787bb          	subw	a5,a5,a4
   1a310:	00f31433          	sll	s0,t1,a5
   1a314:	00f597b3          	sll	a5,a1,a5
   1a318:	00e5d5b3          	srl	a1,a1,a4
   1a31c:	00f037b3          	snez	a5,a5
   1a320:	00b46433          	or	s0,s0,a1
   1a324:	00e35333          	srl	t1,t1,a4
   1a328:	00f46433          	or	s0,s0,a5
   1a32c:	406f0f33          	sub	t5,t5,t1
   1a330:	408f8433          	sub	s0,t6,s0
   1a334:	008fb7b3          	sltu	a5,t6,s0
   1a338:	40ff0933          	sub	s2,t5,a5
   1a33c:	00c91793          	slli	a5,s2,0xc
   1a340:	cc07c0e3          	bltz	a5,1a000 <__subtf3+0xc4>
   1a344:	00747793          	andi	a5,s0,7
   1a348:	e60786e3          	beqz	a5,1a1b4 <__subtf3+0x278>
   1a34c:	00200793          	li	a5,2
   1a350:	42f98463          	beq	s3,a5,1a778 <__subtf3+0x83c>
   1a354:	00300793          	li	a5,3
   1a358:	0ef98c63          	beq	s3,a5,1a450 <__subtf3+0x514>
   1a35c:	06098c63          	beqz	s3,1a3d4 <__subtf3+0x498>
   1a360:	00100713          	li	a4,1
   1a364:	000086b7          	lui	a3,0x8
   1a368:	03d91793          	slli	a5,s2,0x3d
   1a36c:	00345413          	srli	s0,s0,0x3
   1a370:	fff68693          	addi	a3,a3,-1 # 7fff <exit-0x8159>
   1a374:	0087e433          	or	s0,a5,s0
   1a378:	00395793          	srli	a5,s2,0x3
   1a37c:	56da02e3          	beq	s4,a3,1b0e0 <__subtf3+0x11a4>
   1a380:	01079793          	slli	a5,a5,0x10
   1a384:	031a1813          	slli	a6,s4,0x31
   1a388:	0107d593          	srli	a1,a5,0x10
   1a38c:	03185813          	srli	a6,a6,0x31
   1a390:	0014f493          	andi	s1,s1,1
   1a394:	00f4949b          	slliw	s1,s1,0xf
   1a398:	00986833          	or	a6,a6,s1
   1a39c:	01059593          	slli	a1,a1,0x10
   1a3a0:	03081813          	slli	a6,a6,0x30
   1a3a4:	0105d593          	srli	a1,a1,0x10
   1a3a8:	0105e5b3          	or	a1,a1,a6
   1a3ac:	00040513          	mv	a0,s0
   1a3b0:	36071863          	bnez	a4,1a720 <__subtf3+0x7e4>
   1a3b4:	02813083          	ld	ra,40(sp)
   1a3b8:	02013403          	ld	s0,32(sp)
   1a3bc:	01813483          	ld	s1,24(sp)
   1a3c0:	01013903          	ld	s2,16(sp)
   1a3c4:	00813983          	ld	s3,8(sp)
   1a3c8:	00013a03          	ld	s4,0(sp)
   1a3cc:	03010113          	addi	sp,sp,48
   1a3d0:	00008067          	ret
   1a3d4:	00000693          	li	a3,0
   1a3d8:	00f47793          	andi	a5,s0,15
   1a3dc:	00400713          	li	a4,4
   1a3e0:	0ae78c63          	beq	a5,a4,1a498 <__subtf3+0x55c>
   1a3e4:	00e40733          	add	a4,s0,a4
   1a3e8:	00873433          	sltu	s0,a4,s0
   1a3ec:	00100793          	li	a5,1
   1a3f0:	00890933          	add	s2,s2,s0
   1a3f4:	03379793          	slli	a5,a5,0x33
   1a3f8:	00070413          	mv	s0,a4
   1a3fc:	00f977b3          	and	a5,s2,a5
   1a400:	0a068463          	beqz	a3,1a4a8 <__subtf3+0x56c>
   1a404:	00300713          	li	a4,3
   1a408:	f4078ee3          	beqz	a5,1a364 <__subtf3+0x428>
   1a40c:	000087b7          	lui	a5,0x8
   1a410:	001a0813          	addi	a6,s4,1
   1a414:	fff78793          	addi	a5,a5,-1 # 7fff <exit-0x8159>
   1a418:	2cf80e63          	beq	a6,a5,1a6f4 <__subtf3+0x7b8>
   1a41c:	fff00793          	li	a5,-1
   1a420:	03379793          	slli	a5,a5,0x33
   1a424:	fff78793          	addi	a5,a5,-1
   1a428:	00f977b3          	and	a5,s2,a5
   1a42c:	00345413          	srli	s0,s0,0x3
   1a430:	03181813          	slli	a6,a6,0x31
   1a434:	03d79693          	slli	a3,a5,0x3d
   1a438:	00d79593          	slli	a1,a5,0xd
   1a43c:	03185813          	srli	a6,a6,0x31
   1a440:	0014f493          	andi	s1,s1,1
   1a444:	0086e433          	or	s0,a3,s0
   1a448:	0105d593          	srli	a1,a1,0x10
   1a44c:	f49ff06f          	j	1a394 <__subtf3+0x458>
   1a450:	00000693          	li	a3,0
   1a454:	4e049663          	bnez	s1,1a940 <__subtf3+0xa04>
   1a458:	00840713          	addi	a4,s0,8
   1a45c:	00873433          	sltu	s0,a4,s0
   1a460:	00100793          	li	a5,1
   1a464:	00890933          	add	s2,s2,s0
   1a468:	03379793          	slli	a5,a5,0x33
   1a46c:	00070413          	mv	s0,a4
   1a470:	00f977b3          	and	a5,s2,a5
   1a474:	4e069a63          	bnez	a3,1a968 <__subtf3+0xa2c>
   1a478:	1c0784e3          	beqz	a5,1ae40 <__subtf3+0xf04>
   1a47c:	000087b7          	lui	a5,0x8
   1a480:	001a0813          	addi	a6,s4,1
   1a484:	fff78793          	addi	a5,a5,-1 # 7fff <exit-0x8159>
   1a488:	00000493          	li	s1,0
   1a48c:	32f80863          	beq	a6,a5,1a7bc <__subtf3+0x880>
   1a490:	00100713          	li	a4,1
   1a494:	f89ff06f          	j	1a41c <__subtf3+0x4e0>
   1a498:	00100793          	li	a5,1
   1a49c:	03379793          	slli	a5,a5,0x33
   1a4a0:	00f977b3          	and	a5,s2,a5
   1a4a4:	f60690e3          	bnez	a3,1a404 <__subtf3+0x4c8>
   1a4a8:	ea078ce3          	beqz	a5,1a360 <__subtf3+0x424>
   1a4ac:	000087b7          	lui	a5,0x8
   1a4b0:	001a0813          	addi	a6,s4,1
   1a4b4:	fff78793          	addi	a5,a5,-1 # 7fff <exit-0x8159>
   1a4b8:	fcf81ce3          	bne	a6,a5,1a490 <__subtf3+0x554>
   1a4bc:	00500713          	li	a4,5
   1a4c0:	23c0006f          	j	1a6fc <__subtf3+0x7c0>
   1a4c4:	4e071063          	bnez	a4,1a9a4 <__subtf3+0xa68>
   1a4c8:	001a0693          	addi	a3,s4,1
   1a4cc:	03169893          	slli	a7,a3,0x31
   1a4d0:	000087b7          	lui	a5,0x8
   1a4d4:	0328d893          	srli	a7,a7,0x32
   1a4d8:	ffe78793          	addi	a5,a5,-2 # 7ffe <exit-0x815a>
   1a4dc:	00008737          	lui	a4,0x8
   1a4e0:	40089a63          	bnez	a7,1a8f4 <__subtf3+0x9b8>
   1a4e4:	01ff6433          	or	s0,t5,t6
   1a4e8:	0a0a16e3          	bnez	s4,1ad94 <__subtf3+0xe58>
   1a4ec:	10040463          	beqz	s0,1a5f4 <__subtf3+0x6b8>
   1a4f0:	00b367b3          	or	a5,t1,a1
   1a4f4:	66078463          	beqz	a5,1ab5c <__subtf3+0xc20>
   1a4f8:	00bf85b3          	add	a1,t6,a1
   1a4fc:	01f5b7b3          	sltu	a5,a1,t6
   1a500:	006f0f33          	add	t5,t5,t1
   1a504:	00ff0333          	add	t1,t5,a5
   1a508:	00c31793          	slli	a5,t1,0xc
   1a50c:	0e07d463          	bgez	a5,1a5f4 <__subtf3+0x6b8>
   1a510:	fff00713          	li	a4,-1
   1a514:	03371713          	slli	a4,a4,0x33
   1a518:	fff70713          	addi	a4,a4,-1 # 7fff <exit-0x8159>
   1a51c:	00e37733          	and	a4,t1,a4
   1a520:	00d71793          	slli	a5,a4,0xd
   1a524:	00100693          	li	a3,1
   1a528:	0107d793          	srli	a5,a5,0x10
   1a52c:	03069693          	slli	a3,a3,0x30
   1a530:	0035d613          	srli	a2,a1,0x3
   1a534:	03f49493          	slli	s1,s1,0x3f
   1a538:	03d71713          	slli	a4,a4,0x3d
   1a53c:	00d7e5b3          	or	a1,a5,a3
   1a540:	00c76533          	or	a0,a4,a2
   1a544:	0095e5b3          	or	a1,a1,s1
   1a548:	e6dff06f          	j	1a3b4 <__subtf3+0x478>
   1a54c:	00100713          	li	a4,1
   1a550:	03471713          	slli	a4,a4,0x34
   1a554:	00e7f733          	and	a4,a5,a4
   1a558:	00747793          	andi	a5,s0,7
   1a55c:	00173693          	seqz	a3,a4
   1a560:	380784e3          	beqz	a5,1b0e8 <__subtf3+0x11ac>
   1a564:	00200793          	li	a5,2
   1a568:	62f98863          	beq	s3,a5,1ab98 <__subtf3+0xc5c>
   1a56c:	00300793          	li	a5,3
   1a570:	40f98263          	beq	s3,a5,1a974 <__subtf3+0xa38>
   1a574:	3e098663          	beqz	s3,1a960 <__subtf3+0xa24>
   1a578:	00100793          	li	a5,1
   1a57c:	03379793          	slli	a5,a5,0x33
   1a580:	00f977b3          	and	a5,s2,a5
   1a584:	00000a13          	li	s4,0
   1a588:	e6069ee3          	bnez	a3,1a404 <__subtf3+0x4c8>
   1a58c:	dc078ae3          	beqz	a5,1a360 <__subtf3+0x424>
   1a590:	00100813          	li	a6,1
   1a594:	00080713          	mv	a4,a6
   1a598:	e85ff06f          	j	1a41c <__subtf3+0x4e0>
   1a59c:	001a0793          	addi	a5,s4,1
   1a5a0:	03179693          	slli	a3,a5,0x31
   1a5a4:	0326d693          	srli	a3,a3,0x32
   1a5a8:	00008737          	lui	a4,0x8
   1a5ac:	24069263          	bnez	a3,1a7f0 <__subtf3+0x8b4>
   1a5b0:	00b366b3          	or	a3,t1,a1
   1a5b4:	01ff6433          	or	s0,t5,t6
   1a5b8:	420a1863          	bnez	s4,1a9e8 <__subtf3+0xaac>
   1a5bc:	58040863          	beqz	s0,1ab4c <__subtf3+0xc10>
   1a5c0:	58068e63          	beqz	a3,1ab5c <__subtf3+0xc20>
   1a5c4:	40bf8733          	sub	a4,t6,a1
   1a5c8:	00efb6b3          	sltu	a3,t6,a4
   1a5cc:	406f07b3          	sub	a5,t5,t1
   1a5d0:	40d787b3          	sub	a5,a5,a3
   1a5d4:	00c79693          	slli	a3,a5,0xc
   1a5d8:	0c06dae3          	bgez	a3,1aeac <__subtf3+0xf70>
   1a5dc:	41f587b3          	sub	a5,a1,t6
   1a5e0:	00f5b733          	sltu	a4,a1,a5
   1a5e4:	41e30f33          	sub	t5,t1,t5
   1a5e8:	00078593          	mv	a1,a5
   1a5ec:	40ef0333          	sub	t1,t5,a4
   1a5f0:	000e0493          	mv	s1,t3
   1a5f4:	00b367b3          	or	a5,t1,a1
   1a5f8:	24078a63          	beqz	a5,1a84c <__subtf3+0x910>
   1a5fc:	00100793          	li	a5,1
   1a600:	03379793          	slli	a5,a5,0x33
   1a604:	00f377b3          	and	a5,t1,a5
   1a608:	00000713          	li	a4,0
   1a60c:	ad5ff06f          	j	1a0e0 <__subtf3+0x1a4>
   1a610:	00040513          	mv	a0,s0
   1a614:	745000ef          	jal	1b558 <__clzdi2>
   1a618:	0345069b          	addiw	a3,a0,52
   1a61c:	03f00613          	li	a2,63
   1a620:	00068713          	mv	a4,a3
   1a624:	9ed65ae3          	bge	a2,a3,1a018 <__subtf3+0xdc>
   1a628:	ff45051b          	addiw	a0,a0,-12
   1a62c:	00a417b3          	sll	a5,s0,a0
   1a630:	2b46c263          	blt	a3,s4,1a8d4 <__subtf3+0x998>
   1a634:	414686bb          	subw	a3,a3,s4
   1a638:	0016871b          	addiw	a4,a3,1
   1a63c:	00070593          	mv	a1,a4
   1a640:	00e658e3          	bge	a2,a4,1ae50 <__subtf3+0xf14>
   1a644:	fc16869b          	addiw	a3,a3,-63
   1a648:	04000713          	li	a4,64
   1a64c:	00d7d433          	srl	s0,a5,a3
   1a650:	00e58c63          	beq	a1,a4,1a668 <__subtf3+0x72c>
   1a654:	08000713          	li	a4,128
   1a658:	40b7073b          	subw	a4,a4,a1
   1a65c:	00e797b3          	sll	a5,a5,a4
   1a660:	00f037b3          	snez	a5,a5
   1a664:	00f46433          	or	s0,s0,a5
   1a668:	00040793          	mv	a5,s0
   1a66c:	9f5ff06f          	j	1a060 <__subtf3+0x124>
   1a670:	0d1a0a63          	beq	s4,a7,1a744 <__subtf3+0x808>
   1a674:	02813083          	ld	ra,40(sp)
   1a678:	02013403          	ld	s0,32(sp)
   1a67c:	00f4949b          	slliw	s1,s1,0xf
   1a680:	0144e4b3          	or	s1,s1,s4
   1a684:	00df1593          	slli	a1,t5,0xd
   1a688:	03049493          	slli	s1,s1,0x30
   1a68c:	003fd793          	srli	a5,t6,0x3
   1a690:	0105d593          	srli	a1,a1,0x10
   1a694:	03df1513          	slli	a0,t5,0x3d
   1a698:	01013903          	ld	s2,16(sp)
   1a69c:	00813983          	ld	s3,8(sp)
   1a6a0:	00013a03          	ld	s4,0(sp)
   1a6a4:	0095e5b3          	or	a1,a1,s1
   1a6a8:	00a7e533          	or	a0,a5,a0
   1a6ac:	01813483          	ld	s1,24(sp)
   1a6b0:	03010113          	addi	sp,sp,48
   1a6b4:	00008067          	ret
   1a6b8:	091a0663          	beq	s4,a7,1a744 <__subtf3+0x808>
   1a6bc:	07400793          	li	a5,116
   1a6c0:	00e7ca63          	blt	a5,a4,1a6d4 <__subtf3+0x798>
   1a6c4:	00100793          	li	a5,1
   1a6c8:	03379793          	slli	a5,a5,0x33
   1a6cc:	00f36333          	or	t1,t1,a5
   1a6d0:	a5dff06f          	j	1a12c <__subtf3+0x1f0>
   1a6d4:	00100913          	li	s2,1
   1a6d8:	00cf1793          	slli	a5,t5,0xc
   1a6dc:	03391913          	slli	s2,s2,0x33
   1a6e0:	00000413          	li	s0,0
   1a6e4:	a807c8e3          	bltz	a5,1a174 <__subtf3+0x238>
   1a6e8:	001f8413          	addi	s0,t6,1
   1a6ec:	000f0913          	mv	s2,t5
   1a6f0:	c5dff06f          	j	1a34c <__subtf3+0x410>
   1a6f4:	00576713          	ori	a4,a4,5
   1a6f8:	0c099463          	bnez	s3,1a7c0 <__subtf3+0x884>
   1a6fc:	000087b7          	lui	a5,0x8
   1a700:	0014f493          	andi	s1,s1,1
   1a704:	fff78793          	addi	a5,a5,-1 # 7fff <exit-0x8159>
   1a708:	00000593          	li	a1,0
   1a70c:	00000513          	li	a0,0
   1a710:	00f4949b          	slliw	s1,s1,0xf
   1a714:	0097e7b3          	or	a5,a5,s1
   1a718:	03079793          	slli	a5,a5,0x30
   1a71c:	00f5e5b3          	or	a1,a1,a5
   1a720:	00172073          	csrs	fflags,a4
   1a724:	02813083          	ld	ra,40(sp)
   1a728:	02013403          	ld	s0,32(sp)
   1a72c:	01813483          	ld	s1,24(sp)
   1a730:	01013903          	ld	s2,16(sp)
   1a734:	00813983          	ld	s3,8(sp)
   1a738:	00013a03          	ld	s4,0(sp)
   1a73c:	03010113          	addi	sp,sp,48
   1a740:	00008067          	ret
   1a744:	01ff67b3          	or	a5,t5,t6
   1a748:	16079263          	bnez	a5,1a8ac <__subtf3+0x970>
   1a74c:	00000693          	li	a3,0
   1a750:	00000713          	li	a4,0
   1a754:	00d7e7b3          	or	a5,a5,a3
   1a758:	10078863          	beqz	a5,1a868 <__subtf3+0x92c>
   1a75c:	00008837          	lui	a6,0x8
   1a760:	00100593          	li	a1,1
   1a764:	fff80813          	addi	a6,a6,-1 # 7fff <exit-0x8159>
   1a768:	02f59593          	slli	a1,a1,0x2f
   1a76c:	00000493          	li	s1,0
   1a770:	00000413          	li	s0,0
   1a774:	c21ff06f          	j	1a394 <__subtf3+0x458>
   1a778:	00000693          	li	a3,0
   1a77c:	be0482e3          	beqz	s1,1a360 <__subtf3+0x424>
   1a780:	00840713          	addi	a4,s0,8
   1a784:	00873433          	sltu	s0,a4,s0
   1a788:	00100793          	li	a5,1
   1a78c:	00890933          	add	s2,s2,s0
   1a790:	03379793          	slli	a5,a5,0x33
   1a794:	00070413          	mv	s0,a4
   1a798:	00f977b3          	and	a5,s2,a5
   1a79c:	00100493          	li	s1,1
   1a7a0:	c60692e3          	bnez	a3,1a404 <__subtf3+0x4c8>
   1a7a4:	ba078ee3          	beqz	a5,1a360 <__subtf3+0x424>
   1a7a8:	000087b7          	lui	a5,0x8
   1a7ac:	009a0833          	add	a6,s4,s1
   1a7b0:	fff78793          	addi	a5,a5,-1 # 7fff <exit-0x8159>
   1a7b4:	00048713          	mv	a4,s1
   1a7b8:	c6f812e3          	bne	a6,a5,1a41c <__subtf3+0x4e0>
   1a7bc:	00500713          	li	a4,5
   1a7c0:	00300793          	li	a5,3
   1a7c4:	48f98063          	beq	s3,a5,1ac44 <__subtf3+0xd08>
   1a7c8:	00200793          	li	a5,2
   1a7cc:	26f98863          	beq	s3,a5,1aa3c <__subtf3+0xb00>
   1a7d0:	07fff7b7          	lui	a5,0x7fff
   1a7d4:	02479793          	slli	a5,a5,0x24
   1a7d8:	03f49593          	slli	a1,s1,0x3f
   1a7dc:	fff78793          	addi	a5,a5,-1 # 7ffefff <__BSS_END__+0x7fdf39f>
   1a7e0:	00f5e5b3          	or	a1,a1,a5
   1a7e4:	fff00513          	li	a0,-1
   1a7e8:	00172073          	csrs	fflags,a4
   1a7ec:	f39ff06f          	j	1a724 <__subtf3+0x7e8>
   1a7f0:	40bf87b3          	sub	a5,t6,a1
   1a7f4:	00ffb733          	sltu	a4,t6,a5
   1a7f8:	406f0933          	sub	s2,t5,t1
   1a7fc:	40e90933          	sub	s2,s2,a4
   1a800:	00c91713          	slli	a4,s2,0xc
   1a804:	00078413          	mv	s0,a5
   1a808:	1c074263          	bltz	a4,1a9cc <__subtf3+0xa90>
   1a80c:	0127e7b3          	or	a5,a5,s2
   1a810:	fe079c63          	bnez	a5,1a008 <__subtf3+0xcc>
   1a814:	ffe98593          	addi	a1,s3,-2
   1a818:	0015b593          	seqz	a1,a1
   1a81c:	03f59593          	slli	a1,a1,0x3f
   1a820:	00000513          	li	a0,0
   1a824:	b91ff06f          	j	1a3b4 <__subtf3+0x478>
   1a828:	fff00913          	li	s2,-1
   1a82c:	03391913          	slli	s2,s2,0x33
   1a830:	fff90913          	addi	s2,s2,-1
   1a834:	00747693          	andi	a3,s0,7
   1a838:	40ea0a33          	sub	s4,s4,a4
   1a83c:	0127f933          	and	s2,a5,s2
   1a840:	b00696e3          	bnez	a3,1a34c <__subtf3+0x410>
   1a844:	00000713          	li	a4,0
   1a848:	b1dff06f          	j	1a364 <__subtf3+0x428>
   1a84c:	00000f13          	li	t5,0
   1a850:	00000f93          	li	t6,0
   1a854:	00000a13          	li	s4,0
   1a858:	e1dff06f          	j	1a674 <__subtf3+0x738>
   1a85c:	00b367b3          	or	a5,t1,a1
   1a860:	020796e3          	bnez	a5,1b08c <__subtf3+0x1150>
   1a864:	1e041e63          	bnez	s0,1aa60 <__subtf3+0xb24>
   1a868:	00008837          	lui	a6,0x8
   1a86c:	0014f493          	andi	s1,s1,1
   1a870:	fff80813          	addi	a6,a6,-1 # 7fff <exit-0x8159>
   1a874:	00000593          	li	a1,0
   1a878:	00000413          	li	s0,0
   1a87c:	b19ff06f          	j	1a394 <__subtf3+0x458>
   1a880:	fc07079b          	addiw	a5,a4,-64 # 7fc0 <exit-0x8198>
   1a884:	04000693          	li	a3,64
   1a888:	00f357b3          	srl	a5,t1,a5
   1a88c:	00d70a63          	beq	a4,a3,1a8a0 <__subtf3+0x964>
   1a890:	08000693          	li	a3,128
   1a894:	40e6873b          	subw	a4,a3,a4
   1a898:	00e31733          	sll	a4,t1,a4
   1a89c:	00e5e5b3          	or	a1,a1,a4
   1a8a0:	00b03433          	snez	s0,a1
   1a8a4:	00f46433          	or	s0,s0,a5
   1a8a8:	a89ff06f          	j	1a330 <__subtf3+0x3f4>
   1a8ac:	032f5713          	srli	a4,t5,0x32
   1a8b0:	003ed793          	srli	a5,t4,0x3
   1a8b4:	00177713          	andi	a4,a4,1
   1a8b8:	00f577b3          	and	a5,a0,a5
   1a8bc:	03df1693          	slli	a3,t5,0x3d
   1a8c0:	00174713          	xori	a4,a4,1
   1a8c4:	00f6e6b3          	or	a3,a3,a5
   1a8c8:	0047171b          	slliw	a4,a4,0x4
   1a8cc:	003f5793          	srli	a5,t5,0x3
   1a8d0:	e85ff06f          	j	1a754 <__subtf3+0x818>
   1a8d4:	fff00913          	li	s2,-1
   1a8d8:	03391913          	slli	s2,s2,0x33
   1a8dc:	fff90913          	addi	s2,s2,-1
   1a8e0:	40da0a33          	sub	s4,s4,a3
   1a8e4:	0127f933          	and	s2,a5,s2
   1a8e8:	00000413          	li	s0,0
   1a8ec:	00000713          	li	a4,0
   1a8f0:	a75ff06f          	j	1a364 <__subtf3+0x428>
   1a8f4:	fff70713          	addi	a4,a4,-1
   1a8f8:	4ce68663          	beq	a3,a4,1adc4 <__subtf3+0xe88>
   1a8fc:	00bf85b3          	add	a1,t6,a1
   1a900:	01f5b7b3          	sltu	a5,a1,t6
   1a904:	006f0f33          	add	t5,t5,t1
   1a908:	00ff0f33          	add	t5,t5,a5
   1a90c:	0015d593          	srli	a1,a1,0x1
   1a910:	03ff1413          	slli	s0,t5,0x3f
   1a914:	0075f793          	andi	a5,a1,7
   1a918:	00b46433          	or	s0,s0,a1
   1a91c:	001f5913          	srli	s2,t5,0x1
   1a920:	7e078263          	beqz	a5,1b104 <__subtf3+0x11c8>
   1a924:	00200793          	li	a5,2
   1a928:	60f98063          	beq	s3,a5,1af28 <__subtf3+0xfec>
   1a92c:	00300793          	li	a5,3
   1a930:	00068a13          	mv	s4,a3
   1a934:	a2f994e3          	bne	s3,a5,1a35c <__subtf3+0x420>
   1a938:	00000693          	li	a3,0
   1a93c:	b0048ee3          	beqz	s1,1a458 <__subtf3+0x51c>
   1a940:	00100493          	li	s1,1
   1a944:	00048713          	mv	a4,s1
   1a948:	a1dff06f          	j	1a364 <__subtf3+0x428>
   1a94c:	0347d793          	srli	a5,a5,0x34
   1a950:	0017f793          	andi	a5,a5,1
   1a954:	00747713          	andi	a4,s0,7
   1a958:	0017c693          	xori	a3,a5,1
   1a95c:	f6070263          	beqz	a4,1a0c0 <__subtf3+0x184>
   1a960:	00000a13          	li	s4,0
   1a964:	a75ff06f          	j	1a3d8 <__subtf3+0x49c>
   1a968:	00000493          	li	s1,0
   1a96c:	00300713          	li	a4,3
   1a970:	a99ff06f          	j	1a408 <__subtf3+0x4cc>
   1a974:	00000a13          	li	s4,0
   1a978:	ae0480e3          	beqz	s1,1a458 <__subtf3+0x51c>
   1a97c:	00100793          	li	a5,1
   1a980:	03379793          	slli	a5,a5,0x33
   1a984:	00f977b3          	and	a5,s2,a5
   1a988:	00100493          	li	s1,1
   1a98c:	00000a13          	li	s4,0
   1a990:	a6069ae3          	bnez	a3,1a404 <__subtf3+0x4c8>
   1a994:	fa0786e3          	beqz	a5,1a940 <__subtf3+0xa04>
   1a998:	00048813          	mv	a6,s1
   1a99c:	00048713          	mv	a4,s1
   1a9a0:	a7dff06f          	j	1a41c <__subtf3+0x4e0>
   1a9a4:	da0a14e3          	bnez	s4,1a74c <__subtf3+0x810>
   1a9a8:	01ff6733          	or	a4,t5,t6
   1a9ac:	da0700e3          	beqz	a4,1a74c <__subtf3+0x810>
   1a9b0:	ffff8737          	lui	a4,0xffff8
   1a9b4:	00170713          	addi	a4,a4,1 # ffffffffffff8001 <__BSS_END__+0xfffffffffffd83a1>
   1a9b8:	8f1ff06f          	j	1a2a8 <__subtf3+0x36c>
   1a9bc:	000e0493          	mv	s1,t3
   1a9c0:	00000713          	li	a4,0
   1a9c4:	00000693          	li	a3,0
   1a9c8:	d8dff06f          	j	1a754 <__subtf3+0x818>
   1a9cc:	41f587b3          	sub	a5,a1,t6
   1a9d0:	00f5b5b3          	sltu	a1,a1,a5
   1a9d4:	41e30f33          	sub	t5,t1,t5
   1a9d8:	00078413          	mv	s0,a5
   1a9dc:	40bf0933          	sub	s2,t5,a1
   1a9e0:	000e0493          	mv	s1,t3
   1a9e4:	e24ff06f          	j	1a008 <__subtf3+0xcc>
   1a9e8:	fff70713          	addi	a4,a4,-1
   1a9ec:	48ea0c63          	beq	s4,a4,1ae84 <__subtf3+0xf48>
   1a9f0:	54e80463          	beq	a6,a4,1af38 <__subtf3+0xffc>
   1a9f4:	06041263          	bnez	s0,1aa58 <__subtf3+0xb1c>
   1a9f8:	00000713          	li	a4,0
   1a9fc:	08068a63          	beqz	a3,1aa90 <__subtf3+0xb54>
   1aa00:	00361793          	slli	a5,a2,0x3
   1aa04:	0037d793          	srli	a5,a5,0x3
   1aa08:	03d31693          	slli	a3,t1,0x3d
   1aa0c:	00f6e6b3          	or	a3,a3,a5
   1aa10:	000e0493          	mv	s1,t3
   1aa14:	00335793          	srli	a5,t1,0x3
   1aa18:	d3dff06f          	j	1a754 <__subtf3+0x818>
   1aa1c:	00bf85b3          	add	a1,t6,a1
   1aa20:	01f5b7b3          	sltu	a5,a1,t6
   1aa24:	006f0f33          	add	t5,t5,t1
   1aa28:	00ff0933          	add	s2,t5,a5
   1aa2c:	00c91793          	slli	a5,s2,0xc
   1aa30:	00058413          	mv	s0,a1
   1aa34:	f407c063          	bltz	a5,1a174 <__subtf3+0x238>
   1aa38:	92dff06f          	j	1a364 <__subtf3+0x428>
   1aa3c:	cc0490e3          	bnez	s1,1a6fc <__subtf3+0x7c0>
   1aa40:	00002797          	auipc	a5,0x2
   1aa44:	0a078793          	addi	a5,a5,160 # 1cae0 <states+0x260>
   1aa48:	0007b503          	ld	a0,0(a5)
   1aa4c:	0087b583          	ld	a1,8(a5)
   1aa50:	00172073          	csrs	fflags,a4
   1aa54:	cd1ff06f          	j	1a724 <__subtf3+0x7e8>
   1aa58:	00000713          	li	a4,0
   1aa5c:	d00690e3          	bnez	a3,1a75c <__subtf3+0x820>
   1aa60:	00351693          	slli	a3,a0,0x3
   1aa64:	03df1793          	slli	a5,t5,0x3d
   1aa68:	0036d693          	srli	a3,a3,0x3
   1aa6c:	00f6e6b3          	or	a3,a3,a5
   1aa70:	003f5793          	srli	a5,t5,0x3
   1aa74:	ce1ff06f          	j	1a754 <__subtf3+0x818>
   1aa78:	00b367b3          	or	a5,t1,a1
   1aa7c:	53481063          	bne	a6,s4,1af9c <__subtf3+0x1060>
   1aa80:	01000713          	li	a4,16
   1aa84:	fc078ee3          	beqz	a5,1aa60 <__subtf3+0xb24>
   1aa88:	00d31713          	slli	a4,t1,0xd
   1aa8c:	50075863          	bgez	a4,1af9c <__subtf3+0x1060>
   1aa90:	01000713          	li	a4,16
   1aa94:	cc9ff06f          	j	1a75c <__subtf3+0x820>
   1aa98:	b00702e3          	beqz	a4,1a59c <__subtf3+0x660>
   1aa9c:	020a1063          	bnez	s4,1aabc <__subtf3+0xb80>
   1aaa0:	01ff67b3          	or	a5,t5,t6
   1aaa4:	f4079663          	bnez	a5,1a1f0 <__subtf3+0x2b4>
   1aaa8:	000e0493          	mv	s1,t3
   1aaac:	00030f13          	mv	t5,t1
   1aab0:	00058f93          	mv	t6,a1
   1aab4:	00080a13          	mv	s4,a6
   1aab8:	bbdff06f          	j	1a674 <__subtf3+0x738>
   1aabc:	f8c00793          	li	a5,-116
   1aac0:	06f74663          	blt	a4,a5,1ab2c <__subtf3+0xbf0>
   1aac4:	00100793          	li	a5,1
   1aac8:	03379793          	slli	a5,a5,0x33
   1aacc:	40e0073b          	negw	a4,a4
   1aad0:	000e0493          	mv	s1,t3
   1aad4:	00ff6f33          	or	t5,t5,a5
   1aad8:	f38ff06f          	j	1a210 <__subtf3+0x2d4>
   1aadc:	40bf85b3          	sub	a1,t6,a1
   1aae0:	00bfb7b3          	sltu	a5,t6,a1
   1aae4:	406f0f33          	sub	t5,t5,t1
   1aae8:	40ff0933          	sub	s2,t5,a5
   1aaec:	00c91793          	slli	a5,s2,0xc
   1aaf0:	00058413          	mv	s0,a1
   1aaf4:	d007c663          	bltz	a5,1a000 <__subtf3+0xc4>
   1aaf8:	86dff06f          	j	1a364 <__subtf3+0x428>
   1aafc:	01ff67b3          	or	a5,t5,t6
   1ab00:	c40786e3          	beqz	a5,1a74c <__subtf3+0x810>
   1ab04:	032f5713          	srli	a4,t5,0x32
   1ab08:	003ede93          	srli	t4,t4,0x3
   1ab0c:	00177713          	andi	a4,a4,1
   1ab10:	01d57eb3          	and	t4,a0,t4
   1ab14:	03df1693          	slli	a3,t5,0x3d
   1ab18:	00174713          	xori	a4,a4,1
   1ab1c:	01d6e6b3          	or	a3,a3,t4
   1ab20:	0047171b          	slliw	a4,a4,0x4
   1ab24:	003f5793          	srli	a5,t5,0x3
   1ab28:	c2dff06f          	j	1a754 <__subtf3+0x818>
   1ab2c:	fff58413          	addi	s0,a1,-1
   1ab30:	0085b5b3          	sltu	a1,a1,s0
   1ab34:	40b30933          	sub	s2,t1,a1
   1ab38:	00c91793          	slli	a5,s2,0xc
   1ab3c:	1407cc63          	bltz	a5,1ac94 <__subtf3+0xd58>
   1ab40:	000e0493          	mv	s1,t3
   1ab44:	00080a13          	mv	s4,a6
   1ab48:	805ff06f          	j	1a34c <__subtf3+0x410>
   1ab4c:	cc0684e3          	beqz	a3,1a814 <__subtf3+0x8d8>
   1ab50:	00030f13          	mv	t5,t1
   1ab54:	00058f93          	mv	t6,a1
   1ab58:	000e0493          	mv	s1,t3
   1ab5c:	000f0913          	mv	s2,t5
   1ab60:	000f8413          	mv	s0,t6
   1ab64:	00000a13          	li	s4,0
   1ab68:	00000713          	li	a4,0
   1ab6c:	ff8ff06f          	j	1a364 <__subtf3+0x428>
   1ab70:	0e098863          	beqz	s3,1ac60 <__subtf3+0xd24>
   1ab74:	00300793          	li	a5,3
   1ab78:	3ef98e63          	beq	s3,a5,1af74 <__subtf3+0x1038>
   1ab7c:	00200793          	li	a5,2
   1ab80:	00500713          	li	a4,5
   1ab84:	c2f99ee3          	bne	s3,a5,1a7c0 <__subtf3+0x884>
   1ab88:	ea048ce3          	beqz	s1,1aa40 <__subtf3+0xb04>
   1ab8c:	00000693          	li	a3,0
   1ab90:	00000793          	li	a5,0
   1ab94:	bc1ff06f          	j	1a754 <__subtf3+0x818>
   1ab98:	1e049a63          	bnez	s1,1ad8c <__subtf3+0xe50>
   1ab9c:	00100793          	li	a5,1
   1aba0:	03379793          	slli	a5,a5,0x33
   1aba4:	00f977b3          	and	a5,s2,a5
   1aba8:	00000a13          	li	s4,0
   1abac:	84070ce3          	beqz	a4,1a404 <__subtf3+0x4c8>
   1abb0:	00100713          	li	a4,1
   1abb4:	855ff06f          	j	1a408 <__subtf3+0x4cc>
   1abb8:	f8c00793          	li	a5,-116
   1abbc:	f0f74463          	blt	a4,a5,1a2c4 <__subtf3+0x388>
   1abc0:	00100793          	li	a5,1
   1abc4:	03379793          	slli	a5,a5,0x33
   1abc8:	40e0073b          	negw	a4,a4
   1abcc:	00ff6f33          	or	t5,t5,a5
   1abd0:	03f00793          	li	a5,63
   1abd4:	24e7c063          	blt	a5,a4,1ae14 <__subtf3+0xed8>
   1abd8:	04000693          	li	a3,64
   1abdc:	40e686bb          	subw	a3,a3,a4
   1abe0:	00df17b3          	sll	a5,t5,a3
   1abe4:	00df96b3          	sll	a3,t6,a3
   1abe8:	00efdfb3          	srl	t6,t6,a4
   1abec:	00d036b3          	snez	a3,a3
   1abf0:	01f7e7b3          	or	a5,a5,t6
   1abf4:	00ef5f33          	srl	t5,t5,a4
   1abf8:	00d7e7b3          	or	a5,a5,a3
   1abfc:	01e30333          	add	t1,t1,t5
   1ac00:	00b785b3          	add	a1,a5,a1
   1ac04:	00f5b7b3          	sltu	a5,a1,a5
   1ac08:	00678933          	add	s2,a5,t1
   1ac0c:	00058413          	mv	s0,a1
   1ac10:	00080a13          	mv	s4,a6
   1ac14:	d58ff06f          	j	1a16c <__subtf3+0x230>
   1ac18:	fc07079b          	addiw	a5,a4,-64
   1ac1c:	04000693          	li	a3,64
   1ac20:	00f357b3          	srl	a5,t1,a5
   1ac24:	00d70a63          	beq	a4,a3,1ac38 <__subtf3+0xcfc>
   1ac28:	08000693          	li	a3,128
   1ac2c:	40e6873b          	subw	a4,a3,a4
   1ac30:	00e31733          	sll	a4,t1,a4
   1ac34:	00e5e5b3          	or	a1,a1,a4
   1ac38:	00b03933          	snez	s2,a1
   1ac3c:	00f96933          	or	s2,s2,a5
   1ac40:	d1cff06f          	j	1a15c <__subtf3+0x220>
   1ac44:	aa048ce3          	beqz	s1,1a6fc <__subtf3+0x7c0>
   1ac48:	fff00513          	li	a0,-1
   1ac4c:	000087b7          	lui	a5,0x8
   1ac50:	01055593          	srli	a1,a0,0x10
   1ac54:	ffe78793          	addi	a5,a5,-2 # 7ffe <exit-0x815a>
   1ac58:	00100493          	li	s1,1
   1ac5c:	ab5ff06f          	j	1a710 <__subtf3+0x7d4>
   1ac60:	00500713          	li	a4,5
   1ac64:	f29ff06f          	j	1ab8c <__subtf3+0xc50>
   1ac68:	fc07079b          	addiw	a5,a4,-64
   1ac6c:	04000693          	li	a3,64
   1ac70:	00ff57b3          	srl	a5,t5,a5
   1ac74:	00d70a63          	beq	a4,a3,1ac88 <__subtf3+0xd4c>
   1ac78:	08000693          	li	a3,128
   1ac7c:	40e6873b          	subw	a4,a3,a4
   1ac80:	00ef1733          	sll	a4,t5,a4
   1ac84:	00efefb3          	or	t6,t6,a4
   1ac88:	01f03433          	snez	s0,t6
   1ac8c:	00f46433          	or	s0,s0,a5
   1ac90:	db0ff06f          	j	1a240 <__subtf3+0x304>
   1ac94:	fff00913          	li	s2,-1
   1ac98:	00080a13          	mv	s4,a6
   1ac9c:	000e0493          	mv	s1,t3
   1aca0:	00090413          	mv	s0,s2
   1aca4:	b5cff06f          	j	1a000 <__subtf3+0xc4>
   1aca8:	820700e3          	beqz	a4,1a4c8 <__subtf3+0x58c>
   1acac:	000a1a63          	bnez	s4,1acc0 <__subtf3+0xd84>
   1acb0:	ffff8737          	lui	a4,0xffff8
   1acb4:	01ff67b3          	or	a5,t5,t6
   1acb8:	00170713          	addi	a4,a4,1 # ffffffffffff8001 <__BSS_END__+0xfffffffffffd83a1>
   1acbc:	de079663          	bnez	a5,1a2a8 <__subtf3+0x36c>
   1acc0:	03235713          	srli	a4,t1,0x32
   1acc4:	003ed793          	srli	a5,t4,0x3
   1acc8:	00177713          	andi	a4,a4,1
   1accc:	00f677b3          	and	a5,a2,a5
   1acd0:	03d31693          	slli	a3,t1,0x3d
   1acd4:	00174713          	xori	a4,a4,1
   1acd8:	00f6e6b3          	or	a3,a3,a5
   1acdc:	0047171b          	slliw	a4,a4,0x4
   1ace0:	00335793          	srli	a5,t1,0x3
   1ace4:	a71ff06f          	j	1a754 <__subtf3+0x818>
   1ace8:	41f587b3          	sub	a5,a1,t6
   1acec:	00f5b5b3          	sltu	a1,a1,a5
   1acf0:	41e30f33          	sub	t5,t1,t5
   1acf4:	40bf0933          	sub	s2,t5,a1
   1acf8:	00078413          	mv	s0,a5
   1acfc:	00c91793          	slli	a5,s2,0xc
   1ad00:	1a07c063          	bltz	a5,1aea0 <__subtf3+0xf64>
   1ad04:	000e0493          	mv	s1,t3
   1ad08:	00080a13          	mv	s4,a6
   1ad0c:	e58ff06f          	j	1a364 <__subtf3+0x428>
   1ad10:	0347d793          	srli	a5,a5,0x34
   1ad14:	0017f793          	andi	a5,a5,1
   1ad18:	00747713          	andi	a4,s0,7
   1ad1c:	0017c693          	xori	a3,a5,1
   1ad20:	ba070063          	beqz	a4,1a0c0 <__subtf3+0x184>
   1ad24:	84099ae3          	bnez	s3,1a578 <__subtf3+0x63c>
   1ad28:	c39ff06f          	j	1a960 <__subtf3+0xa24>
   1ad2c:	1c048a63          	beqz	s1,1af00 <__subtf3+0xfc4>
   1ad30:	0347d793          	srli	a5,a5,0x34
   1ad34:	0017f793          	andi	a5,a5,1
   1ad38:	00747713          	andi	a4,s0,7
   1ad3c:	0017c693          	xori	a3,a5,1
   1ad40:	c2071ee3          	bnez	a4,1a97c <__subtf3+0xa40>
   1ad44:	b7cff06f          	j	1a0c0 <__subtf3+0x184>
   1ad48:	16049c63          	bnez	s1,1aec0 <__subtf3+0xf84>
   1ad4c:	00100713          	li	a4,1
   1ad50:	00747693          	andi	a3,s0,7
   1ad54:	03471713          	slli	a4,a4,0x34
   1ad58:	00e7f733          	and	a4,a5,a4
   1ad5c:	00068793          	mv	a5,a3
   1ad60:	00173693          	seqz	a3,a4
   1ad64:	b4078e63          	beqz	a5,1a0c0 <__subtf3+0x184>
   1ad68:	00100793          	li	a5,1
   1ad6c:	03379793          	slli	a5,a5,0x33
   1ad70:	00f977b3          	and	a5,s2,a5
   1ad74:	00000a13          	li	s4,0
   1ad78:	e8070663          	beqz	a4,1a404 <__subtf3+0x4c8>
   1ad7c:	00100713          	li	a4,1
   1ad80:	00070813          	mv	a6,a4
   1ad84:	e8079c63          	bnez	a5,1a41c <__subtf3+0x4e0>
   1ad88:	ddcff06f          	j	1a364 <__subtf3+0x428>
   1ad8c:	00000a13          	li	s4,0
   1ad90:	9f1ff06f          	j	1a780 <__subtf3+0x844>
   1ad94:	fff70793          	addi	a5,a4,-1
   1ad98:	20fa0863          	beq	s4,a5,1afa8 <__subtf3+0x106c>
   1ad9c:	00000713          	li	a4,0
   1ada0:	aaf80ee3          	beq	a6,a5,1a85c <__subtf3+0x920>
   1ada4:	00b367b3          	or	a5,t1,a1
   1ada8:	1e041c63          	bnez	s0,1afa0 <__subtf3+0x1064>
   1adac:	00361793          	slli	a5,a2,0x3
   1adb0:	0037d793          	srli	a5,a5,0x3
   1adb4:	03d31693          	slli	a3,t1,0x3d
   1adb8:	00f6e6b3          	or	a3,a3,a5
   1adbc:	00335793          	srli	a5,t1,0x3
   1adc0:	995ff06f          	j	1a754 <__subtf3+0x818>
   1adc4:	e8098ee3          	beqz	s3,1ac60 <__subtf3+0xd24>
   1adc8:	00300713          	li	a4,3
   1adcc:	28e98463          	beq	s3,a4,1b054 <__subtf3+0x1118>
   1add0:	00200793          	li	a5,2
   1add4:	00500713          	li	a4,5
   1add8:	9ef998e3          	bne	s3,a5,1a7c8 <__subtf3+0x88c>
   1addc:	dadff06f          	j	1ab88 <__subtf3+0xc4c>
   1ade0:	00b367b3          	or	a5,t1,a1
   1ade4:	06078263          	beqz	a5,1ae48 <__subtf3+0xf0c>
   1ade8:	03235713          	srli	a4,t1,0x32
   1adec:	00361793          	slli	a5,a2,0x3
   1adf0:	00177713          	andi	a4,a4,1
   1adf4:	0037d793          	srli	a5,a5,0x3
   1adf8:	03d31693          	slli	a3,t1,0x3d
   1adfc:	00174713          	xori	a4,a4,1
   1ae00:	00f6e6b3          	or	a3,a3,a5
   1ae04:	000e0493          	mv	s1,t3
   1ae08:	0047171b          	slliw	a4,a4,0x4
   1ae0c:	00335793          	srli	a5,t1,0x3
   1ae10:	945ff06f          	j	1a754 <__subtf3+0x818>
   1ae14:	fc07069b          	addiw	a3,a4,-64
   1ae18:	04000793          	li	a5,64
   1ae1c:	00df56b3          	srl	a3,t5,a3
   1ae20:	00f70a63          	beq	a4,a5,1ae34 <__subtf3+0xef8>
   1ae24:	08000793          	li	a5,128
   1ae28:	40e787bb          	subw	a5,a5,a4
   1ae2c:	00ff17b3          	sll	a5,t5,a5
   1ae30:	00ffefb3          	or	t6,t6,a5
   1ae34:	01f037b3          	snez	a5,t6
   1ae38:	00d7e7b3          	or	a5,a5,a3
   1ae3c:	dc5ff06f          	j	1ac00 <__subtf3+0xcc4>
   1ae40:	00000493          	li	s1,0
   1ae44:	d1cff06f          	j	1a360 <__subtf3+0x424>
   1ae48:	000e0493          	mv	s1,t3
   1ae4c:	901ff06f          	j	1a74c <__subtf3+0x810>
   1ae50:	04000693          	li	a3,64
   1ae54:	40e686bb          	subw	a3,a3,a4
   1ae58:	00000613          	li	a2,0
   1ae5c:	9f0ff06f          	j	1a04c <__subtf3+0x110>
   1ae60:	00bf85b3          	add	a1,t6,a1
   1ae64:	01f5b7b3          	sltu	a5,a1,t6
   1ae68:	006f0f33          	add	t5,t5,t1
   1ae6c:	00ff0933          	add	s2,t5,a5
   1ae70:	00c91793          	slli	a5,s2,0xc
   1ae74:	00058413          	mv	s0,a1
   1ae78:	00080a13          	mv	s4,a6
   1ae7c:	ae07cc63          	bltz	a5,1a174 <__subtf3+0x238>
   1ae80:	ce4ff06f          	j	1a364 <__subtf3+0x428>
   1ae84:	14041463          	bnez	s0,1afcc <__subtf3+0x1090>
   1ae88:	b74818e3          	bne	a6,s4,1a9f8 <__subtf3+0xabc>
   1ae8c:	20068e63          	beqz	a3,1b0a8 <__subtf3+0x116c>
   1ae90:	00d31793          	slli	a5,t1,0xd
   1ae94:	1e07c263          	bltz	a5,1b078 <__subtf3+0x113c>
   1ae98:	01000713          	li	a4,16
   1ae9c:	b65ff06f          	j	1aa00 <__subtf3+0xac4>
   1aea0:	00080a13          	mv	s4,a6
   1aea4:	000e0493          	mv	s1,t3
   1aea8:	958ff06f          	j	1a000 <__subtf3+0xc4>
   1aeac:	00f766b3          	or	a3,a4,a5
   1aeb0:	960682e3          	beqz	a3,1a814 <__subtf3+0x8d8>
   1aeb4:	00078f13          	mv	t5,a5
   1aeb8:	00070f93          	mv	t6,a4
   1aebc:	ca1ff06f          	j	1ab5c <__subtf3+0xc20>
   1aec0:	ff873713          	sltiu	a4,a4,-8
   1aec4:	00100693          	li	a3,1
   1aec8:	00174713          	xori	a4,a4,1
   1aecc:	00f70733          	add	a4,a4,a5
   1aed0:	03469793          	slli	a5,a3,0x34
   1aed4:	00f77733          	and	a4,a4,a5
   1aed8:	00747793          	andi	a5,s0,7
   1aedc:	00173693          	seqz	a3,a4
   1aee0:	00000a13          	li	s4,0
   1aee4:	88079ee3          	bnez	a5,1a780 <__subtf3+0x844>
   1aee8:	00100793          	li	a5,1
   1aeec:	03379793          	slli	a5,a5,0x33
   1aef0:	00f977b3          	and	a5,s2,a5
   1aef4:	9e071063          	bnez	a4,1a0d4 <__subtf3+0x198>
   1aef8:	00300713          	li	a4,3
   1aefc:	d0cff06f          	j	1a408 <__subtf3+0x4cc>
   1af00:	ff873713          	sltiu	a4,a4,-8
   1af04:	00174713          	xori	a4,a4,1
   1af08:	00f707b3          	add	a5,a4,a5
   1af0c:	0347d793          	srli	a5,a5,0x34
   1af10:	0017f793          	andi	a5,a5,1
   1af14:	00747713          	andi	a4,s0,7
   1af18:	0017c693          	xori	a3,a5,1
   1af1c:	00000a13          	li	s4,0
   1af20:	d2071c63          	bnez	a4,1a458 <__subtf3+0x51c>
   1af24:	99cff06f          	j	1a0c0 <__subtf3+0x184>
   1af28:	00068a13          	mv	s4,a3
   1af2c:	00000693          	li	a3,0
   1af30:	840498e3          	bnez	s1,1a780 <__subtf3+0x844>
   1af34:	c2cff06f          	j	1a360 <__subtf3+0x424>
   1af38:	0c069263          	bnez	a3,1affc <__subtf3+0x10c0>
   1af3c:	12041863          	bnez	s0,1b06c <__subtf3+0x1130>
   1af40:	00100913          	li	s2,1
   1af44:	00080a13          	mv	s4,a6
   1af48:	03291913          	slli	s2,s2,0x32
   1af4c:	00000493          	li	s1,0
   1af50:	01000713          	li	a4,16
   1af54:	c10ff06f          	j	1a364 <__subtf3+0x428>
   1af58:	00b367b3          	or	a5,t1,a1
   1af5c:	fe078863          	beqz	a5,1a74c <__subtf3+0x810>
   1af60:	03235713          	srli	a4,t1,0x32
   1af64:	00361793          	slli	a5,a2,0x3
   1af68:	00177713          	andi	a4,a4,1
   1af6c:	0037d793          	srli	a5,a5,0x3
   1af70:	d61ff06f          	j	1acd0 <__subtf3+0xd94>
   1af74:	ce0486e3          	beqz	s1,1ac60 <__subtf3+0xd24>
   1af78:	fff00513          	li	a0,-1
   1af7c:	000087b7          	lui	a5,0x8
   1af80:	01055593          	srli	a1,a0,0x10
   1af84:	ffe78793          	addi	a5,a5,-2 # 7ffe <exit-0x815a>
   1af88:	00500713          	li	a4,5
   1af8c:	00100493          	li	s1,1
   1af90:	f80ff06f          	j	1a710 <__subtf3+0x7d4>
   1af94:	00d31713          	slli	a4,t1,0xd
   1af98:	08074463          	bltz	a4,1b020 <__subtf3+0x10e4>
   1af9c:	01000713          	li	a4,16
   1afa0:	fa079e63          	bnez	a5,1a75c <__subtf3+0x820>
   1afa4:	abdff06f          	j	1aa60 <__subtf3+0xb24>
   1afa8:	08041463          	bnez	s0,1b030 <__subtf3+0x10f4>
   1afac:	11480863          	beq	a6,s4,1b0bc <__subtf3+0x1180>
   1afb0:	00361793          	slli	a5,a2,0x3
   1afb4:	0037d793          	srli	a5,a5,0x3
   1afb8:	03d31693          	slli	a3,t1,0x3d
   1afbc:	00f6e6b3          	or	a3,a3,a5
   1afc0:	00000713          	li	a4,0
   1afc4:	00335793          	srli	a5,t1,0x3
   1afc8:	f8cff06f          	j	1a754 <__subtf3+0x818>
   1afcc:	00df1793          	slli	a5,t5,0xd
   1afd0:	0407c063          	bltz	a5,1b010 <__subtf3+0x10d4>
   1afd4:	01000713          	li	a4,16
   1afd8:	a94812e3          	bne	a6,s4,1aa5c <__subtf3+0xb20>
   1afdc:	a80682e3          	beqz	a3,1aa60 <__subtf3+0xb24>
   1afe0:	00d31793          	slli	a5,t1,0xd
   1afe4:	f607dc63          	bgez	a5,1a75c <__subtf3+0x820>
   1afe8:	0ffff5b7          	lui	a1,0xffff
   1afec:	02359593          	slli	a1,a1,0x23
   1aff0:	00000513          	li	a0,0
   1aff4:	00172073          	csrs	fflags,a4
   1aff8:	f2cff06f          	j	1a724 <__subtf3+0x7e8>
   1affc:	00d31793          	slli	a5,t1,0xd
   1b000:	0607ca63          	bltz	a5,1b074 <__subtf3+0x1138>
   1b004:	01000713          	li	a4,16
   1b008:	f4041a63          	bnez	s0,1a75c <__subtf3+0x820>
   1b00c:	9f5ff06f          	j	1aa00 <__subtf3+0xac4>
   1b010:	a54814e3          	bne	a6,s4,1aa58 <__subtf3+0xb1c>
   1b014:	04068c63          	beqz	a3,1b06c <__subtf3+0x1130>
   1b018:	00d31793          	slli	a5,t1,0xd
   1b01c:	a607dae3          	bgez	a5,1aa90 <__subtf3+0xb54>
   1b020:	0ffff5b7          	lui	a1,0xffff
   1b024:	02359593          	slli	a1,a1,0x23
   1b028:	00000513          	li	a0,0
   1b02c:	b88ff06f          	j	1a3b4 <__subtf3+0x478>
   1b030:	00df1793          	slli	a5,t5,0xd
   1b034:	a407d2e3          	bgez	a5,1aa78 <__subtf3+0xb3c>
   1b038:	00b367b3          	or	a5,t1,a1
   1b03c:	00000713          	li	a4,0
   1b040:	f74810e3          	bne	a6,s4,1afa0 <__subtf3+0x1064>
   1b044:	f40798e3          	bnez	a5,1af94 <__subtf3+0x1058>
   1b048:	000f0913          	mv	s2,t5
   1b04c:	000f8413          	mv	s0,t6
   1b050:	b14ff06f          	j	1a364 <__subtf3+0x428>
   1b054:	c00486e3          	beqz	s1,1ac60 <__subtf3+0xd24>
   1b058:	fff00513          	li	a0,-1
   1b05c:	01055593          	srli	a1,a0,0x10
   1b060:	00500713          	li	a4,5
   1b064:	00100493          	li	s1,1
   1b068:	ea8ff06f          	j	1a710 <__subtf3+0x7d4>
   1b06c:	00000713          	li	a4,0
   1b070:	9f1ff06f          	j	1aa60 <__subtf3+0xb24>
   1b074:	fa0416e3          	bnez	s0,1b020 <__subtf3+0x10e4>
   1b078:	00100593          	li	a1,1
   1b07c:	02f59593          	slli	a1,a1,0x2f
   1b080:	00000493          	li	s1,0
   1b084:	00000713          	li	a4,0
   1b088:	b0cff06f          	j	1a394 <__subtf3+0x458>
   1b08c:	00d31793          	slli	a5,t1,0xd
   1b090:	0407d463          	bgez	a5,1b0d8 <__subtf3+0x119c>
   1b094:	ec041463          	bnez	s0,1a75c <__subtf3+0x820>
   1b098:	00100593          	li	a1,1
   1b09c:	02f59593          	slli	a1,a1,0x2f
   1b0a0:	00000493          	li	s1,0
   1b0a4:	af0ff06f          	j	1a394 <__subtf3+0x458>
   1b0a8:	00100913          	li	s2,1
   1b0ac:	03291913          	slli	s2,s2,0x32
   1b0b0:	00000493          	li	s1,0
   1b0b4:	01000713          	li	a4,16
   1b0b8:	aacff06f          	j	1a364 <__subtf3+0x428>
   1b0bc:	00b365b3          	or	a1,t1,a1
   1b0c0:	00000713          	li	a4,0
   1b0c4:	fa058263          	beqz	a1,1a868 <__subtf3+0x92c>
   1b0c8:	00d31793          	slli	a5,t1,0xd
   1b0cc:	fa07c6e3          	bltz	a5,1b078 <__subtf3+0x113c>
   1b0d0:	01000713          	li	a4,16
   1b0d4:	cd9ff06f          	j	1adac <__subtf3+0xe70>
   1b0d8:	01000713          	li	a4,16
   1b0dc:	cc9ff06f          	j	1ada4 <__subtf3+0xe68>
   1b0e0:	00040693          	mv	a3,s0
   1b0e4:	e70ff06f          	j	1a754 <__subtf3+0x818>
   1b0e8:	00100793          	li	a5,1
   1b0ec:	03379793          	slli	a5,a5,0x33
   1b0f0:	00040593          	mv	a1,s0
   1b0f4:	00f977b3          	and	a5,s2,a5
   1b0f8:	00090313          	mv	t1,s2
   1b0fc:	00000713          	li	a4,0
   1b100:	fe1fe06f          	j	1a0e0 <__subtf3+0x1a4>
   1b104:	00068a13          	mv	s4,a3
   1b108:	00000713          	li	a4,0
   1b10c:	a58ff06f          	j	1a364 <__subtf3+0x428>

000000000001b110 <__fixtfsi>:
   1b110:	00050613          	mv	a2,a0
   1b114:	002027f3          	frrm	a5
   1b118:	000046b7          	lui	a3,0x4
   1b11c:	00159793          	slli	a5,a1,0x1
   1b120:	01059713          	slli	a4,a1,0x10
   1b124:	0317d793          	srli	a5,a5,0x31
   1b128:	ffe68693          	addi	a3,a3,-2 # 3ffe <exit-0xc15a>
   1b12c:	01075713          	srli	a4,a4,0x10
   1b130:	03f5d593          	srli	a1,a1,0x3f
   1b134:	02f6c063          	blt	a3,a5,1b154 <__fixtfsi+0x44>
   1b138:	0a079063          	bnez	a5,1b1d8 <__fixtfsi+0xc8>
   1b13c:	00e56733          	or	a4,a0,a4
   1b140:	00000513          	li	a0,0
   1b144:	0a070263          	beqz	a4,1b1e8 <__fixtfsi+0xd8>
   1b148:	00100693          	li	a3,1
   1b14c:	0016a073          	csrs	fflags,a3
   1b150:	00008067          	ret
   1b154:	000046b7          	lui	a3,0x4
   1b158:	01d68693          	addi	a3,a3,29 # 401d <exit-0xc13b>
   1b15c:	02f6da63          	bge	a3,a5,1b190 <__fixtfsi+0x80>
   1b160:	08058663          	beqz	a1,1b1ec <__fixtfsi+0xdc>
   1b164:	000045b7          	lui	a1,0x4
   1b168:	01e58593          	addi	a1,a1,30 # 401e <exit-0xc13a>
   1b16c:	80000537          	lui	a0,0x80000
   1b170:	01000693          	li	a3,16
   1b174:	fcb79ce3          	bne	a5,a1,1b14c <__fixtfsi+0x3c>
   1b178:	01175793          	srli	a5,a4,0x11
   1b17c:	fc0798e3          	bnez	a5,1b14c <__fixtfsi+0x3c>
   1b180:	02f71713          	slli	a4,a4,0x2f
   1b184:	00c76733          	or	a4,a4,a2
   1b188:	fc0710e3          	bnez	a4,1b148 <__fixtfsi+0x38>
   1b18c:	00008067          	ret
   1b190:	00100813          	li	a6,1
   1b194:	ffffc6b7          	lui	a3,0xffffc
   1b198:	00004537          	lui	a0,0x4
   1b19c:	03081813          	slli	a6,a6,0x30
   1b1a0:	0116869b          	addiw	a3,a3,17 # ffffffffffffc011 <__BSS_END__+0xfffffffffffdc3b1>
   1b1a4:	02f5051b          	addiw	a0,a0,47 # 402f <exit-0xc129>
   1b1a8:	40f5053b          	subw	a0,a0,a5
   1b1ac:	01076733          	or	a4,a4,a6
   1b1b0:	00f686bb          	addw	a3,a3,a5
   1b1b4:	00d717b3          	sll	a5,a4,a3
   1b1b8:	00a75733          	srl	a4,a4,a0
   1b1bc:	00c7e7b3          	or	a5,a5,a2
   1b1c0:	0007051b          	sext.w	a0,a4
   1b1c4:	00058463          	beqz	a1,1b1cc <__fixtfsi+0xbc>
   1b1c8:	40a0053b          	negw	a0,a0
   1b1cc:	f80782e3          	beqz	a5,1b150 <__fixtfsi+0x40>
   1b1d0:	00100693          	li	a3,1
   1b1d4:	f79ff06f          	j	1b14c <__fixtfsi+0x3c>
   1b1d8:	00000513          	li	a0,0
   1b1dc:	00100693          	li	a3,1
   1b1e0:	0016a073          	csrs	fflags,a3
   1b1e4:	00008067          	ret
   1b1e8:	00008067          	ret
   1b1ec:	80000537          	lui	a0,0x80000
   1b1f0:	fff54513          	not	a0,a0
   1b1f4:	01000693          	li	a3,16
   1b1f8:	0016a073          	csrs	fflags,a3
   1b1fc:	00008067          	ret

000000000001b200 <__fixunstfsi>:
   1b200:	002027f3          	frrm	a5
   1b204:	fff00693          	li	a3,-1
   1b208:	00159793          	slli	a5,a1,0x1
   1b20c:	00004637          	lui	a2,0x4
   1b210:	0106d713          	srli	a4,a3,0x10
   1b214:	0317d793          	srli	a5,a5,0x31
   1b218:	ffe60613          	addi	a2,a2,-2 # 3ffe <exit-0xc15a>
   1b21c:	00e5f733          	and	a4,a1,a4
   1b220:	03f5d593          	srli	a1,a1,0x3f
   1b224:	02f64063          	blt	a2,a5,1b244 <__fixunstfsi+0x44>
   1b228:	00079663          	bnez	a5,1b234 <__fixunstfsi+0x34>
   1b22c:	00a76733          	or	a4,a4,a0
   1b230:	08070463          	beqz	a4,1b2b8 <__fixunstfsi+0xb8>
   1b234:	00100793          	li	a5,1
   1b238:	00000513          	li	a0,0
   1b23c:	0017a073          	csrs	fflags,a5
   1b240:	00008067          	ret
   1b244:	00058a63          	beqz	a1,1b258 <__fixunstfsi+0x58>
   1b248:	01000793          	li	a5,16
   1b24c:	00000513          	li	a0,0
   1b250:	0017a073          	csrs	fflags,a5
   1b254:	00008067          	ret
   1b258:	00004637          	lui	a2,0x4
   1b25c:	01e60613          	addi	a2,a2,30 # 401e <exit-0xc13a>
   1b260:	04f64463          	blt	a2,a5,1b2a8 <__fixunstfsi+0xa8>
   1b264:	00100593          	li	a1,1
   1b268:	ffffc6b7          	lui	a3,0xffffc
   1b26c:	03059593          	slli	a1,a1,0x30
   1b270:	0116869b          	addiw	a3,a3,17 # ffffffffffffc011 <__BSS_END__+0xfffffffffffdc3b1>
   1b274:	00004637          	lui	a2,0x4
   1b278:	00b76733          	or	a4,a4,a1
   1b27c:	00f686bb          	addw	a3,a3,a5
   1b280:	02f6061b          	addiw	a2,a2,47 # 402f <exit-0xc129>
   1b284:	00d716b3          	sll	a3,a4,a3
   1b288:	40f6063b          	subw	a2,a2,a5
   1b28c:	00c75733          	srl	a4,a4,a2
   1b290:	00a6e7b3          	or	a5,a3,a0
   1b294:	0007051b          	sext.w	a0,a4
   1b298:	fa0784e3          	beqz	a5,1b240 <__fixunstfsi+0x40>
   1b29c:	00100793          	li	a5,1
   1b2a0:	0017a073          	csrs	fflags,a5
   1b2a4:	00008067          	ret
   1b2a8:	00068513          	mv	a0,a3
   1b2ac:	01000793          	li	a5,16
   1b2b0:	0017a073          	csrs	fflags,a5
   1b2b4:	00008067          	ret
   1b2b8:	00000513          	li	a0,0
   1b2bc:	00008067          	ret

000000000001b2c0 <__floatsitf>:
   1b2c0:	fe010113          	addi	sp,sp,-32
   1b2c4:	00113c23          	sd	ra,24(sp)
   1b2c8:	00913423          	sd	s1,8(sp)
   1b2cc:	06050e63          	beqz	a0,1b348 <__floatsitf+0x88>
   1b2d0:	41f5571b          	sraiw	a4,a0,0x1f
   1b2d4:	00e547b3          	xor	a5,a0,a4
   1b2d8:	40e787bb          	subw	a5,a5,a4
   1b2dc:	00813823          	sd	s0,16(sp)
   1b2e0:	02079413          	slli	s0,a5,0x20
   1b2e4:	02045413          	srli	s0,s0,0x20
   1b2e8:	01f5549b          	srliw	s1,a0,0x1f
   1b2ec:	00040513          	mv	a0,s0
   1b2f0:	268000ef          	jal	1b558 <__clzdi2>
   1b2f4:	000045b7          	lui	a1,0x4
   1b2f8:	ff15079b          	addiw	a5,a0,-15 # 7ffffff1 <__BSS_END__+0x7ffe0391>
   1b2fc:	03e5859b          	addiw	a1,a1,62 # 403e <exit-0xc11a>
   1b300:	00f417b3          	sll	a5,s0,a5
   1b304:	40a585bb          	subw	a1,a1,a0
   1b308:	01013403          	ld	s0,16(sp)
   1b30c:	01079793          	slli	a5,a5,0x10
   1b310:	03159593          	slli	a1,a1,0x31
   1b314:	0107d793          	srli	a5,a5,0x10
   1b318:	0315d593          	srli	a1,a1,0x31
   1b31c:	00f4951b          	slliw	a0,s1,0xf
   1b320:	01813083          	ld	ra,24(sp)
   1b324:	00a5e5b3          	or	a1,a1,a0
   1b328:	01079793          	slli	a5,a5,0x10
   1b32c:	03059593          	slli	a1,a1,0x30
   1b330:	0107d793          	srli	a5,a5,0x10
   1b334:	00813483          	ld	s1,8(sp)
   1b338:	00b7e5b3          	or	a1,a5,a1
   1b33c:	00000513          	li	a0,0
   1b340:	02010113          	addi	sp,sp,32
   1b344:	00008067          	ret
   1b348:	00000493          	li	s1,0
   1b34c:	00000593          	li	a1,0
   1b350:	00000793          	li	a5,0
   1b354:	fc9ff06f          	j	1b31c <__floatsitf+0x5c>

000000000001b358 <__floatunsitf>:
   1b358:	06050463          	beqz	a0,1b3c0 <__floatunsitf+0x68>
   1b35c:	ff010113          	addi	sp,sp,-16
   1b360:	00813023          	sd	s0,0(sp)
   1b364:	02051413          	slli	s0,a0,0x20
   1b368:	02045413          	srli	s0,s0,0x20
   1b36c:	00040513          	mv	a0,s0
   1b370:	00113423          	sd	ra,8(sp)
   1b374:	1e4000ef          	jal	1b558 <__clzdi2>
   1b378:	ff15079b          	addiw	a5,a0,-15
   1b37c:	000045b7          	lui	a1,0x4
   1b380:	00f417b3          	sll	a5,s0,a5
   1b384:	03e5859b          	addiw	a1,a1,62 # 403e <exit-0xc11a>
   1b388:	40a585bb          	subw	a1,a1,a0
   1b38c:	01079793          	slli	a5,a5,0x10
   1b390:	00813083          	ld	ra,8(sp)
   1b394:	00013403          	ld	s0,0(sp)
   1b398:	03159593          	slli	a1,a1,0x31
   1b39c:	0107d793          	srli	a5,a5,0x10
   1b3a0:	0315d593          	srli	a1,a1,0x31
   1b3a4:	01079793          	slli	a5,a5,0x10
   1b3a8:	0107d793          	srli	a5,a5,0x10
   1b3ac:	03059593          	slli	a1,a1,0x30
   1b3b0:	00b7e5b3          	or	a1,a5,a1
   1b3b4:	00000513          	li	a0,0
   1b3b8:	01010113          	addi	sp,sp,16
   1b3bc:	00008067          	ret
   1b3c0:	00000793          	li	a5,0
   1b3c4:	00000593          	li	a1,0
   1b3c8:	01079793          	slli	a5,a5,0x10
   1b3cc:	0107d793          	srli	a5,a5,0x10
   1b3d0:	03059593          	slli	a1,a1,0x30
   1b3d4:	00b7e5b3          	or	a1,a5,a1
   1b3d8:	00000513          	li	a0,0
   1b3dc:	00008067          	ret

000000000001b3e0 <__extenddftf2>:
   1b3e0:	fe010113          	addi	sp,sp,-32
   1b3e4:	00813823          	sd	s0,16(sp)
   1b3e8:	00113c23          	sd	ra,24(sp)
   1b3ec:	e2050453          	fmv.x.d	s0,fa0
   1b3f0:	00913423          	sd	s1,8(sp)
   1b3f4:	002027f3          	frrm	a5
   1b3f8:	03445793          	srli	a5,s0,0x34
   1b3fc:	7ff7f793          	andi	a5,a5,2047
   1b400:	00178693          	addi	a3,a5,1
   1b404:	fff00613          	li	a2,-1
   1b408:	00c65493          	srli	s1,a2,0xc
   1b40c:	7fe6f693          	andi	a3,a3,2046
   1b410:	0084f4b3          	and	s1,s1,s0
   1b414:	03f45413          	srli	s0,s0,0x3f
   1b418:	02068e63          	beqz	a3,1b454 <__extenddftf2+0x74>
   1b41c:	00004737          	lui	a4,0x4
   1b420:	c0070713          	addi	a4,a4,-1024 # 3c00 <exit-0xc558>
   1b424:	00e787b3          	add	a5,a5,a4
   1b428:	03079793          	slli	a5,a5,0x30
   1b42c:	0044d593          	srli	a1,s1,0x4
   1b430:	03f41713          	slli	a4,s0,0x3f
   1b434:	00f5e5b3          	or	a1,a1,a5
   1b438:	00e5e5b3          	or	a1,a1,a4
   1b43c:	03c49513          	slli	a0,s1,0x3c
   1b440:	01813083          	ld	ra,24(sp)
   1b444:	01013403          	ld	s0,16(sp)
   1b448:	00813483          	ld	s1,8(sp)
   1b44c:	02010113          	addi	sp,sp,32
   1b450:	00008067          	ret
   1b454:	06079863          	bnez	a5,1b4c4 <__extenddftf2+0xe4>
   1b458:	0a048663          	beqz	s1,1b504 <__extenddftf2+0x124>
   1b45c:	00048513          	mv	a0,s1
   1b460:	0f8000ef          	jal	1b558 <__clzdi2>
   1b464:	0005069b          	sext.w	a3,a0
   1b468:	00e00793          	li	a5,14
   1b46c:	00068713          	mv	a4,a3
   1b470:	0cd7cc63          	blt	a5,a3,1b548 <__extenddftf2+0x168>
   1b474:	00f00593          	li	a1,15
   1b478:	40d585bb          	subw	a1,a1,a3
   1b47c:	0316879b          	addiw	a5,a3,49
   1b480:	00b4d5b3          	srl	a1,s1,a1
   1b484:	00f49533          	sll	a0,s1,a5
   1b488:	000047b7          	lui	a5,0x4
   1b48c:	c0c7879b          	addiw	a5,a5,-1012 # 3c0c <exit-0xc54c>
   1b490:	40e787bb          	subw	a5,a5,a4
   1b494:	01813083          	ld	ra,24(sp)
   1b498:	03f41713          	slli	a4,s0,0x3f
   1b49c:	01059593          	slli	a1,a1,0x10
   1b4a0:	01013403          	ld	s0,16(sp)
   1b4a4:	03179793          	slli	a5,a5,0x31
   1b4a8:	0105d593          	srli	a1,a1,0x10
   1b4ac:	0017d793          	srli	a5,a5,0x1
   1b4b0:	00f5e5b3          	or	a1,a1,a5
   1b4b4:	00813483          	ld	s1,8(sp)
   1b4b8:	00e5e5b3          	or	a1,a1,a4
   1b4bc:	02010113          	addi	sp,sp,32
   1b4c0:	00008067          	ret
   1b4c4:	04048e63          	beqz	s1,1b520 <__extenddftf2+0x140>
   1b4c8:	0ffff7b7          	lui	a5,0xffff
   1b4cc:	02379793          	slli	a5,a5,0x23
   1b4d0:	0044d593          	srli	a1,s1,0x4
   1b4d4:	03f41713          	slli	a4,s0,0x3f
   1b4d8:	00f5e5b3          	or	a1,a1,a5
   1b4dc:	00d65613          	srli	a2,a2,0xd
   1b4e0:	00e5e5b3          	or	a1,a1,a4
   1b4e4:	03c49513          	slli	a0,s1,0x3c
   1b4e8:	f4966ce3          	bltu	a2,s1,1b440 <__extenddftf2+0x60>
   1b4ec:	00186073          	csrsi	fflags,16
   1b4f0:	01813083          	ld	ra,24(sp)
   1b4f4:	01013403          	ld	s0,16(sp)
   1b4f8:	00813483          	ld	s1,8(sp)
   1b4fc:	02010113          	addi	sp,sp,32
   1b500:	00008067          	ret
   1b504:	01813083          	ld	ra,24(sp)
   1b508:	03f41593          	slli	a1,s0,0x3f
   1b50c:	01013403          	ld	s0,16(sp)
   1b510:	00813483          	ld	s1,8(sp)
   1b514:	00000513          	li	a0,0
   1b518:	02010113          	addi	sp,sp,32
   1b51c:	00008067          	ret
   1b520:	01813083          	ld	ra,24(sp)
   1b524:	03f41593          	slli	a1,s0,0x3f
   1b528:	01013403          	ld	s0,16(sp)
   1b52c:	07fff7b7          	lui	a5,0x7fff
   1b530:	02479793          	slli	a5,a5,0x24
   1b534:	00813483          	ld	s1,8(sp)
   1b538:	00f5e5b3          	or	a1,a1,a5
   1b53c:	00000513          	li	a0,0
   1b540:	02010113          	addi	sp,sp,32
   1b544:	00008067          	ret
   1b548:	ff16859b          	addiw	a1,a3,-15
   1b54c:	00b495b3          	sll	a1,s1,a1
   1b550:	00000513          	li	a0,0
   1b554:	f35ff06f          	j	1b488 <__extenddftf2+0xa8>

000000000001b558 <__clzdi2>:
   1b558:	03800793          	li	a5,56
   1b55c:	00f55733          	srl	a4,a0,a5
   1b560:	0ff77693          	zext.b	a3,a4
   1b564:	02069463          	bnez	a3,1b58c <__clzdi2+0x34>
   1b568:	ff878793          	addi	a5,a5,-8 # 7ffeff8 <__BSS_END__+0x7fdf398>
   1b56c:	fe0798e3          	bnez	a5,1b55c <__clzdi2+0x4>
   1b570:	00004797          	auipc	a5,0x4
   1b574:	a707b783          	ld	a5,-1424(a5) # 1efe0 <_GLOBAL_OFFSET_TABLE_+0x88>
   1b578:	00a787b3          	add	a5,a5,a0
   1b57c:	0007c503          	lbu	a0,0(a5)
   1b580:	04000693          	li	a3,64
   1b584:	40a6853b          	subw	a0,a3,a0
   1b588:	00008067          	ret
   1b58c:	04000693          	li	a3,64
   1b590:	00070513          	mv	a0,a4
   1b594:	40f686b3          	sub	a3,a3,a5
   1b598:	00004797          	auipc	a5,0x4
   1b59c:	a487b783          	ld	a5,-1464(a5) # 1efe0 <_GLOBAL_OFFSET_TABLE_+0x88>
   1b5a0:	00a787b3          	add	a5,a5,a0
   1b5a4:	0007c503          	lbu	a0,0(a5)
   1b5a8:	40a6853b          	subw	a0,a3,a0
   1b5ac:	00008067          	ret
